ARM GAS  /tmp/ccZrYRqG.s 			page 1


   1              		.cpu cortex-m4
   2              		.eabi_attribute 27, 1
   3              		.eabi_attribute 28, 1
   4              		.eabi_attribute 20, 1
   5              		.eabi_attribute 21, 1
   6              		.eabi_attribute 23, 3
   7              		.eabi_attribute 24, 1
   8              		.eabi_attribute 25, 1
   9              		.eabi_attribute 26, 1
  10              		.eabi_attribute 30, 1
  11              		.eabi_attribute 34, 1
  12              		.eabi_attribute 18, 4
  13              		.file	"cmsis_os2.c"
  14              		.text
  15              	.Ltext0:
  16              		.cfi_sections	.debug_frame
  17              		.section	.text.TimerCallback,"ax",%progbits
  18              		.align	1
  19              		.syntax unified
  20              		.thumb
  21              		.thumb_func
  22              		.fpu fpv4-sp-d16
  24              	TimerCallback:
  25              	.LFB138:
  26              		.file 1 "Middlewares/Third_Party/FreeRTOS/Source/CMSIS_RTOS_V2/cmsis_os2.c"
   1:Middlewares/Third_Party/FreeRTOS/Source/CMSIS_RTOS_V2/cmsis_os2.c **** /* --------------------------------------------------------------------------
   2:Middlewares/Third_Party/FreeRTOS/Source/CMSIS_RTOS_V2/cmsis_os2.c ****  * Portions Copyright © 2019 STMicroelectronics International N.V. All rights reserved.
   3:Middlewares/Third_Party/FreeRTOS/Source/CMSIS_RTOS_V2/cmsis_os2.c ****  * Copyright (c) 2013-2019 Arm Limited. All rights reserved.
   4:Middlewares/Third_Party/FreeRTOS/Source/CMSIS_RTOS_V2/cmsis_os2.c ****  *
   5:Middlewares/Third_Party/FreeRTOS/Source/CMSIS_RTOS_V2/cmsis_os2.c ****  * SPDX-License-Identifier: Apache-2.0
   6:Middlewares/Third_Party/FreeRTOS/Source/CMSIS_RTOS_V2/cmsis_os2.c ****  *
   7:Middlewares/Third_Party/FreeRTOS/Source/CMSIS_RTOS_V2/cmsis_os2.c ****  * Licensed under the Apache License, Version 2.0 (the License); you may
   8:Middlewares/Third_Party/FreeRTOS/Source/CMSIS_RTOS_V2/cmsis_os2.c ****  * not use this file except in compliance with the License.
   9:Middlewares/Third_Party/FreeRTOS/Source/CMSIS_RTOS_V2/cmsis_os2.c ****  * You may obtain a copy of the License at
  10:Middlewares/Third_Party/FreeRTOS/Source/CMSIS_RTOS_V2/cmsis_os2.c ****  *
  11:Middlewares/Third_Party/FreeRTOS/Source/CMSIS_RTOS_V2/cmsis_os2.c ****  * www.apache.org/licenses/LICENSE-2.0
  12:Middlewares/Third_Party/FreeRTOS/Source/CMSIS_RTOS_V2/cmsis_os2.c ****  *
  13:Middlewares/Third_Party/FreeRTOS/Source/CMSIS_RTOS_V2/cmsis_os2.c ****  * Unless required by applicable law or agreed to in writing, software
  14:Middlewares/Third_Party/FreeRTOS/Source/CMSIS_RTOS_V2/cmsis_os2.c ****  * distributed under the License is distributed on an AS IS BASIS, WITHOUT
  15:Middlewares/Third_Party/FreeRTOS/Source/CMSIS_RTOS_V2/cmsis_os2.c ****  * WARRANTIES OR CONDITIONS OF ANY KIND, either express or implied.
  16:Middlewares/Third_Party/FreeRTOS/Source/CMSIS_RTOS_V2/cmsis_os2.c ****  * See the License for the specific language governing permissions and
  17:Middlewares/Third_Party/FreeRTOS/Source/CMSIS_RTOS_V2/cmsis_os2.c ****  * limitations under the License.
  18:Middlewares/Third_Party/FreeRTOS/Source/CMSIS_RTOS_V2/cmsis_os2.c ****  *
  19:Middlewares/Third_Party/FreeRTOS/Source/CMSIS_RTOS_V2/cmsis_os2.c ****  *      Name:    cmsis_os2.c
  20:Middlewares/Third_Party/FreeRTOS/Source/CMSIS_RTOS_V2/cmsis_os2.c ****  *      Purpose: CMSIS RTOS2 wrapper for FreeRTOS
  21:Middlewares/Third_Party/FreeRTOS/Source/CMSIS_RTOS_V2/cmsis_os2.c ****  *
  22:Middlewares/Third_Party/FreeRTOS/Source/CMSIS_RTOS_V2/cmsis_os2.c ****  *---------------------------------------------------------------------------*/
  23:Middlewares/Third_Party/FreeRTOS/Source/CMSIS_RTOS_V2/cmsis_os2.c **** 
  24:Middlewares/Third_Party/FreeRTOS/Source/CMSIS_RTOS_V2/cmsis_os2.c **** #include <string.h>
  25:Middlewares/Third_Party/FreeRTOS/Source/CMSIS_RTOS_V2/cmsis_os2.c **** 
  26:Middlewares/Third_Party/FreeRTOS/Source/CMSIS_RTOS_V2/cmsis_os2.c **** #include "cmsis_os2.h"                  // ::CMSIS:RTOS2
  27:Middlewares/Third_Party/FreeRTOS/Source/CMSIS_RTOS_V2/cmsis_os2.c **** #include "cmsis_compiler.h"
  28:Middlewares/Third_Party/FreeRTOS/Source/CMSIS_RTOS_V2/cmsis_os2.c **** 
  29:Middlewares/Third_Party/FreeRTOS/Source/CMSIS_RTOS_V2/cmsis_os2.c **** #include "FreeRTOS.h"                   // ARM.FreeRTOS::RTOS:Core
  30:Middlewares/Third_Party/FreeRTOS/Source/CMSIS_RTOS_V2/cmsis_os2.c **** #include "task.h"                       // ARM.FreeRTOS::RTOS:Core
  31:Middlewares/Third_Party/FreeRTOS/Source/CMSIS_RTOS_V2/cmsis_os2.c **** #include "event_groups.h"               // ARM.FreeRTOS::RTOS:Event Groups
  32:Middlewares/Third_Party/FreeRTOS/Source/CMSIS_RTOS_V2/cmsis_os2.c **** #include "semphr.h"                     // ARM.FreeRTOS::RTOS:Core
ARM GAS  /tmp/ccZrYRqG.s 			page 2


  33:Middlewares/Third_Party/FreeRTOS/Source/CMSIS_RTOS_V2/cmsis_os2.c **** 
  34:Middlewares/Third_Party/FreeRTOS/Source/CMSIS_RTOS_V2/cmsis_os2.c **** /*---------------------------------------------------------------------------*/
  35:Middlewares/Third_Party/FreeRTOS/Source/CMSIS_RTOS_V2/cmsis_os2.c **** #ifndef __ARM_ARCH_6M__
  36:Middlewares/Third_Party/FreeRTOS/Source/CMSIS_RTOS_V2/cmsis_os2.c ****   #define __ARM_ARCH_6M__         0
  37:Middlewares/Third_Party/FreeRTOS/Source/CMSIS_RTOS_V2/cmsis_os2.c **** #endif
  38:Middlewares/Third_Party/FreeRTOS/Source/CMSIS_RTOS_V2/cmsis_os2.c **** #ifndef __ARM_ARCH_7M__
  39:Middlewares/Third_Party/FreeRTOS/Source/CMSIS_RTOS_V2/cmsis_os2.c ****   #define __ARM_ARCH_7M__         0
  40:Middlewares/Third_Party/FreeRTOS/Source/CMSIS_RTOS_V2/cmsis_os2.c **** #endif
  41:Middlewares/Third_Party/FreeRTOS/Source/CMSIS_RTOS_V2/cmsis_os2.c **** #ifndef __ARM_ARCH_7EM__
  42:Middlewares/Third_Party/FreeRTOS/Source/CMSIS_RTOS_V2/cmsis_os2.c ****   #define __ARM_ARCH_7EM__        0
  43:Middlewares/Third_Party/FreeRTOS/Source/CMSIS_RTOS_V2/cmsis_os2.c **** #endif
  44:Middlewares/Third_Party/FreeRTOS/Source/CMSIS_RTOS_V2/cmsis_os2.c **** #ifndef __ARM_ARCH_8M_MAIN__
  45:Middlewares/Third_Party/FreeRTOS/Source/CMSIS_RTOS_V2/cmsis_os2.c ****   #define __ARM_ARCH_8M_MAIN__    0
  46:Middlewares/Third_Party/FreeRTOS/Source/CMSIS_RTOS_V2/cmsis_os2.c **** #endif
  47:Middlewares/Third_Party/FreeRTOS/Source/CMSIS_RTOS_V2/cmsis_os2.c **** #ifndef __ARM_ARCH_7A__
  48:Middlewares/Third_Party/FreeRTOS/Source/CMSIS_RTOS_V2/cmsis_os2.c ****   #define __ARM_ARCH_7A__         0
  49:Middlewares/Third_Party/FreeRTOS/Source/CMSIS_RTOS_V2/cmsis_os2.c **** #endif
  50:Middlewares/Third_Party/FreeRTOS/Source/CMSIS_RTOS_V2/cmsis_os2.c **** 
  51:Middlewares/Third_Party/FreeRTOS/Source/CMSIS_RTOS_V2/cmsis_os2.c **** #if   ((__ARM_ARCH_7M__      == 1U) || \
  52:Middlewares/Third_Party/FreeRTOS/Source/CMSIS_RTOS_V2/cmsis_os2.c ****        (__ARM_ARCH_7EM__     == 1U) || \
  53:Middlewares/Third_Party/FreeRTOS/Source/CMSIS_RTOS_V2/cmsis_os2.c ****        (__ARM_ARCH_8M_MAIN__ == 1U))
  54:Middlewares/Third_Party/FreeRTOS/Source/CMSIS_RTOS_V2/cmsis_os2.c **** #define IS_IRQ_MASKED()           ((__get_PRIMASK() != 0U) || (__get_BASEPRI() != 0U))
  55:Middlewares/Third_Party/FreeRTOS/Source/CMSIS_RTOS_V2/cmsis_os2.c **** #elif  (__ARM_ARCH_6M__      == 1U)
  56:Middlewares/Third_Party/FreeRTOS/Source/CMSIS_RTOS_V2/cmsis_os2.c **** #define IS_IRQ_MASKED()           (__get_PRIMASK() != 0U)
  57:Middlewares/Third_Party/FreeRTOS/Source/CMSIS_RTOS_V2/cmsis_os2.c **** #elif (__ARM_ARCH_7A__       == 1U)
  58:Middlewares/Third_Party/FreeRTOS/Source/CMSIS_RTOS_V2/cmsis_os2.c **** /* CPSR mask bits */
  59:Middlewares/Third_Party/FreeRTOS/Source/CMSIS_RTOS_V2/cmsis_os2.c **** #define CPSR_MASKBIT_I            0x80U
  60:Middlewares/Third_Party/FreeRTOS/Source/CMSIS_RTOS_V2/cmsis_os2.c **** 
  61:Middlewares/Third_Party/FreeRTOS/Source/CMSIS_RTOS_V2/cmsis_os2.c **** #define IS_IRQ_MASKED()           ((__get_CPSR() & CPSR_MASKBIT_I) != 0U)
  62:Middlewares/Third_Party/FreeRTOS/Source/CMSIS_RTOS_V2/cmsis_os2.c **** #else
  63:Middlewares/Third_Party/FreeRTOS/Source/CMSIS_RTOS_V2/cmsis_os2.c **** #define IS_IRQ_MASKED()           (__get_PRIMASK() != 0U)
  64:Middlewares/Third_Party/FreeRTOS/Source/CMSIS_RTOS_V2/cmsis_os2.c **** #endif
  65:Middlewares/Third_Party/FreeRTOS/Source/CMSIS_RTOS_V2/cmsis_os2.c **** 
  66:Middlewares/Third_Party/FreeRTOS/Source/CMSIS_RTOS_V2/cmsis_os2.c **** #if    (__ARM_ARCH_7A__      == 1U)
  67:Middlewares/Third_Party/FreeRTOS/Source/CMSIS_RTOS_V2/cmsis_os2.c **** /* CPSR mode bitmasks */
  68:Middlewares/Third_Party/FreeRTOS/Source/CMSIS_RTOS_V2/cmsis_os2.c **** #define CPSR_MODE_USER            0x10U
  69:Middlewares/Third_Party/FreeRTOS/Source/CMSIS_RTOS_V2/cmsis_os2.c **** #define CPSR_MODE_SYSTEM          0x1FU
  70:Middlewares/Third_Party/FreeRTOS/Source/CMSIS_RTOS_V2/cmsis_os2.c **** 
  71:Middlewares/Third_Party/FreeRTOS/Source/CMSIS_RTOS_V2/cmsis_os2.c **** #define IS_IRQ_MODE()             ((__get_mode() != CPSR_MODE_USER) && (__get_mode() != CPSR_MODE_S
  72:Middlewares/Third_Party/FreeRTOS/Source/CMSIS_RTOS_V2/cmsis_os2.c **** #else
  73:Middlewares/Third_Party/FreeRTOS/Source/CMSIS_RTOS_V2/cmsis_os2.c **** #define IS_IRQ_MODE()             (__get_IPSR() != 0U)
  74:Middlewares/Third_Party/FreeRTOS/Source/CMSIS_RTOS_V2/cmsis_os2.c **** #endif
  75:Middlewares/Third_Party/FreeRTOS/Source/CMSIS_RTOS_V2/cmsis_os2.c **** 
  76:Middlewares/Third_Party/FreeRTOS/Source/CMSIS_RTOS_V2/cmsis_os2.c **** #define IS_IRQ()                  (IS_IRQ_MODE() || (IS_IRQ_MASKED() && (KernelState == osKernelRun
  77:Middlewares/Third_Party/FreeRTOS/Source/CMSIS_RTOS_V2/cmsis_os2.c **** 
  78:Middlewares/Third_Party/FreeRTOS/Source/CMSIS_RTOS_V2/cmsis_os2.c **** /* Limits */
  79:Middlewares/Third_Party/FreeRTOS/Source/CMSIS_RTOS_V2/cmsis_os2.c **** #define MAX_BITS_TASK_NOTIFY      31U
  80:Middlewares/Third_Party/FreeRTOS/Source/CMSIS_RTOS_V2/cmsis_os2.c **** #define MAX_BITS_EVENT_GROUPS     24U
  81:Middlewares/Third_Party/FreeRTOS/Source/CMSIS_RTOS_V2/cmsis_os2.c **** 
  82:Middlewares/Third_Party/FreeRTOS/Source/CMSIS_RTOS_V2/cmsis_os2.c **** #define THREAD_FLAGS_INVALID_BITS (~((1UL << MAX_BITS_TASK_NOTIFY)  - 1U))
  83:Middlewares/Third_Party/FreeRTOS/Source/CMSIS_RTOS_V2/cmsis_os2.c **** #define EVENT_FLAGS_INVALID_BITS  (~((1UL << MAX_BITS_EVENT_GROUPS) - 1U))
  84:Middlewares/Third_Party/FreeRTOS/Source/CMSIS_RTOS_V2/cmsis_os2.c **** 
  85:Middlewares/Third_Party/FreeRTOS/Source/CMSIS_RTOS_V2/cmsis_os2.c **** /* Kernel version and identification string definition (major.minor.rev: mmnnnrrrr dec) */
  86:Middlewares/Third_Party/FreeRTOS/Source/CMSIS_RTOS_V2/cmsis_os2.c **** #define KERNEL_VERSION            (((uint32_t)tskKERNEL_VERSION_MAJOR * 10000000UL) | \
  87:Middlewares/Third_Party/FreeRTOS/Source/CMSIS_RTOS_V2/cmsis_os2.c ****                                    ((uint32_t)tskKERNEL_VERSION_MINOR *    10000UL) | \
  88:Middlewares/Third_Party/FreeRTOS/Source/CMSIS_RTOS_V2/cmsis_os2.c ****                                    ((uint32_t)tskKERNEL_VERSION_BUILD *        1UL))
  89:Middlewares/Third_Party/FreeRTOS/Source/CMSIS_RTOS_V2/cmsis_os2.c **** 
ARM GAS  /tmp/ccZrYRqG.s 			page 3


  90:Middlewares/Third_Party/FreeRTOS/Source/CMSIS_RTOS_V2/cmsis_os2.c **** #define KERNEL_ID                 ("FreeRTOS " tskKERNEL_VERSION_NUMBER)
  91:Middlewares/Third_Party/FreeRTOS/Source/CMSIS_RTOS_V2/cmsis_os2.c **** 
  92:Middlewares/Third_Party/FreeRTOS/Source/CMSIS_RTOS_V2/cmsis_os2.c **** /* Timer callback information structure definition */
  93:Middlewares/Third_Party/FreeRTOS/Source/CMSIS_RTOS_V2/cmsis_os2.c **** typedef struct {
  94:Middlewares/Third_Party/FreeRTOS/Source/CMSIS_RTOS_V2/cmsis_os2.c ****   osTimerFunc_t func;
  95:Middlewares/Third_Party/FreeRTOS/Source/CMSIS_RTOS_V2/cmsis_os2.c ****   void         *arg;
  96:Middlewares/Third_Party/FreeRTOS/Source/CMSIS_RTOS_V2/cmsis_os2.c **** } TimerCallback_t;
  97:Middlewares/Third_Party/FreeRTOS/Source/CMSIS_RTOS_V2/cmsis_os2.c **** 
  98:Middlewares/Third_Party/FreeRTOS/Source/CMSIS_RTOS_V2/cmsis_os2.c **** /* Kernel initialization state */
  99:Middlewares/Third_Party/FreeRTOS/Source/CMSIS_RTOS_V2/cmsis_os2.c **** static osKernelState_t KernelState = osKernelInactive;
 100:Middlewares/Third_Party/FreeRTOS/Source/CMSIS_RTOS_V2/cmsis_os2.c **** 
 101:Middlewares/Third_Party/FreeRTOS/Source/CMSIS_RTOS_V2/cmsis_os2.c **** /*
 102:Middlewares/Third_Party/FreeRTOS/Source/CMSIS_RTOS_V2/cmsis_os2.c ****   Heap region definition used by heap_5 variant
 103:Middlewares/Third_Party/FreeRTOS/Source/CMSIS_RTOS_V2/cmsis_os2.c **** 
 104:Middlewares/Third_Party/FreeRTOS/Source/CMSIS_RTOS_V2/cmsis_os2.c ****   Define configAPPLICATION_ALLOCATED_HEAP as nonzero value in FreeRTOSConfig.h if
 105:Middlewares/Third_Party/FreeRTOS/Source/CMSIS_RTOS_V2/cmsis_os2.c ****   heap regions are already defined and vPortDefineHeapRegions is called in application.
 106:Middlewares/Third_Party/FreeRTOS/Source/CMSIS_RTOS_V2/cmsis_os2.c **** 
 107:Middlewares/Third_Party/FreeRTOS/Source/CMSIS_RTOS_V2/cmsis_os2.c ****   Otherwise vPortDefineHeapRegions will be called by osKernelInitialize using
 108:Middlewares/Third_Party/FreeRTOS/Source/CMSIS_RTOS_V2/cmsis_os2.c ****   definition configHEAP_5_REGIONS as parameter. Overriding configHEAP_5_REGIONS
 109:Middlewares/Third_Party/FreeRTOS/Source/CMSIS_RTOS_V2/cmsis_os2.c ****   is possible by defining it globally or in FreeRTOSConfig.h.
 110:Middlewares/Third_Party/FreeRTOS/Source/CMSIS_RTOS_V2/cmsis_os2.c **** */
 111:Middlewares/Third_Party/FreeRTOS/Source/CMSIS_RTOS_V2/cmsis_os2.c **** #if defined(USE_FREERTOS_HEAP_5)
 112:Middlewares/Third_Party/FreeRTOS/Source/CMSIS_RTOS_V2/cmsis_os2.c **** #if (configAPPLICATION_ALLOCATED_HEAP == 0)
 113:Middlewares/Third_Party/FreeRTOS/Source/CMSIS_RTOS_V2/cmsis_os2.c ****   /*
 114:Middlewares/Third_Party/FreeRTOS/Source/CMSIS_RTOS_V2/cmsis_os2.c ****     FreeRTOS heap is not defined by the application.
 115:Middlewares/Third_Party/FreeRTOS/Source/CMSIS_RTOS_V2/cmsis_os2.c ****     Single region of size configTOTAL_HEAP_SIZE (defined in FreeRTOSConfig.h)
 116:Middlewares/Third_Party/FreeRTOS/Source/CMSIS_RTOS_V2/cmsis_os2.c ****     is provided by default. Define configHEAP_5_REGIONS to provide custom
 117:Middlewares/Third_Party/FreeRTOS/Source/CMSIS_RTOS_V2/cmsis_os2.c ****     HeapRegion_t array.
 118:Middlewares/Third_Party/FreeRTOS/Source/CMSIS_RTOS_V2/cmsis_os2.c ****   */
 119:Middlewares/Third_Party/FreeRTOS/Source/CMSIS_RTOS_V2/cmsis_os2.c ****   #define HEAP_5_REGION_SETUP   1
 120:Middlewares/Third_Party/FreeRTOS/Source/CMSIS_RTOS_V2/cmsis_os2.c ****   
 121:Middlewares/Third_Party/FreeRTOS/Source/CMSIS_RTOS_V2/cmsis_os2.c ****   #ifndef configHEAP_5_REGIONS
 122:Middlewares/Third_Party/FreeRTOS/Source/CMSIS_RTOS_V2/cmsis_os2.c ****     #define configHEAP_5_REGIONS xHeapRegions
 123:Middlewares/Third_Party/FreeRTOS/Source/CMSIS_RTOS_V2/cmsis_os2.c **** 
 124:Middlewares/Third_Party/FreeRTOS/Source/CMSIS_RTOS_V2/cmsis_os2.c ****     static uint8_t ucHeap[configTOTAL_HEAP_SIZE];
 125:Middlewares/Third_Party/FreeRTOS/Source/CMSIS_RTOS_V2/cmsis_os2.c **** 
 126:Middlewares/Third_Party/FreeRTOS/Source/CMSIS_RTOS_V2/cmsis_os2.c ****     static HeapRegion_t xHeapRegions[] = {
 127:Middlewares/Third_Party/FreeRTOS/Source/CMSIS_RTOS_V2/cmsis_os2.c ****       { ucHeap, configTOTAL_HEAP_SIZE },
 128:Middlewares/Third_Party/FreeRTOS/Source/CMSIS_RTOS_V2/cmsis_os2.c ****       { NULL,   0                     }
 129:Middlewares/Third_Party/FreeRTOS/Source/CMSIS_RTOS_V2/cmsis_os2.c ****     };
 130:Middlewares/Third_Party/FreeRTOS/Source/CMSIS_RTOS_V2/cmsis_os2.c ****   #else
 131:Middlewares/Third_Party/FreeRTOS/Source/CMSIS_RTOS_V2/cmsis_os2.c ****     /* Global definition is provided to override default heap array */
 132:Middlewares/Third_Party/FreeRTOS/Source/CMSIS_RTOS_V2/cmsis_os2.c ****     extern HeapRegion_t configHEAP_5_REGIONS[];
 133:Middlewares/Third_Party/FreeRTOS/Source/CMSIS_RTOS_V2/cmsis_os2.c ****   #endif
 134:Middlewares/Third_Party/FreeRTOS/Source/CMSIS_RTOS_V2/cmsis_os2.c **** #else
 135:Middlewares/Third_Party/FreeRTOS/Source/CMSIS_RTOS_V2/cmsis_os2.c ****   /*
 136:Middlewares/Third_Party/FreeRTOS/Source/CMSIS_RTOS_V2/cmsis_os2.c ****     The application already defined the array used for the FreeRTOS heap and
 137:Middlewares/Third_Party/FreeRTOS/Source/CMSIS_RTOS_V2/cmsis_os2.c ****     called vPortDefineHeapRegions to initialize heap.
 138:Middlewares/Third_Party/FreeRTOS/Source/CMSIS_RTOS_V2/cmsis_os2.c ****   */
 139:Middlewares/Third_Party/FreeRTOS/Source/CMSIS_RTOS_V2/cmsis_os2.c ****   #define HEAP_5_REGION_SETUP   0
 140:Middlewares/Third_Party/FreeRTOS/Source/CMSIS_RTOS_V2/cmsis_os2.c **** #endif /* configAPPLICATION_ALLOCATED_HEAP */
 141:Middlewares/Third_Party/FreeRTOS/Source/CMSIS_RTOS_V2/cmsis_os2.c **** #endif /* USE_FREERTOS_HEAP_5 */
 142:Middlewares/Third_Party/FreeRTOS/Source/CMSIS_RTOS_V2/cmsis_os2.c **** 
 143:Middlewares/Third_Party/FreeRTOS/Source/CMSIS_RTOS_V2/cmsis_os2.c **** #if defined(SysTick)
 144:Middlewares/Third_Party/FreeRTOS/Source/CMSIS_RTOS_V2/cmsis_os2.c **** #undef SysTick_Handler
 145:Middlewares/Third_Party/FreeRTOS/Source/CMSIS_RTOS_V2/cmsis_os2.c **** 
 146:Middlewares/Third_Party/FreeRTOS/Source/CMSIS_RTOS_V2/cmsis_os2.c **** /* CMSIS SysTick interrupt handler prototype */
ARM GAS  /tmp/ccZrYRqG.s 			page 4


 147:Middlewares/Third_Party/FreeRTOS/Source/CMSIS_RTOS_V2/cmsis_os2.c **** extern void SysTick_Handler     (void);
 148:Middlewares/Third_Party/FreeRTOS/Source/CMSIS_RTOS_V2/cmsis_os2.c **** /* FreeRTOS tick timer interrupt handler prototype */
 149:Middlewares/Third_Party/FreeRTOS/Source/CMSIS_RTOS_V2/cmsis_os2.c **** extern void xPortSysTickHandler (void);
 150:Middlewares/Third_Party/FreeRTOS/Source/CMSIS_RTOS_V2/cmsis_os2.c **** 
 151:Middlewares/Third_Party/FreeRTOS/Source/CMSIS_RTOS_V2/cmsis_os2.c **** /*
 152:Middlewares/Third_Party/FreeRTOS/Source/CMSIS_RTOS_V2/cmsis_os2.c ****   SysTick handler implementation that also clears overflow flag.
 153:Middlewares/Third_Party/FreeRTOS/Source/CMSIS_RTOS_V2/cmsis_os2.c **** */
 154:Middlewares/Third_Party/FreeRTOS/Source/CMSIS_RTOS_V2/cmsis_os2.c **** void SysTick_Handler (void) {
 155:Middlewares/Third_Party/FreeRTOS/Source/CMSIS_RTOS_V2/cmsis_os2.c ****   /* Clear overflow flag */
 156:Middlewares/Third_Party/FreeRTOS/Source/CMSIS_RTOS_V2/cmsis_os2.c ****   SysTick->CTRL;
 157:Middlewares/Third_Party/FreeRTOS/Source/CMSIS_RTOS_V2/cmsis_os2.c **** 
 158:Middlewares/Third_Party/FreeRTOS/Source/CMSIS_RTOS_V2/cmsis_os2.c ****   if (xTaskGetSchedulerState() != taskSCHEDULER_NOT_STARTED) {
 159:Middlewares/Third_Party/FreeRTOS/Source/CMSIS_RTOS_V2/cmsis_os2.c ****     /* Call tick handler */
 160:Middlewares/Third_Party/FreeRTOS/Source/CMSIS_RTOS_V2/cmsis_os2.c ****     xPortSysTickHandler();
 161:Middlewares/Third_Party/FreeRTOS/Source/CMSIS_RTOS_V2/cmsis_os2.c ****   }
 162:Middlewares/Third_Party/FreeRTOS/Source/CMSIS_RTOS_V2/cmsis_os2.c **** }
 163:Middlewares/Third_Party/FreeRTOS/Source/CMSIS_RTOS_V2/cmsis_os2.c **** #endif /* SysTick */
 164:Middlewares/Third_Party/FreeRTOS/Source/CMSIS_RTOS_V2/cmsis_os2.c **** 
 165:Middlewares/Third_Party/FreeRTOS/Source/CMSIS_RTOS_V2/cmsis_os2.c **** /*
 166:Middlewares/Third_Party/FreeRTOS/Source/CMSIS_RTOS_V2/cmsis_os2.c ****   Setup SVC to reset value.
 167:Middlewares/Third_Party/FreeRTOS/Source/CMSIS_RTOS_V2/cmsis_os2.c **** */
 168:Middlewares/Third_Party/FreeRTOS/Source/CMSIS_RTOS_V2/cmsis_os2.c **** __STATIC_INLINE void SVC_Setup (void) {
 169:Middlewares/Third_Party/FreeRTOS/Source/CMSIS_RTOS_V2/cmsis_os2.c **** #if (__ARM_ARCH_7A__ == 0U)
 170:Middlewares/Third_Party/FreeRTOS/Source/CMSIS_RTOS_V2/cmsis_os2.c ****   /* Service Call interrupt might be configured before kernel start     */
 171:Middlewares/Third_Party/FreeRTOS/Source/CMSIS_RTOS_V2/cmsis_os2.c ****   /* and when its priority is lower or equal to BASEPRI, svc intruction */
 172:Middlewares/Third_Party/FreeRTOS/Source/CMSIS_RTOS_V2/cmsis_os2.c ****   /* causes a Hard Fault.                                               */
 173:Middlewares/Third_Party/FreeRTOS/Source/CMSIS_RTOS_V2/cmsis_os2.c **** 
 174:Middlewares/Third_Party/FreeRTOS/Source/CMSIS_RTOS_V2/cmsis_os2.c ****  /* 
 175:Middlewares/Third_Party/FreeRTOS/Source/CMSIS_RTOS_V2/cmsis_os2.c ****   * the call below has introduced a regression compared to revious release
 176:Middlewares/Third_Party/FreeRTOS/Source/CMSIS_RTOS_V2/cmsis_os2.c ****   * The issue was logged under:https://github.com/ARM-software/CMSIS-FreeRTOS/issues/35
 177:Middlewares/Third_Party/FreeRTOS/Source/CMSIS_RTOS_V2/cmsis_os2.c ****   * until it is correctly fixed, the code below is commented
 178:Middlewares/Third_Party/FreeRTOS/Source/CMSIS_RTOS_V2/cmsis_os2.c ****   */
 179:Middlewares/Third_Party/FreeRTOS/Source/CMSIS_RTOS_V2/cmsis_os2.c **** /*    NVIC_SetPriority (SVCall_IRQn, 0U); */
 180:Middlewares/Third_Party/FreeRTOS/Source/CMSIS_RTOS_V2/cmsis_os2.c **** #endif
 181:Middlewares/Third_Party/FreeRTOS/Source/CMSIS_RTOS_V2/cmsis_os2.c **** }
 182:Middlewares/Third_Party/FreeRTOS/Source/CMSIS_RTOS_V2/cmsis_os2.c **** 
 183:Middlewares/Third_Party/FreeRTOS/Source/CMSIS_RTOS_V2/cmsis_os2.c **** /*---------------------------------------------------------------------------*/
 184:Middlewares/Third_Party/FreeRTOS/Source/CMSIS_RTOS_V2/cmsis_os2.c **** 
 185:Middlewares/Third_Party/FreeRTOS/Source/CMSIS_RTOS_V2/cmsis_os2.c **** osStatus_t osKernelInitialize (void) {
 186:Middlewares/Third_Party/FreeRTOS/Source/CMSIS_RTOS_V2/cmsis_os2.c ****   osStatus_t stat;
 187:Middlewares/Third_Party/FreeRTOS/Source/CMSIS_RTOS_V2/cmsis_os2.c **** 
 188:Middlewares/Third_Party/FreeRTOS/Source/CMSIS_RTOS_V2/cmsis_os2.c ****   if (IS_IRQ()) {
 189:Middlewares/Third_Party/FreeRTOS/Source/CMSIS_RTOS_V2/cmsis_os2.c ****     stat = osErrorISR;
 190:Middlewares/Third_Party/FreeRTOS/Source/CMSIS_RTOS_V2/cmsis_os2.c ****   }
 191:Middlewares/Third_Party/FreeRTOS/Source/CMSIS_RTOS_V2/cmsis_os2.c ****   else {
 192:Middlewares/Third_Party/FreeRTOS/Source/CMSIS_RTOS_V2/cmsis_os2.c ****     if (KernelState == osKernelInactive) {
 193:Middlewares/Third_Party/FreeRTOS/Source/CMSIS_RTOS_V2/cmsis_os2.c ****       #if defined(USE_FREERTOS_HEAP_5) && (HEAP_5_REGION_SETUP == 1)
 194:Middlewares/Third_Party/FreeRTOS/Source/CMSIS_RTOS_V2/cmsis_os2.c ****         vPortDefineHeapRegions (configHEAP_5_REGIONS);
 195:Middlewares/Third_Party/FreeRTOS/Source/CMSIS_RTOS_V2/cmsis_os2.c ****       #endif
 196:Middlewares/Third_Party/FreeRTOS/Source/CMSIS_RTOS_V2/cmsis_os2.c ****       KernelState = osKernelReady;
 197:Middlewares/Third_Party/FreeRTOS/Source/CMSIS_RTOS_V2/cmsis_os2.c ****       stat = osOK;
 198:Middlewares/Third_Party/FreeRTOS/Source/CMSIS_RTOS_V2/cmsis_os2.c ****     } else {
 199:Middlewares/Third_Party/FreeRTOS/Source/CMSIS_RTOS_V2/cmsis_os2.c ****       stat = osError;
 200:Middlewares/Third_Party/FreeRTOS/Source/CMSIS_RTOS_V2/cmsis_os2.c ****     }
 201:Middlewares/Third_Party/FreeRTOS/Source/CMSIS_RTOS_V2/cmsis_os2.c ****   }
 202:Middlewares/Third_Party/FreeRTOS/Source/CMSIS_RTOS_V2/cmsis_os2.c **** 
 203:Middlewares/Third_Party/FreeRTOS/Source/CMSIS_RTOS_V2/cmsis_os2.c ****   return (stat);
ARM GAS  /tmp/ccZrYRqG.s 			page 5


 204:Middlewares/Third_Party/FreeRTOS/Source/CMSIS_RTOS_V2/cmsis_os2.c **** }
 205:Middlewares/Third_Party/FreeRTOS/Source/CMSIS_RTOS_V2/cmsis_os2.c **** 
 206:Middlewares/Third_Party/FreeRTOS/Source/CMSIS_RTOS_V2/cmsis_os2.c **** osStatus_t osKernelGetInfo (osVersion_t *version, char *id_buf, uint32_t id_size) {
 207:Middlewares/Third_Party/FreeRTOS/Source/CMSIS_RTOS_V2/cmsis_os2.c **** 
 208:Middlewares/Third_Party/FreeRTOS/Source/CMSIS_RTOS_V2/cmsis_os2.c ****   if (version != NULL) {
 209:Middlewares/Third_Party/FreeRTOS/Source/CMSIS_RTOS_V2/cmsis_os2.c ****     /* Version encoding is major.minor.rev: mmnnnrrrr dec */
 210:Middlewares/Third_Party/FreeRTOS/Source/CMSIS_RTOS_V2/cmsis_os2.c ****     version->api    = KERNEL_VERSION;
 211:Middlewares/Third_Party/FreeRTOS/Source/CMSIS_RTOS_V2/cmsis_os2.c ****     version->kernel = KERNEL_VERSION;
 212:Middlewares/Third_Party/FreeRTOS/Source/CMSIS_RTOS_V2/cmsis_os2.c ****   }
 213:Middlewares/Third_Party/FreeRTOS/Source/CMSIS_RTOS_V2/cmsis_os2.c **** 
 214:Middlewares/Third_Party/FreeRTOS/Source/CMSIS_RTOS_V2/cmsis_os2.c ****   if ((id_buf != NULL) && (id_size != 0U)) {
 215:Middlewares/Third_Party/FreeRTOS/Source/CMSIS_RTOS_V2/cmsis_os2.c ****     if (id_size > sizeof(KERNEL_ID)) {
 216:Middlewares/Third_Party/FreeRTOS/Source/CMSIS_RTOS_V2/cmsis_os2.c ****       id_size = sizeof(KERNEL_ID);
 217:Middlewares/Third_Party/FreeRTOS/Source/CMSIS_RTOS_V2/cmsis_os2.c ****     }
 218:Middlewares/Third_Party/FreeRTOS/Source/CMSIS_RTOS_V2/cmsis_os2.c ****     memcpy(id_buf, KERNEL_ID, id_size);
 219:Middlewares/Third_Party/FreeRTOS/Source/CMSIS_RTOS_V2/cmsis_os2.c ****   }
 220:Middlewares/Third_Party/FreeRTOS/Source/CMSIS_RTOS_V2/cmsis_os2.c **** 
 221:Middlewares/Third_Party/FreeRTOS/Source/CMSIS_RTOS_V2/cmsis_os2.c ****   return (osOK);
 222:Middlewares/Third_Party/FreeRTOS/Source/CMSIS_RTOS_V2/cmsis_os2.c **** }
 223:Middlewares/Third_Party/FreeRTOS/Source/CMSIS_RTOS_V2/cmsis_os2.c **** 
 224:Middlewares/Third_Party/FreeRTOS/Source/CMSIS_RTOS_V2/cmsis_os2.c **** osKernelState_t osKernelGetState (void) {
 225:Middlewares/Third_Party/FreeRTOS/Source/CMSIS_RTOS_V2/cmsis_os2.c ****   osKernelState_t state;
 226:Middlewares/Third_Party/FreeRTOS/Source/CMSIS_RTOS_V2/cmsis_os2.c **** 
 227:Middlewares/Third_Party/FreeRTOS/Source/CMSIS_RTOS_V2/cmsis_os2.c ****   switch (xTaskGetSchedulerState()) {
 228:Middlewares/Third_Party/FreeRTOS/Source/CMSIS_RTOS_V2/cmsis_os2.c ****     case taskSCHEDULER_RUNNING:
 229:Middlewares/Third_Party/FreeRTOS/Source/CMSIS_RTOS_V2/cmsis_os2.c ****       state = osKernelRunning;
 230:Middlewares/Third_Party/FreeRTOS/Source/CMSIS_RTOS_V2/cmsis_os2.c ****       break;
 231:Middlewares/Third_Party/FreeRTOS/Source/CMSIS_RTOS_V2/cmsis_os2.c **** 
 232:Middlewares/Third_Party/FreeRTOS/Source/CMSIS_RTOS_V2/cmsis_os2.c ****     case taskSCHEDULER_SUSPENDED:
 233:Middlewares/Third_Party/FreeRTOS/Source/CMSIS_RTOS_V2/cmsis_os2.c ****       state = osKernelLocked;
 234:Middlewares/Third_Party/FreeRTOS/Source/CMSIS_RTOS_V2/cmsis_os2.c ****       break;
 235:Middlewares/Third_Party/FreeRTOS/Source/CMSIS_RTOS_V2/cmsis_os2.c **** 
 236:Middlewares/Third_Party/FreeRTOS/Source/CMSIS_RTOS_V2/cmsis_os2.c ****     case taskSCHEDULER_NOT_STARTED:
 237:Middlewares/Third_Party/FreeRTOS/Source/CMSIS_RTOS_V2/cmsis_os2.c ****     default:
 238:Middlewares/Third_Party/FreeRTOS/Source/CMSIS_RTOS_V2/cmsis_os2.c ****       if (KernelState == osKernelReady) {
 239:Middlewares/Third_Party/FreeRTOS/Source/CMSIS_RTOS_V2/cmsis_os2.c ****         state = osKernelReady;
 240:Middlewares/Third_Party/FreeRTOS/Source/CMSIS_RTOS_V2/cmsis_os2.c ****       } else {
 241:Middlewares/Third_Party/FreeRTOS/Source/CMSIS_RTOS_V2/cmsis_os2.c ****         state = osKernelInactive;
 242:Middlewares/Third_Party/FreeRTOS/Source/CMSIS_RTOS_V2/cmsis_os2.c ****       }
 243:Middlewares/Third_Party/FreeRTOS/Source/CMSIS_RTOS_V2/cmsis_os2.c ****       break;
 244:Middlewares/Third_Party/FreeRTOS/Source/CMSIS_RTOS_V2/cmsis_os2.c ****   }
 245:Middlewares/Third_Party/FreeRTOS/Source/CMSIS_RTOS_V2/cmsis_os2.c **** 
 246:Middlewares/Third_Party/FreeRTOS/Source/CMSIS_RTOS_V2/cmsis_os2.c ****   return (state);
 247:Middlewares/Third_Party/FreeRTOS/Source/CMSIS_RTOS_V2/cmsis_os2.c **** }
 248:Middlewares/Third_Party/FreeRTOS/Source/CMSIS_RTOS_V2/cmsis_os2.c **** 
 249:Middlewares/Third_Party/FreeRTOS/Source/CMSIS_RTOS_V2/cmsis_os2.c **** osStatus_t osKernelStart (void) {
 250:Middlewares/Third_Party/FreeRTOS/Source/CMSIS_RTOS_V2/cmsis_os2.c ****   osStatus_t stat;
 251:Middlewares/Third_Party/FreeRTOS/Source/CMSIS_RTOS_V2/cmsis_os2.c **** 
 252:Middlewares/Third_Party/FreeRTOS/Source/CMSIS_RTOS_V2/cmsis_os2.c ****   if (IS_IRQ()) {
 253:Middlewares/Third_Party/FreeRTOS/Source/CMSIS_RTOS_V2/cmsis_os2.c ****     stat = osErrorISR;
 254:Middlewares/Third_Party/FreeRTOS/Source/CMSIS_RTOS_V2/cmsis_os2.c ****   }
 255:Middlewares/Third_Party/FreeRTOS/Source/CMSIS_RTOS_V2/cmsis_os2.c ****   else {
 256:Middlewares/Third_Party/FreeRTOS/Source/CMSIS_RTOS_V2/cmsis_os2.c ****     if (KernelState == osKernelReady) {
 257:Middlewares/Third_Party/FreeRTOS/Source/CMSIS_RTOS_V2/cmsis_os2.c ****       /* Ensure SVC priority is at the reset value */
 258:Middlewares/Third_Party/FreeRTOS/Source/CMSIS_RTOS_V2/cmsis_os2.c ****       SVC_Setup();
 259:Middlewares/Third_Party/FreeRTOS/Source/CMSIS_RTOS_V2/cmsis_os2.c ****       /* Change state to enable IRQ masking check */
 260:Middlewares/Third_Party/FreeRTOS/Source/CMSIS_RTOS_V2/cmsis_os2.c ****       KernelState = osKernelRunning;
ARM GAS  /tmp/ccZrYRqG.s 			page 6


 261:Middlewares/Third_Party/FreeRTOS/Source/CMSIS_RTOS_V2/cmsis_os2.c ****       /* Start the kernel scheduler */
 262:Middlewares/Third_Party/FreeRTOS/Source/CMSIS_RTOS_V2/cmsis_os2.c ****       vTaskStartScheduler();
 263:Middlewares/Third_Party/FreeRTOS/Source/CMSIS_RTOS_V2/cmsis_os2.c ****       stat = osOK;
 264:Middlewares/Third_Party/FreeRTOS/Source/CMSIS_RTOS_V2/cmsis_os2.c ****     } else {
 265:Middlewares/Third_Party/FreeRTOS/Source/CMSIS_RTOS_V2/cmsis_os2.c ****       stat = osError;
 266:Middlewares/Third_Party/FreeRTOS/Source/CMSIS_RTOS_V2/cmsis_os2.c ****     }
 267:Middlewares/Third_Party/FreeRTOS/Source/CMSIS_RTOS_V2/cmsis_os2.c ****   }
 268:Middlewares/Third_Party/FreeRTOS/Source/CMSIS_RTOS_V2/cmsis_os2.c **** 
 269:Middlewares/Third_Party/FreeRTOS/Source/CMSIS_RTOS_V2/cmsis_os2.c ****   return (stat);
 270:Middlewares/Third_Party/FreeRTOS/Source/CMSIS_RTOS_V2/cmsis_os2.c **** }
 271:Middlewares/Third_Party/FreeRTOS/Source/CMSIS_RTOS_V2/cmsis_os2.c **** 
 272:Middlewares/Third_Party/FreeRTOS/Source/CMSIS_RTOS_V2/cmsis_os2.c **** int32_t osKernelLock (void) {
 273:Middlewares/Third_Party/FreeRTOS/Source/CMSIS_RTOS_V2/cmsis_os2.c ****   int32_t lock;
 274:Middlewares/Third_Party/FreeRTOS/Source/CMSIS_RTOS_V2/cmsis_os2.c **** 
 275:Middlewares/Third_Party/FreeRTOS/Source/CMSIS_RTOS_V2/cmsis_os2.c ****   if (IS_IRQ()) {
 276:Middlewares/Third_Party/FreeRTOS/Source/CMSIS_RTOS_V2/cmsis_os2.c ****     lock = (int32_t)osErrorISR;
 277:Middlewares/Third_Party/FreeRTOS/Source/CMSIS_RTOS_V2/cmsis_os2.c ****   }
 278:Middlewares/Third_Party/FreeRTOS/Source/CMSIS_RTOS_V2/cmsis_os2.c ****   else {
 279:Middlewares/Third_Party/FreeRTOS/Source/CMSIS_RTOS_V2/cmsis_os2.c ****     switch (xTaskGetSchedulerState()) {
 280:Middlewares/Third_Party/FreeRTOS/Source/CMSIS_RTOS_V2/cmsis_os2.c ****       case taskSCHEDULER_SUSPENDED:
 281:Middlewares/Third_Party/FreeRTOS/Source/CMSIS_RTOS_V2/cmsis_os2.c ****         lock = 1;
 282:Middlewares/Third_Party/FreeRTOS/Source/CMSIS_RTOS_V2/cmsis_os2.c ****         break;
 283:Middlewares/Third_Party/FreeRTOS/Source/CMSIS_RTOS_V2/cmsis_os2.c **** 
 284:Middlewares/Third_Party/FreeRTOS/Source/CMSIS_RTOS_V2/cmsis_os2.c ****       case taskSCHEDULER_RUNNING:
 285:Middlewares/Third_Party/FreeRTOS/Source/CMSIS_RTOS_V2/cmsis_os2.c ****         vTaskSuspendAll();
 286:Middlewares/Third_Party/FreeRTOS/Source/CMSIS_RTOS_V2/cmsis_os2.c ****         lock = 0;
 287:Middlewares/Third_Party/FreeRTOS/Source/CMSIS_RTOS_V2/cmsis_os2.c ****         break;
 288:Middlewares/Third_Party/FreeRTOS/Source/CMSIS_RTOS_V2/cmsis_os2.c **** 
 289:Middlewares/Third_Party/FreeRTOS/Source/CMSIS_RTOS_V2/cmsis_os2.c ****       case taskSCHEDULER_NOT_STARTED:
 290:Middlewares/Third_Party/FreeRTOS/Source/CMSIS_RTOS_V2/cmsis_os2.c ****       default:
 291:Middlewares/Third_Party/FreeRTOS/Source/CMSIS_RTOS_V2/cmsis_os2.c ****         lock = (int32_t)osError;
 292:Middlewares/Third_Party/FreeRTOS/Source/CMSIS_RTOS_V2/cmsis_os2.c ****         break;
 293:Middlewares/Third_Party/FreeRTOS/Source/CMSIS_RTOS_V2/cmsis_os2.c ****     }
 294:Middlewares/Third_Party/FreeRTOS/Source/CMSIS_RTOS_V2/cmsis_os2.c ****   }
 295:Middlewares/Third_Party/FreeRTOS/Source/CMSIS_RTOS_V2/cmsis_os2.c **** 
 296:Middlewares/Third_Party/FreeRTOS/Source/CMSIS_RTOS_V2/cmsis_os2.c ****   return (lock);
 297:Middlewares/Third_Party/FreeRTOS/Source/CMSIS_RTOS_V2/cmsis_os2.c **** }
 298:Middlewares/Third_Party/FreeRTOS/Source/CMSIS_RTOS_V2/cmsis_os2.c **** 
 299:Middlewares/Third_Party/FreeRTOS/Source/CMSIS_RTOS_V2/cmsis_os2.c **** int32_t osKernelUnlock (void) {
 300:Middlewares/Third_Party/FreeRTOS/Source/CMSIS_RTOS_V2/cmsis_os2.c ****   int32_t lock;
 301:Middlewares/Third_Party/FreeRTOS/Source/CMSIS_RTOS_V2/cmsis_os2.c **** 
 302:Middlewares/Third_Party/FreeRTOS/Source/CMSIS_RTOS_V2/cmsis_os2.c ****   if (IS_IRQ()) {
 303:Middlewares/Third_Party/FreeRTOS/Source/CMSIS_RTOS_V2/cmsis_os2.c ****     lock = (int32_t)osErrorISR;
 304:Middlewares/Third_Party/FreeRTOS/Source/CMSIS_RTOS_V2/cmsis_os2.c ****   }
 305:Middlewares/Third_Party/FreeRTOS/Source/CMSIS_RTOS_V2/cmsis_os2.c ****   else {
 306:Middlewares/Third_Party/FreeRTOS/Source/CMSIS_RTOS_V2/cmsis_os2.c ****     switch (xTaskGetSchedulerState()) {
 307:Middlewares/Third_Party/FreeRTOS/Source/CMSIS_RTOS_V2/cmsis_os2.c ****       case taskSCHEDULER_SUSPENDED:
 308:Middlewares/Third_Party/FreeRTOS/Source/CMSIS_RTOS_V2/cmsis_os2.c ****         lock = 1;
 309:Middlewares/Third_Party/FreeRTOS/Source/CMSIS_RTOS_V2/cmsis_os2.c **** 
 310:Middlewares/Third_Party/FreeRTOS/Source/CMSIS_RTOS_V2/cmsis_os2.c ****         if (xTaskResumeAll() != pdTRUE) {
 311:Middlewares/Third_Party/FreeRTOS/Source/CMSIS_RTOS_V2/cmsis_os2.c ****           if (xTaskGetSchedulerState() == taskSCHEDULER_SUSPENDED) {
 312:Middlewares/Third_Party/FreeRTOS/Source/CMSIS_RTOS_V2/cmsis_os2.c ****             lock = (int32_t)osError;
 313:Middlewares/Third_Party/FreeRTOS/Source/CMSIS_RTOS_V2/cmsis_os2.c ****           }
 314:Middlewares/Third_Party/FreeRTOS/Source/CMSIS_RTOS_V2/cmsis_os2.c ****         }
 315:Middlewares/Third_Party/FreeRTOS/Source/CMSIS_RTOS_V2/cmsis_os2.c ****         break;
 316:Middlewares/Third_Party/FreeRTOS/Source/CMSIS_RTOS_V2/cmsis_os2.c **** 
 317:Middlewares/Third_Party/FreeRTOS/Source/CMSIS_RTOS_V2/cmsis_os2.c ****       case taskSCHEDULER_RUNNING:
ARM GAS  /tmp/ccZrYRqG.s 			page 7


 318:Middlewares/Third_Party/FreeRTOS/Source/CMSIS_RTOS_V2/cmsis_os2.c ****         lock = 0;
 319:Middlewares/Third_Party/FreeRTOS/Source/CMSIS_RTOS_V2/cmsis_os2.c ****         break;
 320:Middlewares/Third_Party/FreeRTOS/Source/CMSIS_RTOS_V2/cmsis_os2.c **** 
 321:Middlewares/Third_Party/FreeRTOS/Source/CMSIS_RTOS_V2/cmsis_os2.c ****       case taskSCHEDULER_NOT_STARTED:
 322:Middlewares/Third_Party/FreeRTOS/Source/CMSIS_RTOS_V2/cmsis_os2.c ****       default:
 323:Middlewares/Third_Party/FreeRTOS/Source/CMSIS_RTOS_V2/cmsis_os2.c ****         lock = (int32_t)osError;
 324:Middlewares/Third_Party/FreeRTOS/Source/CMSIS_RTOS_V2/cmsis_os2.c ****         break;
 325:Middlewares/Third_Party/FreeRTOS/Source/CMSIS_RTOS_V2/cmsis_os2.c ****     }
 326:Middlewares/Third_Party/FreeRTOS/Source/CMSIS_RTOS_V2/cmsis_os2.c ****   }
 327:Middlewares/Third_Party/FreeRTOS/Source/CMSIS_RTOS_V2/cmsis_os2.c **** 
 328:Middlewares/Third_Party/FreeRTOS/Source/CMSIS_RTOS_V2/cmsis_os2.c ****   return (lock);
 329:Middlewares/Third_Party/FreeRTOS/Source/CMSIS_RTOS_V2/cmsis_os2.c **** }
 330:Middlewares/Third_Party/FreeRTOS/Source/CMSIS_RTOS_V2/cmsis_os2.c **** 
 331:Middlewares/Third_Party/FreeRTOS/Source/CMSIS_RTOS_V2/cmsis_os2.c **** int32_t osKernelRestoreLock (int32_t lock) {
 332:Middlewares/Third_Party/FreeRTOS/Source/CMSIS_RTOS_V2/cmsis_os2.c **** 
 333:Middlewares/Third_Party/FreeRTOS/Source/CMSIS_RTOS_V2/cmsis_os2.c ****   if (IS_IRQ()) {
 334:Middlewares/Third_Party/FreeRTOS/Source/CMSIS_RTOS_V2/cmsis_os2.c ****     lock = (int32_t)osErrorISR;
 335:Middlewares/Third_Party/FreeRTOS/Source/CMSIS_RTOS_V2/cmsis_os2.c ****   }
 336:Middlewares/Third_Party/FreeRTOS/Source/CMSIS_RTOS_V2/cmsis_os2.c ****   else {
 337:Middlewares/Third_Party/FreeRTOS/Source/CMSIS_RTOS_V2/cmsis_os2.c ****     switch (xTaskGetSchedulerState()) {
 338:Middlewares/Third_Party/FreeRTOS/Source/CMSIS_RTOS_V2/cmsis_os2.c ****       case taskSCHEDULER_SUSPENDED:
 339:Middlewares/Third_Party/FreeRTOS/Source/CMSIS_RTOS_V2/cmsis_os2.c ****       case taskSCHEDULER_RUNNING:
 340:Middlewares/Third_Party/FreeRTOS/Source/CMSIS_RTOS_V2/cmsis_os2.c ****         if (lock == 1) {
 341:Middlewares/Third_Party/FreeRTOS/Source/CMSIS_RTOS_V2/cmsis_os2.c ****           vTaskSuspendAll();
 342:Middlewares/Third_Party/FreeRTOS/Source/CMSIS_RTOS_V2/cmsis_os2.c ****         }
 343:Middlewares/Third_Party/FreeRTOS/Source/CMSIS_RTOS_V2/cmsis_os2.c ****         else {
 344:Middlewares/Third_Party/FreeRTOS/Source/CMSIS_RTOS_V2/cmsis_os2.c ****           if (lock != 0) {
 345:Middlewares/Third_Party/FreeRTOS/Source/CMSIS_RTOS_V2/cmsis_os2.c ****             lock = (int32_t)osError;
 346:Middlewares/Third_Party/FreeRTOS/Source/CMSIS_RTOS_V2/cmsis_os2.c ****           }
 347:Middlewares/Third_Party/FreeRTOS/Source/CMSIS_RTOS_V2/cmsis_os2.c ****           else {
 348:Middlewares/Third_Party/FreeRTOS/Source/CMSIS_RTOS_V2/cmsis_os2.c ****             if (xTaskResumeAll() != pdTRUE) {
 349:Middlewares/Third_Party/FreeRTOS/Source/CMSIS_RTOS_V2/cmsis_os2.c ****               if (xTaskGetSchedulerState() != taskSCHEDULER_RUNNING) {
 350:Middlewares/Third_Party/FreeRTOS/Source/CMSIS_RTOS_V2/cmsis_os2.c ****                 lock = (int32_t)osError;
 351:Middlewares/Third_Party/FreeRTOS/Source/CMSIS_RTOS_V2/cmsis_os2.c ****               }
 352:Middlewares/Third_Party/FreeRTOS/Source/CMSIS_RTOS_V2/cmsis_os2.c ****             }
 353:Middlewares/Third_Party/FreeRTOS/Source/CMSIS_RTOS_V2/cmsis_os2.c ****           }
 354:Middlewares/Third_Party/FreeRTOS/Source/CMSIS_RTOS_V2/cmsis_os2.c ****         }
 355:Middlewares/Third_Party/FreeRTOS/Source/CMSIS_RTOS_V2/cmsis_os2.c ****         break;
 356:Middlewares/Third_Party/FreeRTOS/Source/CMSIS_RTOS_V2/cmsis_os2.c **** 
 357:Middlewares/Third_Party/FreeRTOS/Source/CMSIS_RTOS_V2/cmsis_os2.c ****       case taskSCHEDULER_NOT_STARTED:
 358:Middlewares/Third_Party/FreeRTOS/Source/CMSIS_RTOS_V2/cmsis_os2.c ****       default:
 359:Middlewares/Third_Party/FreeRTOS/Source/CMSIS_RTOS_V2/cmsis_os2.c ****         lock = (int32_t)osError;
 360:Middlewares/Third_Party/FreeRTOS/Source/CMSIS_RTOS_V2/cmsis_os2.c ****         break;
 361:Middlewares/Third_Party/FreeRTOS/Source/CMSIS_RTOS_V2/cmsis_os2.c ****     }
 362:Middlewares/Third_Party/FreeRTOS/Source/CMSIS_RTOS_V2/cmsis_os2.c ****   }
 363:Middlewares/Third_Party/FreeRTOS/Source/CMSIS_RTOS_V2/cmsis_os2.c **** 
 364:Middlewares/Third_Party/FreeRTOS/Source/CMSIS_RTOS_V2/cmsis_os2.c ****   return (lock);
 365:Middlewares/Third_Party/FreeRTOS/Source/CMSIS_RTOS_V2/cmsis_os2.c **** }
 366:Middlewares/Third_Party/FreeRTOS/Source/CMSIS_RTOS_V2/cmsis_os2.c **** 
 367:Middlewares/Third_Party/FreeRTOS/Source/CMSIS_RTOS_V2/cmsis_os2.c **** uint32_t osKernelGetTickCount (void) {
 368:Middlewares/Third_Party/FreeRTOS/Source/CMSIS_RTOS_V2/cmsis_os2.c ****   TickType_t ticks;
 369:Middlewares/Third_Party/FreeRTOS/Source/CMSIS_RTOS_V2/cmsis_os2.c **** 
 370:Middlewares/Third_Party/FreeRTOS/Source/CMSIS_RTOS_V2/cmsis_os2.c ****   if (IS_IRQ()) {
 371:Middlewares/Third_Party/FreeRTOS/Source/CMSIS_RTOS_V2/cmsis_os2.c ****     ticks = xTaskGetTickCountFromISR();
 372:Middlewares/Third_Party/FreeRTOS/Source/CMSIS_RTOS_V2/cmsis_os2.c ****   } else {
 373:Middlewares/Third_Party/FreeRTOS/Source/CMSIS_RTOS_V2/cmsis_os2.c ****     ticks = xTaskGetTickCount();
 374:Middlewares/Third_Party/FreeRTOS/Source/CMSIS_RTOS_V2/cmsis_os2.c ****   }
ARM GAS  /tmp/ccZrYRqG.s 			page 8


 375:Middlewares/Third_Party/FreeRTOS/Source/CMSIS_RTOS_V2/cmsis_os2.c **** 
 376:Middlewares/Third_Party/FreeRTOS/Source/CMSIS_RTOS_V2/cmsis_os2.c ****   return (ticks);
 377:Middlewares/Third_Party/FreeRTOS/Source/CMSIS_RTOS_V2/cmsis_os2.c **** }
 378:Middlewares/Third_Party/FreeRTOS/Source/CMSIS_RTOS_V2/cmsis_os2.c **** 
 379:Middlewares/Third_Party/FreeRTOS/Source/CMSIS_RTOS_V2/cmsis_os2.c **** uint32_t osKernelGetTickFreq (void) {
 380:Middlewares/Third_Party/FreeRTOS/Source/CMSIS_RTOS_V2/cmsis_os2.c ****   return (configTICK_RATE_HZ);
 381:Middlewares/Third_Party/FreeRTOS/Source/CMSIS_RTOS_V2/cmsis_os2.c **** }
 382:Middlewares/Third_Party/FreeRTOS/Source/CMSIS_RTOS_V2/cmsis_os2.c **** 
 383:Middlewares/Third_Party/FreeRTOS/Source/CMSIS_RTOS_V2/cmsis_os2.c **** uint32_t osKernelGetSysTimerCount (void) {
 384:Middlewares/Third_Party/FreeRTOS/Source/CMSIS_RTOS_V2/cmsis_os2.c ****   uint32_t irqmask = IS_IRQ_MASKED();
 385:Middlewares/Third_Party/FreeRTOS/Source/CMSIS_RTOS_V2/cmsis_os2.c ****   TickType_t ticks;
 386:Middlewares/Third_Party/FreeRTOS/Source/CMSIS_RTOS_V2/cmsis_os2.c ****   uint32_t val;
 387:Middlewares/Third_Party/FreeRTOS/Source/CMSIS_RTOS_V2/cmsis_os2.c **** 
 388:Middlewares/Third_Party/FreeRTOS/Source/CMSIS_RTOS_V2/cmsis_os2.c ****   __disable_irq();
 389:Middlewares/Third_Party/FreeRTOS/Source/CMSIS_RTOS_V2/cmsis_os2.c **** 
 390:Middlewares/Third_Party/FreeRTOS/Source/CMSIS_RTOS_V2/cmsis_os2.c ****   ticks = xTaskGetTickCount();
 391:Middlewares/Third_Party/FreeRTOS/Source/CMSIS_RTOS_V2/cmsis_os2.c **** 
 392:Middlewares/Third_Party/FreeRTOS/Source/CMSIS_RTOS_V2/cmsis_os2.c ****   val = ticks * ( configCPU_CLOCK_HZ / configTICK_RATE_HZ );
 393:Middlewares/Third_Party/FreeRTOS/Source/CMSIS_RTOS_V2/cmsis_os2.c ****   if (irqmask == 0U) {
 394:Middlewares/Third_Party/FreeRTOS/Source/CMSIS_RTOS_V2/cmsis_os2.c ****     __enable_irq();
 395:Middlewares/Third_Party/FreeRTOS/Source/CMSIS_RTOS_V2/cmsis_os2.c ****   }
 396:Middlewares/Third_Party/FreeRTOS/Source/CMSIS_RTOS_V2/cmsis_os2.c **** 
 397:Middlewares/Third_Party/FreeRTOS/Source/CMSIS_RTOS_V2/cmsis_os2.c ****   return (val);
 398:Middlewares/Third_Party/FreeRTOS/Source/CMSIS_RTOS_V2/cmsis_os2.c **** }
 399:Middlewares/Third_Party/FreeRTOS/Source/CMSIS_RTOS_V2/cmsis_os2.c **** 
 400:Middlewares/Third_Party/FreeRTOS/Source/CMSIS_RTOS_V2/cmsis_os2.c **** uint32_t osKernelGetSysTimerFreq (void) {
 401:Middlewares/Third_Party/FreeRTOS/Source/CMSIS_RTOS_V2/cmsis_os2.c ****   return (configCPU_CLOCK_HZ);
 402:Middlewares/Third_Party/FreeRTOS/Source/CMSIS_RTOS_V2/cmsis_os2.c **** }
 403:Middlewares/Third_Party/FreeRTOS/Source/CMSIS_RTOS_V2/cmsis_os2.c **** 
 404:Middlewares/Third_Party/FreeRTOS/Source/CMSIS_RTOS_V2/cmsis_os2.c **** /*---------------------------------------------------------------------------*/
 405:Middlewares/Third_Party/FreeRTOS/Source/CMSIS_RTOS_V2/cmsis_os2.c **** 
 406:Middlewares/Third_Party/FreeRTOS/Source/CMSIS_RTOS_V2/cmsis_os2.c **** osThreadId_t osThreadNew (osThreadFunc_t func, void *argument, const osThreadAttr_t *attr) {
 407:Middlewares/Third_Party/FreeRTOS/Source/CMSIS_RTOS_V2/cmsis_os2.c ****   const char *name;
 408:Middlewares/Third_Party/FreeRTOS/Source/CMSIS_RTOS_V2/cmsis_os2.c ****   uint32_t stack;
 409:Middlewares/Third_Party/FreeRTOS/Source/CMSIS_RTOS_V2/cmsis_os2.c ****   TaskHandle_t hTask;
 410:Middlewares/Third_Party/FreeRTOS/Source/CMSIS_RTOS_V2/cmsis_os2.c ****   UBaseType_t prio;
 411:Middlewares/Third_Party/FreeRTOS/Source/CMSIS_RTOS_V2/cmsis_os2.c ****   int32_t mem;
 412:Middlewares/Third_Party/FreeRTOS/Source/CMSIS_RTOS_V2/cmsis_os2.c **** 
 413:Middlewares/Third_Party/FreeRTOS/Source/CMSIS_RTOS_V2/cmsis_os2.c ****   hTask = NULL;
 414:Middlewares/Third_Party/FreeRTOS/Source/CMSIS_RTOS_V2/cmsis_os2.c **** 
 415:Middlewares/Third_Party/FreeRTOS/Source/CMSIS_RTOS_V2/cmsis_os2.c ****   if (!IS_IRQ() && (func != NULL)) {
 416:Middlewares/Third_Party/FreeRTOS/Source/CMSIS_RTOS_V2/cmsis_os2.c ****     stack = configMINIMAL_STACK_SIZE;
 417:Middlewares/Third_Party/FreeRTOS/Source/CMSIS_RTOS_V2/cmsis_os2.c ****     prio  = (UBaseType_t)osPriorityNormal;
 418:Middlewares/Third_Party/FreeRTOS/Source/CMSIS_RTOS_V2/cmsis_os2.c **** 
 419:Middlewares/Third_Party/FreeRTOS/Source/CMSIS_RTOS_V2/cmsis_os2.c ****     name = NULL;
 420:Middlewares/Third_Party/FreeRTOS/Source/CMSIS_RTOS_V2/cmsis_os2.c ****     mem  = -1;
 421:Middlewares/Third_Party/FreeRTOS/Source/CMSIS_RTOS_V2/cmsis_os2.c **** 
 422:Middlewares/Third_Party/FreeRTOS/Source/CMSIS_RTOS_V2/cmsis_os2.c ****     if (attr != NULL) {
 423:Middlewares/Third_Party/FreeRTOS/Source/CMSIS_RTOS_V2/cmsis_os2.c ****       if (attr->name != NULL) {
 424:Middlewares/Third_Party/FreeRTOS/Source/CMSIS_RTOS_V2/cmsis_os2.c ****         name = attr->name;
 425:Middlewares/Third_Party/FreeRTOS/Source/CMSIS_RTOS_V2/cmsis_os2.c ****       }
 426:Middlewares/Third_Party/FreeRTOS/Source/CMSIS_RTOS_V2/cmsis_os2.c ****       if (attr->priority != osPriorityNone) {
 427:Middlewares/Third_Party/FreeRTOS/Source/CMSIS_RTOS_V2/cmsis_os2.c ****         prio = (UBaseType_t)attr->priority;
 428:Middlewares/Third_Party/FreeRTOS/Source/CMSIS_RTOS_V2/cmsis_os2.c ****       }
 429:Middlewares/Third_Party/FreeRTOS/Source/CMSIS_RTOS_V2/cmsis_os2.c **** 
 430:Middlewares/Third_Party/FreeRTOS/Source/CMSIS_RTOS_V2/cmsis_os2.c ****       if ((prio < osPriorityIdle) || (prio > osPriorityISR) || ((attr->attr_bits & osThreadJoinable
 431:Middlewares/Third_Party/FreeRTOS/Source/CMSIS_RTOS_V2/cmsis_os2.c ****         return (NULL);
ARM GAS  /tmp/ccZrYRqG.s 			page 9


 432:Middlewares/Third_Party/FreeRTOS/Source/CMSIS_RTOS_V2/cmsis_os2.c ****       }
 433:Middlewares/Third_Party/FreeRTOS/Source/CMSIS_RTOS_V2/cmsis_os2.c **** 
 434:Middlewares/Third_Party/FreeRTOS/Source/CMSIS_RTOS_V2/cmsis_os2.c ****       if (attr->stack_size > 0U) {
 435:Middlewares/Third_Party/FreeRTOS/Source/CMSIS_RTOS_V2/cmsis_os2.c ****         /* In FreeRTOS stack is not in bytes, but in sizeof(StackType_t) which is 4 on ARM ports.  
 436:Middlewares/Third_Party/FreeRTOS/Source/CMSIS_RTOS_V2/cmsis_os2.c ****         /* Stack size should be therefore 4 byte aligned in order to avoid division caused side eff
 437:Middlewares/Third_Party/FreeRTOS/Source/CMSIS_RTOS_V2/cmsis_os2.c ****         stack = attr->stack_size / sizeof(StackType_t);
 438:Middlewares/Third_Party/FreeRTOS/Source/CMSIS_RTOS_V2/cmsis_os2.c ****       }
 439:Middlewares/Third_Party/FreeRTOS/Source/CMSIS_RTOS_V2/cmsis_os2.c **** 
 440:Middlewares/Third_Party/FreeRTOS/Source/CMSIS_RTOS_V2/cmsis_os2.c ****       if ((attr->cb_mem    != NULL) && (attr->cb_size    >= sizeof(StaticTask_t)) &&
 441:Middlewares/Third_Party/FreeRTOS/Source/CMSIS_RTOS_V2/cmsis_os2.c ****           (attr->stack_mem != NULL) && (attr->stack_size >  0U)) {
 442:Middlewares/Third_Party/FreeRTOS/Source/CMSIS_RTOS_V2/cmsis_os2.c ****         mem = 1;
 443:Middlewares/Third_Party/FreeRTOS/Source/CMSIS_RTOS_V2/cmsis_os2.c ****       }
 444:Middlewares/Third_Party/FreeRTOS/Source/CMSIS_RTOS_V2/cmsis_os2.c ****       else {
 445:Middlewares/Third_Party/FreeRTOS/Source/CMSIS_RTOS_V2/cmsis_os2.c ****         if ((attr->cb_mem == NULL) && (attr->cb_size == 0U) && (attr->stack_mem == NULL)) {
 446:Middlewares/Third_Party/FreeRTOS/Source/CMSIS_RTOS_V2/cmsis_os2.c ****           mem = 0;
 447:Middlewares/Third_Party/FreeRTOS/Source/CMSIS_RTOS_V2/cmsis_os2.c ****         }
 448:Middlewares/Third_Party/FreeRTOS/Source/CMSIS_RTOS_V2/cmsis_os2.c ****       }
 449:Middlewares/Third_Party/FreeRTOS/Source/CMSIS_RTOS_V2/cmsis_os2.c ****     }
 450:Middlewares/Third_Party/FreeRTOS/Source/CMSIS_RTOS_V2/cmsis_os2.c ****     else {
 451:Middlewares/Third_Party/FreeRTOS/Source/CMSIS_RTOS_V2/cmsis_os2.c ****       mem = 0;
 452:Middlewares/Third_Party/FreeRTOS/Source/CMSIS_RTOS_V2/cmsis_os2.c ****     }
 453:Middlewares/Third_Party/FreeRTOS/Source/CMSIS_RTOS_V2/cmsis_os2.c **** 
 454:Middlewares/Third_Party/FreeRTOS/Source/CMSIS_RTOS_V2/cmsis_os2.c ****     if (mem == 1) {
 455:Middlewares/Third_Party/FreeRTOS/Source/CMSIS_RTOS_V2/cmsis_os2.c ****       hTask = xTaskCreateStatic ((TaskFunction_t)func, name, stack, argument, prio, (StackType_t  *
 456:Middlewares/Third_Party/FreeRTOS/Source/CMSIS_RTOS_V2/cmsis_os2.c ****                                                                                     (StaticTask_t *
 457:Middlewares/Third_Party/FreeRTOS/Source/CMSIS_RTOS_V2/cmsis_os2.c ****     }
 458:Middlewares/Third_Party/FreeRTOS/Source/CMSIS_RTOS_V2/cmsis_os2.c ****     else {
 459:Middlewares/Third_Party/FreeRTOS/Source/CMSIS_RTOS_V2/cmsis_os2.c ****       if (mem == 0) {
 460:Middlewares/Third_Party/FreeRTOS/Source/CMSIS_RTOS_V2/cmsis_os2.c ****         if (xTaskCreate ((TaskFunction_t)func, name, (uint16_t)stack, argument, prio, &hTask) != pd
 461:Middlewares/Third_Party/FreeRTOS/Source/CMSIS_RTOS_V2/cmsis_os2.c ****           hTask = NULL;
 462:Middlewares/Third_Party/FreeRTOS/Source/CMSIS_RTOS_V2/cmsis_os2.c ****         }
 463:Middlewares/Third_Party/FreeRTOS/Source/CMSIS_RTOS_V2/cmsis_os2.c ****       }
 464:Middlewares/Third_Party/FreeRTOS/Source/CMSIS_RTOS_V2/cmsis_os2.c ****     }
 465:Middlewares/Third_Party/FreeRTOS/Source/CMSIS_RTOS_V2/cmsis_os2.c ****   }
 466:Middlewares/Third_Party/FreeRTOS/Source/CMSIS_RTOS_V2/cmsis_os2.c **** 
 467:Middlewares/Third_Party/FreeRTOS/Source/CMSIS_RTOS_V2/cmsis_os2.c ****   return ((osThreadId_t)hTask);
 468:Middlewares/Third_Party/FreeRTOS/Source/CMSIS_RTOS_V2/cmsis_os2.c **** }
 469:Middlewares/Third_Party/FreeRTOS/Source/CMSIS_RTOS_V2/cmsis_os2.c **** 
 470:Middlewares/Third_Party/FreeRTOS/Source/CMSIS_RTOS_V2/cmsis_os2.c **** const char *osThreadGetName (osThreadId_t thread_id) {
 471:Middlewares/Third_Party/FreeRTOS/Source/CMSIS_RTOS_V2/cmsis_os2.c ****   TaskHandle_t hTask = (TaskHandle_t)thread_id;
 472:Middlewares/Third_Party/FreeRTOS/Source/CMSIS_RTOS_V2/cmsis_os2.c ****   const char *name;
 473:Middlewares/Third_Party/FreeRTOS/Source/CMSIS_RTOS_V2/cmsis_os2.c **** 
 474:Middlewares/Third_Party/FreeRTOS/Source/CMSIS_RTOS_V2/cmsis_os2.c ****   if (IS_IRQ() || (hTask == NULL)) {
 475:Middlewares/Third_Party/FreeRTOS/Source/CMSIS_RTOS_V2/cmsis_os2.c ****     name = NULL;
 476:Middlewares/Third_Party/FreeRTOS/Source/CMSIS_RTOS_V2/cmsis_os2.c ****   } else {
 477:Middlewares/Third_Party/FreeRTOS/Source/CMSIS_RTOS_V2/cmsis_os2.c ****     name = pcTaskGetName (hTask);
 478:Middlewares/Third_Party/FreeRTOS/Source/CMSIS_RTOS_V2/cmsis_os2.c ****   }
 479:Middlewares/Third_Party/FreeRTOS/Source/CMSIS_RTOS_V2/cmsis_os2.c **** 
 480:Middlewares/Third_Party/FreeRTOS/Source/CMSIS_RTOS_V2/cmsis_os2.c ****   return (name);
 481:Middlewares/Third_Party/FreeRTOS/Source/CMSIS_RTOS_V2/cmsis_os2.c **** }
 482:Middlewares/Third_Party/FreeRTOS/Source/CMSIS_RTOS_V2/cmsis_os2.c **** 
 483:Middlewares/Third_Party/FreeRTOS/Source/CMSIS_RTOS_V2/cmsis_os2.c **** osThreadId_t osThreadGetId (void) {
 484:Middlewares/Third_Party/FreeRTOS/Source/CMSIS_RTOS_V2/cmsis_os2.c ****   osThreadId_t id;
 485:Middlewares/Third_Party/FreeRTOS/Source/CMSIS_RTOS_V2/cmsis_os2.c **** 
 486:Middlewares/Third_Party/FreeRTOS/Source/CMSIS_RTOS_V2/cmsis_os2.c ****   id = (osThreadId_t)xTaskGetCurrentTaskHandle();
 487:Middlewares/Third_Party/FreeRTOS/Source/CMSIS_RTOS_V2/cmsis_os2.c **** 
 488:Middlewares/Third_Party/FreeRTOS/Source/CMSIS_RTOS_V2/cmsis_os2.c ****   return (id);
ARM GAS  /tmp/ccZrYRqG.s 			page 10


 489:Middlewares/Third_Party/FreeRTOS/Source/CMSIS_RTOS_V2/cmsis_os2.c **** }
 490:Middlewares/Third_Party/FreeRTOS/Source/CMSIS_RTOS_V2/cmsis_os2.c **** 
 491:Middlewares/Third_Party/FreeRTOS/Source/CMSIS_RTOS_V2/cmsis_os2.c **** osThreadState_t osThreadGetState (osThreadId_t thread_id) {
 492:Middlewares/Third_Party/FreeRTOS/Source/CMSIS_RTOS_V2/cmsis_os2.c ****   TaskHandle_t hTask = (TaskHandle_t)thread_id;
 493:Middlewares/Third_Party/FreeRTOS/Source/CMSIS_RTOS_V2/cmsis_os2.c ****   osThreadState_t state;
 494:Middlewares/Third_Party/FreeRTOS/Source/CMSIS_RTOS_V2/cmsis_os2.c **** 
 495:Middlewares/Third_Party/FreeRTOS/Source/CMSIS_RTOS_V2/cmsis_os2.c ****   if (IS_IRQ() || (hTask == NULL)) {
 496:Middlewares/Third_Party/FreeRTOS/Source/CMSIS_RTOS_V2/cmsis_os2.c ****     state = osThreadError;
 497:Middlewares/Third_Party/FreeRTOS/Source/CMSIS_RTOS_V2/cmsis_os2.c ****   }
 498:Middlewares/Third_Party/FreeRTOS/Source/CMSIS_RTOS_V2/cmsis_os2.c ****   else {
 499:Middlewares/Third_Party/FreeRTOS/Source/CMSIS_RTOS_V2/cmsis_os2.c ****     switch (eTaskGetState (hTask)) {
 500:Middlewares/Third_Party/FreeRTOS/Source/CMSIS_RTOS_V2/cmsis_os2.c ****       case eRunning:   state = osThreadRunning;    break;
 501:Middlewares/Third_Party/FreeRTOS/Source/CMSIS_RTOS_V2/cmsis_os2.c ****       case eReady:     state = osThreadReady;      break;
 502:Middlewares/Third_Party/FreeRTOS/Source/CMSIS_RTOS_V2/cmsis_os2.c ****       case eBlocked:
 503:Middlewares/Third_Party/FreeRTOS/Source/CMSIS_RTOS_V2/cmsis_os2.c ****       case eSuspended: state = osThreadBlocked;    break;
 504:Middlewares/Third_Party/FreeRTOS/Source/CMSIS_RTOS_V2/cmsis_os2.c ****       case eDeleted:   state = osThreadTerminated; break;
 505:Middlewares/Third_Party/FreeRTOS/Source/CMSIS_RTOS_V2/cmsis_os2.c ****       case eInvalid:
 506:Middlewares/Third_Party/FreeRTOS/Source/CMSIS_RTOS_V2/cmsis_os2.c ****       default:         state = osThreadError;      break;
 507:Middlewares/Third_Party/FreeRTOS/Source/CMSIS_RTOS_V2/cmsis_os2.c ****     }
 508:Middlewares/Third_Party/FreeRTOS/Source/CMSIS_RTOS_V2/cmsis_os2.c ****   }
 509:Middlewares/Third_Party/FreeRTOS/Source/CMSIS_RTOS_V2/cmsis_os2.c **** 
 510:Middlewares/Third_Party/FreeRTOS/Source/CMSIS_RTOS_V2/cmsis_os2.c ****   return (state);
 511:Middlewares/Third_Party/FreeRTOS/Source/CMSIS_RTOS_V2/cmsis_os2.c **** }
 512:Middlewares/Third_Party/FreeRTOS/Source/CMSIS_RTOS_V2/cmsis_os2.c **** 
 513:Middlewares/Third_Party/FreeRTOS/Source/CMSIS_RTOS_V2/cmsis_os2.c **** uint32_t osThreadGetStackSpace (osThreadId_t thread_id) {
 514:Middlewares/Third_Party/FreeRTOS/Source/CMSIS_RTOS_V2/cmsis_os2.c ****   TaskHandle_t hTask = (TaskHandle_t)thread_id;
 515:Middlewares/Third_Party/FreeRTOS/Source/CMSIS_RTOS_V2/cmsis_os2.c ****   uint32_t sz;
 516:Middlewares/Third_Party/FreeRTOS/Source/CMSIS_RTOS_V2/cmsis_os2.c **** 
 517:Middlewares/Third_Party/FreeRTOS/Source/CMSIS_RTOS_V2/cmsis_os2.c ****   if (IS_IRQ() || (hTask == NULL)) {
 518:Middlewares/Third_Party/FreeRTOS/Source/CMSIS_RTOS_V2/cmsis_os2.c ****     sz = 0U;
 519:Middlewares/Third_Party/FreeRTOS/Source/CMSIS_RTOS_V2/cmsis_os2.c ****   } else {
 520:Middlewares/Third_Party/FreeRTOS/Source/CMSIS_RTOS_V2/cmsis_os2.c ****     sz = (uint32_t)uxTaskGetStackHighWaterMark (hTask);
 521:Middlewares/Third_Party/FreeRTOS/Source/CMSIS_RTOS_V2/cmsis_os2.c ****   }
 522:Middlewares/Third_Party/FreeRTOS/Source/CMSIS_RTOS_V2/cmsis_os2.c **** 
 523:Middlewares/Third_Party/FreeRTOS/Source/CMSIS_RTOS_V2/cmsis_os2.c ****   return (sz);
 524:Middlewares/Third_Party/FreeRTOS/Source/CMSIS_RTOS_V2/cmsis_os2.c **** }
 525:Middlewares/Third_Party/FreeRTOS/Source/CMSIS_RTOS_V2/cmsis_os2.c **** 
 526:Middlewares/Third_Party/FreeRTOS/Source/CMSIS_RTOS_V2/cmsis_os2.c **** osStatus_t osThreadSetPriority (osThreadId_t thread_id, osPriority_t priority) {
 527:Middlewares/Third_Party/FreeRTOS/Source/CMSIS_RTOS_V2/cmsis_os2.c ****   TaskHandle_t hTask = (TaskHandle_t)thread_id;
 528:Middlewares/Third_Party/FreeRTOS/Source/CMSIS_RTOS_V2/cmsis_os2.c ****   osStatus_t stat;
 529:Middlewares/Third_Party/FreeRTOS/Source/CMSIS_RTOS_V2/cmsis_os2.c **** 
 530:Middlewares/Third_Party/FreeRTOS/Source/CMSIS_RTOS_V2/cmsis_os2.c ****   if (IS_IRQ()) {
 531:Middlewares/Third_Party/FreeRTOS/Source/CMSIS_RTOS_V2/cmsis_os2.c ****     stat = osErrorISR;
 532:Middlewares/Third_Party/FreeRTOS/Source/CMSIS_RTOS_V2/cmsis_os2.c ****   }
 533:Middlewares/Third_Party/FreeRTOS/Source/CMSIS_RTOS_V2/cmsis_os2.c ****   else if ((hTask == NULL) || (priority < osPriorityIdle) || (priority > osPriorityISR)) {
 534:Middlewares/Third_Party/FreeRTOS/Source/CMSIS_RTOS_V2/cmsis_os2.c ****     stat = osErrorParameter;
 535:Middlewares/Third_Party/FreeRTOS/Source/CMSIS_RTOS_V2/cmsis_os2.c ****   }
 536:Middlewares/Third_Party/FreeRTOS/Source/CMSIS_RTOS_V2/cmsis_os2.c ****   else {
 537:Middlewares/Third_Party/FreeRTOS/Source/CMSIS_RTOS_V2/cmsis_os2.c ****     stat = osOK;
 538:Middlewares/Third_Party/FreeRTOS/Source/CMSIS_RTOS_V2/cmsis_os2.c ****     vTaskPrioritySet (hTask, (UBaseType_t)priority);
 539:Middlewares/Third_Party/FreeRTOS/Source/CMSIS_RTOS_V2/cmsis_os2.c ****   }
 540:Middlewares/Third_Party/FreeRTOS/Source/CMSIS_RTOS_V2/cmsis_os2.c **** 
 541:Middlewares/Third_Party/FreeRTOS/Source/CMSIS_RTOS_V2/cmsis_os2.c ****   return (stat);
 542:Middlewares/Third_Party/FreeRTOS/Source/CMSIS_RTOS_V2/cmsis_os2.c **** }
 543:Middlewares/Third_Party/FreeRTOS/Source/CMSIS_RTOS_V2/cmsis_os2.c **** 
 544:Middlewares/Third_Party/FreeRTOS/Source/CMSIS_RTOS_V2/cmsis_os2.c **** osPriority_t osThreadGetPriority (osThreadId_t thread_id) {
 545:Middlewares/Third_Party/FreeRTOS/Source/CMSIS_RTOS_V2/cmsis_os2.c ****   TaskHandle_t hTask = (TaskHandle_t)thread_id;
ARM GAS  /tmp/ccZrYRqG.s 			page 11


 546:Middlewares/Third_Party/FreeRTOS/Source/CMSIS_RTOS_V2/cmsis_os2.c ****   osPriority_t prio;
 547:Middlewares/Third_Party/FreeRTOS/Source/CMSIS_RTOS_V2/cmsis_os2.c **** 
 548:Middlewares/Third_Party/FreeRTOS/Source/CMSIS_RTOS_V2/cmsis_os2.c ****   if (IS_IRQ() || (hTask == NULL)) {
 549:Middlewares/Third_Party/FreeRTOS/Source/CMSIS_RTOS_V2/cmsis_os2.c ****     prio = osPriorityError;
 550:Middlewares/Third_Party/FreeRTOS/Source/CMSIS_RTOS_V2/cmsis_os2.c ****   } else {
 551:Middlewares/Third_Party/FreeRTOS/Source/CMSIS_RTOS_V2/cmsis_os2.c ****     prio = (osPriority_t)uxTaskPriorityGet (hTask);
 552:Middlewares/Third_Party/FreeRTOS/Source/CMSIS_RTOS_V2/cmsis_os2.c ****   }
 553:Middlewares/Third_Party/FreeRTOS/Source/CMSIS_RTOS_V2/cmsis_os2.c **** 
 554:Middlewares/Third_Party/FreeRTOS/Source/CMSIS_RTOS_V2/cmsis_os2.c ****   return (prio);
 555:Middlewares/Third_Party/FreeRTOS/Source/CMSIS_RTOS_V2/cmsis_os2.c **** }
 556:Middlewares/Third_Party/FreeRTOS/Source/CMSIS_RTOS_V2/cmsis_os2.c **** 
 557:Middlewares/Third_Party/FreeRTOS/Source/CMSIS_RTOS_V2/cmsis_os2.c **** osStatus_t osThreadYield (void) {
 558:Middlewares/Third_Party/FreeRTOS/Source/CMSIS_RTOS_V2/cmsis_os2.c ****   osStatus_t stat;
 559:Middlewares/Third_Party/FreeRTOS/Source/CMSIS_RTOS_V2/cmsis_os2.c **** 
 560:Middlewares/Third_Party/FreeRTOS/Source/CMSIS_RTOS_V2/cmsis_os2.c ****   if (IS_IRQ()) {
 561:Middlewares/Third_Party/FreeRTOS/Source/CMSIS_RTOS_V2/cmsis_os2.c ****     stat = osErrorISR;
 562:Middlewares/Third_Party/FreeRTOS/Source/CMSIS_RTOS_V2/cmsis_os2.c ****   } else {
 563:Middlewares/Third_Party/FreeRTOS/Source/CMSIS_RTOS_V2/cmsis_os2.c ****     stat = osOK;
 564:Middlewares/Third_Party/FreeRTOS/Source/CMSIS_RTOS_V2/cmsis_os2.c ****     taskYIELD();
 565:Middlewares/Third_Party/FreeRTOS/Source/CMSIS_RTOS_V2/cmsis_os2.c ****   }
 566:Middlewares/Third_Party/FreeRTOS/Source/CMSIS_RTOS_V2/cmsis_os2.c **** 
 567:Middlewares/Third_Party/FreeRTOS/Source/CMSIS_RTOS_V2/cmsis_os2.c ****   return (stat);
 568:Middlewares/Third_Party/FreeRTOS/Source/CMSIS_RTOS_V2/cmsis_os2.c **** }
 569:Middlewares/Third_Party/FreeRTOS/Source/CMSIS_RTOS_V2/cmsis_os2.c **** 
 570:Middlewares/Third_Party/FreeRTOS/Source/CMSIS_RTOS_V2/cmsis_os2.c **** osStatus_t osThreadSuspend (osThreadId_t thread_id) {
 571:Middlewares/Third_Party/FreeRTOS/Source/CMSIS_RTOS_V2/cmsis_os2.c ****   TaskHandle_t hTask = (TaskHandle_t)thread_id;
 572:Middlewares/Third_Party/FreeRTOS/Source/CMSIS_RTOS_V2/cmsis_os2.c ****   osStatus_t stat;
 573:Middlewares/Third_Party/FreeRTOS/Source/CMSIS_RTOS_V2/cmsis_os2.c **** 
 574:Middlewares/Third_Party/FreeRTOS/Source/CMSIS_RTOS_V2/cmsis_os2.c ****   if (IS_IRQ()) {
 575:Middlewares/Third_Party/FreeRTOS/Source/CMSIS_RTOS_V2/cmsis_os2.c ****     stat = osErrorISR;
 576:Middlewares/Third_Party/FreeRTOS/Source/CMSIS_RTOS_V2/cmsis_os2.c ****   }
 577:Middlewares/Third_Party/FreeRTOS/Source/CMSIS_RTOS_V2/cmsis_os2.c ****   else if (hTask == NULL) {
 578:Middlewares/Third_Party/FreeRTOS/Source/CMSIS_RTOS_V2/cmsis_os2.c ****     stat = osErrorParameter;
 579:Middlewares/Third_Party/FreeRTOS/Source/CMSIS_RTOS_V2/cmsis_os2.c ****   }
 580:Middlewares/Third_Party/FreeRTOS/Source/CMSIS_RTOS_V2/cmsis_os2.c ****   else {
 581:Middlewares/Third_Party/FreeRTOS/Source/CMSIS_RTOS_V2/cmsis_os2.c ****     stat = osOK;
 582:Middlewares/Third_Party/FreeRTOS/Source/CMSIS_RTOS_V2/cmsis_os2.c ****     vTaskSuspend (hTask);
 583:Middlewares/Third_Party/FreeRTOS/Source/CMSIS_RTOS_V2/cmsis_os2.c ****   }
 584:Middlewares/Third_Party/FreeRTOS/Source/CMSIS_RTOS_V2/cmsis_os2.c **** 
 585:Middlewares/Third_Party/FreeRTOS/Source/CMSIS_RTOS_V2/cmsis_os2.c ****   return (stat);
 586:Middlewares/Third_Party/FreeRTOS/Source/CMSIS_RTOS_V2/cmsis_os2.c **** }
 587:Middlewares/Third_Party/FreeRTOS/Source/CMSIS_RTOS_V2/cmsis_os2.c **** 
 588:Middlewares/Third_Party/FreeRTOS/Source/CMSIS_RTOS_V2/cmsis_os2.c **** osStatus_t osThreadResume (osThreadId_t thread_id) {
 589:Middlewares/Third_Party/FreeRTOS/Source/CMSIS_RTOS_V2/cmsis_os2.c ****   TaskHandle_t hTask = (TaskHandle_t)thread_id;
 590:Middlewares/Third_Party/FreeRTOS/Source/CMSIS_RTOS_V2/cmsis_os2.c ****   osStatus_t stat;
 591:Middlewares/Third_Party/FreeRTOS/Source/CMSIS_RTOS_V2/cmsis_os2.c **** 
 592:Middlewares/Third_Party/FreeRTOS/Source/CMSIS_RTOS_V2/cmsis_os2.c ****   if (IS_IRQ()) {
 593:Middlewares/Third_Party/FreeRTOS/Source/CMSIS_RTOS_V2/cmsis_os2.c ****     stat = osErrorISR;
 594:Middlewares/Third_Party/FreeRTOS/Source/CMSIS_RTOS_V2/cmsis_os2.c ****   }
 595:Middlewares/Third_Party/FreeRTOS/Source/CMSIS_RTOS_V2/cmsis_os2.c ****   else if (hTask == NULL) {
 596:Middlewares/Third_Party/FreeRTOS/Source/CMSIS_RTOS_V2/cmsis_os2.c ****     stat = osErrorParameter;
 597:Middlewares/Third_Party/FreeRTOS/Source/CMSIS_RTOS_V2/cmsis_os2.c ****   }
 598:Middlewares/Third_Party/FreeRTOS/Source/CMSIS_RTOS_V2/cmsis_os2.c ****   else {
 599:Middlewares/Third_Party/FreeRTOS/Source/CMSIS_RTOS_V2/cmsis_os2.c ****     stat = osOK;
 600:Middlewares/Third_Party/FreeRTOS/Source/CMSIS_RTOS_V2/cmsis_os2.c ****     vTaskResume (hTask);
 601:Middlewares/Third_Party/FreeRTOS/Source/CMSIS_RTOS_V2/cmsis_os2.c ****   }
 602:Middlewares/Third_Party/FreeRTOS/Source/CMSIS_RTOS_V2/cmsis_os2.c **** 
ARM GAS  /tmp/ccZrYRqG.s 			page 12


 603:Middlewares/Third_Party/FreeRTOS/Source/CMSIS_RTOS_V2/cmsis_os2.c ****   return (stat);
 604:Middlewares/Third_Party/FreeRTOS/Source/CMSIS_RTOS_V2/cmsis_os2.c **** }
 605:Middlewares/Third_Party/FreeRTOS/Source/CMSIS_RTOS_V2/cmsis_os2.c **** 
 606:Middlewares/Third_Party/FreeRTOS/Source/CMSIS_RTOS_V2/cmsis_os2.c **** __NO_RETURN void osThreadExit (void) {
 607:Middlewares/Third_Party/FreeRTOS/Source/CMSIS_RTOS_V2/cmsis_os2.c **** #ifndef USE_FreeRTOS_HEAP_1
 608:Middlewares/Third_Party/FreeRTOS/Source/CMSIS_RTOS_V2/cmsis_os2.c ****   vTaskDelete (NULL);
 609:Middlewares/Third_Party/FreeRTOS/Source/CMSIS_RTOS_V2/cmsis_os2.c **** #endif
 610:Middlewares/Third_Party/FreeRTOS/Source/CMSIS_RTOS_V2/cmsis_os2.c ****   for (;;);
 611:Middlewares/Third_Party/FreeRTOS/Source/CMSIS_RTOS_V2/cmsis_os2.c **** }
 612:Middlewares/Third_Party/FreeRTOS/Source/CMSIS_RTOS_V2/cmsis_os2.c **** 
 613:Middlewares/Third_Party/FreeRTOS/Source/CMSIS_RTOS_V2/cmsis_os2.c **** osStatus_t osThreadTerminate (osThreadId_t thread_id) {
 614:Middlewares/Third_Party/FreeRTOS/Source/CMSIS_RTOS_V2/cmsis_os2.c ****   TaskHandle_t hTask = (TaskHandle_t)thread_id;
 615:Middlewares/Third_Party/FreeRTOS/Source/CMSIS_RTOS_V2/cmsis_os2.c ****   osStatus_t stat;
 616:Middlewares/Third_Party/FreeRTOS/Source/CMSIS_RTOS_V2/cmsis_os2.c **** #ifndef USE_FreeRTOS_HEAP_1
 617:Middlewares/Third_Party/FreeRTOS/Source/CMSIS_RTOS_V2/cmsis_os2.c ****   eTaskState tstate;
 618:Middlewares/Third_Party/FreeRTOS/Source/CMSIS_RTOS_V2/cmsis_os2.c **** 
 619:Middlewares/Third_Party/FreeRTOS/Source/CMSIS_RTOS_V2/cmsis_os2.c ****   if (IS_IRQ()) {
 620:Middlewares/Third_Party/FreeRTOS/Source/CMSIS_RTOS_V2/cmsis_os2.c ****     stat = osErrorISR;
 621:Middlewares/Third_Party/FreeRTOS/Source/CMSIS_RTOS_V2/cmsis_os2.c ****   }
 622:Middlewares/Third_Party/FreeRTOS/Source/CMSIS_RTOS_V2/cmsis_os2.c ****   else if (hTask == NULL) {
 623:Middlewares/Third_Party/FreeRTOS/Source/CMSIS_RTOS_V2/cmsis_os2.c ****     stat = osErrorParameter;
 624:Middlewares/Third_Party/FreeRTOS/Source/CMSIS_RTOS_V2/cmsis_os2.c ****   }
 625:Middlewares/Third_Party/FreeRTOS/Source/CMSIS_RTOS_V2/cmsis_os2.c ****   else {
 626:Middlewares/Third_Party/FreeRTOS/Source/CMSIS_RTOS_V2/cmsis_os2.c ****     tstate = eTaskGetState (hTask);
 627:Middlewares/Third_Party/FreeRTOS/Source/CMSIS_RTOS_V2/cmsis_os2.c **** 
 628:Middlewares/Third_Party/FreeRTOS/Source/CMSIS_RTOS_V2/cmsis_os2.c ****     if (tstate != eDeleted) {
 629:Middlewares/Third_Party/FreeRTOS/Source/CMSIS_RTOS_V2/cmsis_os2.c ****       stat = osOK;
 630:Middlewares/Third_Party/FreeRTOS/Source/CMSIS_RTOS_V2/cmsis_os2.c ****       vTaskDelete (hTask);
 631:Middlewares/Third_Party/FreeRTOS/Source/CMSIS_RTOS_V2/cmsis_os2.c ****     } else {
 632:Middlewares/Third_Party/FreeRTOS/Source/CMSIS_RTOS_V2/cmsis_os2.c ****       stat = osErrorResource;
 633:Middlewares/Third_Party/FreeRTOS/Source/CMSIS_RTOS_V2/cmsis_os2.c ****     }
 634:Middlewares/Third_Party/FreeRTOS/Source/CMSIS_RTOS_V2/cmsis_os2.c ****   }
 635:Middlewares/Third_Party/FreeRTOS/Source/CMSIS_RTOS_V2/cmsis_os2.c **** #else
 636:Middlewares/Third_Party/FreeRTOS/Source/CMSIS_RTOS_V2/cmsis_os2.c ****   stat = osError;
 637:Middlewares/Third_Party/FreeRTOS/Source/CMSIS_RTOS_V2/cmsis_os2.c **** #endif
 638:Middlewares/Third_Party/FreeRTOS/Source/CMSIS_RTOS_V2/cmsis_os2.c **** 
 639:Middlewares/Third_Party/FreeRTOS/Source/CMSIS_RTOS_V2/cmsis_os2.c ****   return (stat);
 640:Middlewares/Third_Party/FreeRTOS/Source/CMSIS_RTOS_V2/cmsis_os2.c **** }
 641:Middlewares/Third_Party/FreeRTOS/Source/CMSIS_RTOS_V2/cmsis_os2.c **** 
 642:Middlewares/Third_Party/FreeRTOS/Source/CMSIS_RTOS_V2/cmsis_os2.c **** uint32_t osThreadGetCount (void) {
 643:Middlewares/Third_Party/FreeRTOS/Source/CMSIS_RTOS_V2/cmsis_os2.c ****   uint32_t count;
 644:Middlewares/Third_Party/FreeRTOS/Source/CMSIS_RTOS_V2/cmsis_os2.c **** 
 645:Middlewares/Third_Party/FreeRTOS/Source/CMSIS_RTOS_V2/cmsis_os2.c ****   if (IS_IRQ()) {
 646:Middlewares/Third_Party/FreeRTOS/Source/CMSIS_RTOS_V2/cmsis_os2.c ****     count = 0U;
 647:Middlewares/Third_Party/FreeRTOS/Source/CMSIS_RTOS_V2/cmsis_os2.c ****   } else {
 648:Middlewares/Third_Party/FreeRTOS/Source/CMSIS_RTOS_V2/cmsis_os2.c ****     count = uxTaskGetNumberOfTasks();
 649:Middlewares/Third_Party/FreeRTOS/Source/CMSIS_RTOS_V2/cmsis_os2.c ****   }
 650:Middlewares/Third_Party/FreeRTOS/Source/CMSIS_RTOS_V2/cmsis_os2.c **** 
 651:Middlewares/Third_Party/FreeRTOS/Source/CMSIS_RTOS_V2/cmsis_os2.c ****   return (count);
 652:Middlewares/Third_Party/FreeRTOS/Source/CMSIS_RTOS_V2/cmsis_os2.c **** }
 653:Middlewares/Third_Party/FreeRTOS/Source/CMSIS_RTOS_V2/cmsis_os2.c **** 
 654:Middlewares/Third_Party/FreeRTOS/Source/CMSIS_RTOS_V2/cmsis_os2.c **** uint32_t osThreadEnumerate (osThreadId_t *thread_array, uint32_t array_items) {
 655:Middlewares/Third_Party/FreeRTOS/Source/CMSIS_RTOS_V2/cmsis_os2.c ****   uint32_t i, count;
 656:Middlewares/Third_Party/FreeRTOS/Source/CMSIS_RTOS_V2/cmsis_os2.c ****   TaskStatus_t *task;
 657:Middlewares/Third_Party/FreeRTOS/Source/CMSIS_RTOS_V2/cmsis_os2.c **** 
 658:Middlewares/Third_Party/FreeRTOS/Source/CMSIS_RTOS_V2/cmsis_os2.c ****   if (IS_IRQ() || (thread_array == NULL) || (array_items == 0U)) {
 659:Middlewares/Third_Party/FreeRTOS/Source/CMSIS_RTOS_V2/cmsis_os2.c ****     count = 0U;
ARM GAS  /tmp/ccZrYRqG.s 			page 13


 660:Middlewares/Third_Party/FreeRTOS/Source/CMSIS_RTOS_V2/cmsis_os2.c ****   } else {
 661:Middlewares/Third_Party/FreeRTOS/Source/CMSIS_RTOS_V2/cmsis_os2.c ****     vTaskSuspendAll();
 662:Middlewares/Third_Party/FreeRTOS/Source/CMSIS_RTOS_V2/cmsis_os2.c **** 
 663:Middlewares/Third_Party/FreeRTOS/Source/CMSIS_RTOS_V2/cmsis_os2.c ****     count = uxTaskGetNumberOfTasks();
 664:Middlewares/Third_Party/FreeRTOS/Source/CMSIS_RTOS_V2/cmsis_os2.c ****     task  = pvPortMalloc (count * sizeof(TaskStatus_t));
 665:Middlewares/Third_Party/FreeRTOS/Source/CMSIS_RTOS_V2/cmsis_os2.c **** 
 666:Middlewares/Third_Party/FreeRTOS/Source/CMSIS_RTOS_V2/cmsis_os2.c ****     if (task != NULL) {
 667:Middlewares/Third_Party/FreeRTOS/Source/CMSIS_RTOS_V2/cmsis_os2.c ****       count = uxTaskGetSystemState (task, count, NULL);
 668:Middlewares/Third_Party/FreeRTOS/Source/CMSIS_RTOS_V2/cmsis_os2.c **** 
 669:Middlewares/Third_Party/FreeRTOS/Source/CMSIS_RTOS_V2/cmsis_os2.c ****       for (i = 0U; (i < count) && (i < array_items); i++) {
 670:Middlewares/Third_Party/FreeRTOS/Source/CMSIS_RTOS_V2/cmsis_os2.c ****         thread_array[i] = (osThreadId_t)task[i].xHandle;
 671:Middlewares/Third_Party/FreeRTOS/Source/CMSIS_RTOS_V2/cmsis_os2.c ****       }
 672:Middlewares/Third_Party/FreeRTOS/Source/CMSIS_RTOS_V2/cmsis_os2.c ****       count = i;
 673:Middlewares/Third_Party/FreeRTOS/Source/CMSIS_RTOS_V2/cmsis_os2.c ****     }
 674:Middlewares/Third_Party/FreeRTOS/Source/CMSIS_RTOS_V2/cmsis_os2.c ****     (void)xTaskResumeAll();
 675:Middlewares/Third_Party/FreeRTOS/Source/CMSIS_RTOS_V2/cmsis_os2.c **** 
 676:Middlewares/Third_Party/FreeRTOS/Source/CMSIS_RTOS_V2/cmsis_os2.c ****     vPortFree (task);
 677:Middlewares/Third_Party/FreeRTOS/Source/CMSIS_RTOS_V2/cmsis_os2.c ****   }
 678:Middlewares/Third_Party/FreeRTOS/Source/CMSIS_RTOS_V2/cmsis_os2.c **** 
 679:Middlewares/Third_Party/FreeRTOS/Source/CMSIS_RTOS_V2/cmsis_os2.c ****   return (count);
 680:Middlewares/Third_Party/FreeRTOS/Source/CMSIS_RTOS_V2/cmsis_os2.c **** }
 681:Middlewares/Third_Party/FreeRTOS/Source/CMSIS_RTOS_V2/cmsis_os2.c **** 
 682:Middlewares/Third_Party/FreeRTOS/Source/CMSIS_RTOS_V2/cmsis_os2.c **** uint32_t osThreadFlagsSet (osThreadId_t thread_id, uint32_t flags) {
 683:Middlewares/Third_Party/FreeRTOS/Source/CMSIS_RTOS_V2/cmsis_os2.c ****   TaskHandle_t hTask = (TaskHandle_t)thread_id;
 684:Middlewares/Third_Party/FreeRTOS/Source/CMSIS_RTOS_V2/cmsis_os2.c ****   uint32_t rflags;
 685:Middlewares/Third_Party/FreeRTOS/Source/CMSIS_RTOS_V2/cmsis_os2.c ****   BaseType_t yield;
 686:Middlewares/Third_Party/FreeRTOS/Source/CMSIS_RTOS_V2/cmsis_os2.c **** 
 687:Middlewares/Third_Party/FreeRTOS/Source/CMSIS_RTOS_V2/cmsis_os2.c ****   if ((hTask == NULL) || ((flags & THREAD_FLAGS_INVALID_BITS) != 0U)) {
 688:Middlewares/Third_Party/FreeRTOS/Source/CMSIS_RTOS_V2/cmsis_os2.c ****     rflags = (uint32_t)osErrorParameter;
 689:Middlewares/Third_Party/FreeRTOS/Source/CMSIS_RTOS_V2/cmsis_os2.c ****   }
 690:Middlewares/Third_Party/FreeRTOS/Source/CMSIS_RTOS_V2/cmsis_os2.c ****   else {
 691:Middlewares/Third_Party/FreeRTOS/Source/CMSIS_RTOS_V2/cmsis_os2.c ****     rflags = (uint32_t)osError;
 692:Middlewares/Third_Party/FreeRTOS/Source/CMSIS_RTOS_V2/cmsis_os2.c **** 
 693:Middlewares/Third_Party/FreeRTOS/Source/CMSIS_RTOS_V2/cmsis_os2.c ****     if (IS_IRQ()) {
 694:Middlewares/Third_Party/FreeRTOS/Source/CMSIS_RTOS_V2/cmsis_os2.c ****       yield = pdFALSE;
 695:Middlewares/Third_Party/FreeRTOS/Source/CMSIS_RTOS_V2/cmsis_os2.c **** 
 696:Middlewares/Third_Party/FreeRTOS/Source/CMSIS_RTOS_V2/cmsis_os2.c ****       (void)xTaskNotifyFromISR (hTask, flags, eSetBits, &yield);
 697:Middlewares/Third_Party/FreeRTOS/Source/CMSIS_RTOS_V2/cmsis_os2.c ****       (void)xTaskNotifyAndQueryFromISR (hTask, 0, eNoAction, &rflags, NULL);
 698:Middlewares/Third_Party/FreeRTOS/Source/CMSIS_RTOS_V2/cmsis_os2.c **** 
 699:Middlewares/Third_Party/FreeRTOS/Source/CMSIS_RTOS_V2/cmsis_os2.c ****       portYIELD_FROM_ISR (yield);
 700:Middlewares/Third_Party/FreeRTOS/Source/CMSIS_RTOS_V2/cmsis_os2.c ****     }
 701:Middlewares/Third_Party/FreeRTOS/Source/CMSIS_RTOS_V2/cmsis_os2.c ****     else {
 702:Middlewares/Third_Party/FreeRTOS/Source/CMSIS_RTOS_V2/cmsis_os2.c ****       (void)xTaskNotify (hTask, flags, eSetBits);
 703:Middlewares/Third_Party/FreeRTOS/Source/CMSIS_RTOS_V2/cmsis_os2.c ****       (void)xTaskNotifyAndQuery (hTask, 0, eNoAction, &rflags);
 704:Middlewares/Third_Party/FreeRTOS/Source/CMSIS_RTOS_V2/cmsis_os2.c ****     }
 705:Middlewares/Third_Party/FreeRTOS/Source/CMSIS_RTOS_V2/cmsis_os2.c ****   }
 706:Middlewares/Third_Party/FreeRTOS/Source/CMSIS_RTOS_V2/cmsis_os2.c ****   /* Return flags after setting */
 707:Middlewares/Third_Party/FreeRTOS/Source/CMSIS_RTOS_V2/cmsis_os2.c ****   return (rflags);
 708:Middlewares/Third_Party/FreeRTOS/Source/CMSIS_RTOS_V2/cmsis_os2.c **** }
 709:Middlewares/Third_Party/FreeRTOS/Source/CMSIS_RTOS_V2/cmsis_os2.c **** 
 710:Middlewares/Third_Party/FreeRTOS/Source/CMSIS_RTOS_V2/cmsis_os2.c **** uint32_t osThreadFlagsClear (uint32_t flags) {
 711:Middlewares/Third_Party/FreeRTOS/Source/CMSIS_RTOS_V2/cmsis_os2.c ****   TaskHandle_t hTask;
 712:Middlewares/Third_Party/FreeRTOS/Source/CMSIS_RTOS_V2/cmsis_os2.c ****   uint32_t rflags, cflags;
 713:Middlewares/Third_Party/FreeRTOS/Source/CMSIS_RTOS_V2/cmsis_os2.c **** 
 714:Middlewares/Third_Party/FreeRTOS/Source/CMSIS_RTOS_V2/cmsis_os2.c ****   if (IS_IRQ()) {
 715:Middlewares/Third_Party/FreeRTOS/Source/CMSIS_RTOS_V2/cmsis_os2.c ****     rflags = (uint32_t)osErrorISR;
 716:Middlewares/Third_Party/FreeRTOS/Source/CMSIS_RTOS_V2/cmsis_os2.c ****   }
ARM GAS  /tmp/ccZrYRqG.s 			page 14


 717:Middlewares/Third_Party/FreeRTOS/Source/CMSIS_RTOS_V2/cmsis_os2.c ****   else if ((flags & THREAD_FLAGS_INVALID_BITS) != 0U) {
 718:Middlewares/Third_Party/FreeRTOS/Source/CMSIS_RTOS_V2/cmsis_os2.c ****     rflags = (uint32_t)osErrorParameter;
 719:Middlewares/Third_Party/FreeRTOS/Source/CMSIS_RTOS_V2/cmsis_os2.c ****   }
 720:Middlewares/Third_Party/FreeRTOS/Source/CMSIS_RTOS_V2/cmsis_os2.c ****   else {
 721:Middlewares/Third_Party/FreeRTOS/Source/CMSIS_RTOS_V2/cmsis_os2.c ****     hTask = xTaskGetCurrentTaskHandle();
 722:Middlewares/Third_Party/FreeRTOS/Source/CMSIS_RTOS_V2/cmsis_os2.c **** 
 723:Middlewares/Third_Party/FreeRTOS/Source/CMSIS_RTOS_V2/cmsis_os2.c ****     if (xTaskNotifyAndQuery (hTask, 0, eNoAction, &cflags) == pdPASS) {
 724:Middlewares/Third_Party/FreeRTOS/Source/CMSIS_RTOS_V2/cmsis_os2.c ****       rflags = cflags;
 725:Middlewares/Third_Party/FreeRTOS/Source/CMSIS_RTOS_V2/cmsis_os2.c ****       cflags &= ~flags;
 726:Middlewares/Third_Party/FreeRTOS/Source/CMSIS_RTOS_V2/cmsis_os2.c **** 
 727:Middlewares/Third_Party/FreeRTOS/Source/CMSIS_RTOS_V2/cmsis_os2.c ****       if (xTaskNotify (hTask, cflags, eSetValueWithOverwrite) != pdPASS) {
 728:Middlewares/Third_Party/FreeRTOS/Source/CMSIS_RTOS_V2/cmsis_os2.c ****         rflags = (uint32_t)osError;
 729:Middlewares/Third_Party/FreeRTOS/Source/CMSIS_RTOS_V2/cmsis_os2.c ****       }
 730:Middlewares/Third_Party/FreeRTOS/Source/CMSIS_RTOS_V2/cmsis_os2.c ****     }
 731:Middlewares/Third_Party/FreeRTOS/Source/CMSIS_RTOS_V2/cmsis_os2.c ****     else {
 732:Middlewares/Third_Party/FreeRTOS/Source/CMSIS_RTOS_V2/cmsis_os2.c ****       rflags = (uint32_t)osError;
 733:Middlewares/Third_Party/FreeRTOS/Source/CMSIS_RTOS_V2/cmsis_os2.c ****     }
 734:Middlewares/Third_Party/FreeRTOS/Source/CMSIS_RTOS_V2/cmsis_os2.c ****   }
 735:Middlewares/Third_Party/FreeRTOS/Source/CMSIS_RTOS_V2/cmsis_os2.c **** 
 736:Middlewares/Third_Party/FreeRTOS/Source/CMSIS_RTOS_V2/cmsis_os2.c ****   /* Return flags before clearing */
 737:Middlewares/Third_Party/FreeRTOS/Source/CMSIS_RTOS_V2/cmsis_os2.c ****   return (rflags);
 738:Middlewares/Third_Party/FreeRTOS/Source/CMSIS_RTOS_V2/cmsis_os2.c **** }
 739:Middlewares/Third_Party/FreeRTOS/Source/CMSIS_RTOS_V2/cmsis_os2.c **** 
 740:Middlewares/Third_Party/FreeRTOS/Source/CMSIS_RTOS_V2/cmsis_os2.c **** uint32_t osThreadFlagsGet (void) {
 741:Middlewares/Third_Party/FreeRTOS/Source/CMSIS_RTOS_V2/cmsis_os2.c ****   TaskHandle_t hTask;
 742:Middlewares/Third_Party/FreeRTOS/Source/CMSIS_RTOS_V2/cmsis_os2.c ****   uint32_t rflags;
 743:Middlewares/Third_Party/FreeRTOS/Source/CMSIS_RTOS_V2/cmsis_os2.c **** 
 744:Middlewares/Third_Party/FreeRTOS/Source/CMSIS_RTOS_V2/cmsis_os2.c ****   if (IS_IRQ()) {
 745:Middlewares/Third_Party/FreeRTOS/Source/CMSIS_RTOS_V2/cmsis_os2.c ****     rflags = (uint32_t)osErrorISR;
 746:Middlewares/Third_Party/FreeRTOS/Source/CMSIS_RTOS_V2/cmsis_os2.c ****   }
 747:Middlewares/Third_Party/FreeRTOS/Source/CMSIS_RTOS_V2/cmsis_os2.c ****   else {
 748:Middlewares/Third_Party/FreeRTOS/Source/CMSIS_RTOS_V2/cmsis_os2.c ****     hTask = xTaskGetCurrentTaskHandle();
 749:Middlewares/Third_Party/FreeRTOS/Source/CMSIS_RTOS_V2/cmsis_os2.c **** 
 750:Middlewares/Third_Party/FreeRTOS/Source/CMSIS_RTOS_V2/cmsis_os2.c ****     if (xTaskNotifyAndQuery (hTask, 0, eNoAction, &rflags) != pdPASS) {
 751:Middlewares/Third_Party/FreeRTOS/Source/CMSIS_RTOS_V2/cmsis_os2.c ****       rflags = (uint32_t)osError;
 752:Middlewares/Third_Party/FreeRTOS/Source/CMSIS_RTOS_V2/cmsis_os2.c ****     }
 753:Middlewares/Third_Party/FreeRTOS/Source/CMSIS_RTOS_V2/cmsis_os2.c ****   }
 754:Middlewares/Third_Party/FreeRTOS/Source/CMSIS_RTOS_V2/cmsis_os2.c **** 
 755:Middlewares/Third_Party/FreeRTOS/Source/CMSIS_RTOS_V2/cmsis_os2.c ****   return (rflags);
 756:Middlewares/Third_Party/FreeRTOS/Source/CMSIS_RTOS_V2/cmsis_os2.c **** }
 757:Middlewares/Third_Party/FreeRTOS/Source/CMSIS_RTOS_V2/cmsis_os2.c **** 
 758:Middlewares/Third_Party/FreeRTOS/Source/CMSIS_RTOS_V2/cmsis_os2.c **** uint32_t osThreadFlagsWait (uint32_t flags, uint32_t options, uint32_t timeout) {
 759:Middlewares/Third_Party/FreeRTOS/Source/CMSIS_RTOS_V2/cmsis_os2.c ****   uint32_t rflags, nval;
 760:Middlewares/Third_Party/FreeRTOS/Source/CMSIS_RTOS_V2/cmsis_os2.c ****   uint32_t clear;
 761:Middlewares/Third_Party/FreeRTOS/Source/CMSIS_RTOS_V2/cmsis_os2.c ****   TickType_t t0, td, tout;
 762:Middlewares/Third_Party/FreeRTOS/Source/CMSIS_RTOS_V2/cmsis_os2.c ****   BaseType_t rval;
 763:Middlewares/Third_Party/FreeRTOS/Source/CMSIS_RTOS_V2/cmsis_os2.c **** 
 764:Middlewares/Third_Party/FreeRTOS/Source/CMSIS_RTOS_V2/cmsis_os2.c ****   if (IS_IRQ()) {
 765:Middlewares/Third_Party/FreeRTOS/Source/CMSIS_RTOS_V2/cmsis_os2.c ****     rflags = (uint32_t)osErrorISR;
 766:Middlewares/Third_Party/FreeRTOS/Source/CMSIS_RTOS_V2/cmsis_os2.c ****   }
 767:Middlewares/Third_Party/FreeRTOS/Source/CMSIS_RTOS_V2/cmsis_os2.c ****   else if ((flags & THREAD_FLAGS_INVALID_BITS) != 0U) {
 768:Middlewares/Third_Party/FreeRTOS/Source/CMSIS_RTOS_V2/cmsis_os2.c ****     rflags = (uint32_t)osErrorParameter;
 769:Middlewares/Third_Party/FreeRTOS/Source/CMSIS_RTOS_V2/cmsis_os2.c ****   }
 770:Middlewares/Third_Party/FreeRTOS/Source/CMSIS_RTOS_V2/cmsis_os2.c ****   else {
 771:Middlewares/Third_Party/FreeRTOS/Source/CMSIS_RTOS_V2/cmsis_os2.c ****     if ((options & osFlagsNoClear) == osFlagsNoClear) {
 772:Middlewares/Third_Party/FreeRTOS/Source/CMSIS_RTOS_V2/cmsis_os2.c ****       clear = 0U;
 773:Middlewares/Third_Party/FreeRTOS/Source/CMSIS_RTOS_V2/cmsis_os2.c ****     } else {
ARM GAS  /tmp/ccZrYRqG.s 			page 15


 774:Middlewares/Third_Party/FreeRTOS/Source/CMSIS_RTOS_V2/cmsis_os2.c ****       clear = flags;
 775:Middlewares/Third_Party/FreeRTOS/Source/CMSIS_RTOS_V2/cmsis_os2.c ****     }
 776:Middlewares/Third_Party/FreeRTOS/Source/CMSIS_RTOS_V2/cmsis_os2.c **** 
 777:Middlewares/Third_Party/FreeRTOS/Source/CMSIS_RTOS_V2/cmsis_os2.c ****     rflags = 0U;
 778:Middlewares/Third_Party/FreeRTOS/Source/CMSIS_RTOS_V2/cmsis_os2.c ****     tout   = timeout;
 779:Middlewares/Third_Party/FreeRTOS/Source/CMSIS_RTOS_V2/cmsis_os2.c **** 
 780:Middlewares/Third_Party/FreeRTOS/Source/CMSIS_RTOS_V2/cmsis_os2.c ****     t0 = xTaskGetTickCount();
 781:Middlewares/Third_Party/FreeRTOS/Source/CMSIS_RTOS_V2/cmsis_os2.c ****     do {
 782:Middlewares/Third_Party/FreeRTOS/Source/CMSIS_RTOS_V2/cmsis_os2.c ****       rval = xTaskNotifyWait (0, clear, &nval, tout);
 783:Middlewares/Third_Party/FreeRTOS/Source/CMSIS_RTOS_V2/cmsis_os2.c **** 
 784:Middlewares/Third_Party/FreeRTOS/Source/CMSIS_RTOS_V2/cmsis_os2.c ****       if (rval == pdPASS) {
 785:Middlewares/Third_Party/FreeRTOS/Source/CMSIS_RTOS_V2/cmsis_os2.c ****         rflags &= flags;
 786:Middlewares/Third_Party/FreeRTOS/Source/CMSIS_RTOS_V2/cmsis_os2.c ****         rflags |= nval;
 787:Middlewares/Third_Party/FreeRTOS/Source/CMSIS_RTOS_V2/cmsis_os2.c **** 
 788:Middlewares/Third_Party/FreeRTOS/Source/CMSIS_RTOS_V2/cmsis_os2.c ****         if ((options & osFlagsWaitAll) == osFlagsWaitAll) {
 789:Middlewares/Third_Party/FreeRTOS/Source/CMSIS_RTOS_V2/cmsis_os2.c ****           if ((flags & rflags) == flags) {
 790:Middlewares/Third_Party/FreeRTOS/Source/CMSIS_RTOS_V2/cmsis_os2.c ****             break;
 791:Middlewares/Third_Party/FreeRTOS/Source/CMSIS_RTOS_V2/cmsis_os2.c ****           } else {
 792:Middlewares/Third_Party/FreeRTOS/Source/CMSIS_RTOS_V2/cmsis_os2.c ****             if (timeout == 0U) {
 793:Middlewares/Third_Party/FreeRTOS/Source/CMSIS_RTOS_V2/cmsis_os2.c ****               rflags = (uint32_t)osErrorResource;
 794:Middlewares/Third_Party/FreeRTOS/Source/CMSIS_RTOS_V2/cmsis_os2.c ****               break;
 795:Middlewares/Third_Party/FreeRTOS/Source/CMSIS_RTOS_V2/cmsis_os2.c ****             }
 796:Middlewares/Third_Party/FreeRTOS/Source/CMSIS_RTOS_V2/cmsis_os2.c ****           }
 797:Middlewares/Third_Party/FreeRTOS/Source/CMSIS_RTOS_V2/cmsis_os2.c ****         }
 798:Middlewares/Third_Party/FreeRTOS/Source/CMSIS_RTOS_V2/cmsis_os2.c ****         else {
 799:Middlewares/Third_Party/FreeRTOS/Source/CMSIS_RTOS_V2/cmsis_os2.c ****           if ((flags & rflags) != 0) {
 800:Middlewares/Third_Party/FreeRTOS/Source/CMSIS_RTOS_V2/cmsis_os2.c ****             break;
 801:Middlewares/Third_Party/FreeRTOS/Source/CMSIS_RTOS_V2/cmsis_os2.c ****           } else {
 802:Middlewares/Third_Party/FreeRTOS/Source/CMSIS_RTOS_V2/cmsis_os2.c ****             if (timeout == 0U) {
 803:Middlewares/Third_Party/FreeRTOS/Source/CMSIS_RTOS_V2/cmsis_os2.c ****               rflags = (uint32_t)osErrorResource;
 804:Middlewares/Third_Party/FreeRTOS/Source/CMSIS_RTOS_V2/cmsis_os2.c ****               break;
 805:Middlewares/Third_Party/FreeRTOS/Source/CMSIS_RTOS_V2/cmsis_os2.c ****             }
 806:Middlewares/Third_Party/FreeRTOS/Source/CMSIS_RTOS_V2/cmsis_os2.c ****           }
 807:Middlewares/Third_Party/FreeRTOS/Source/CMSIS_RTOS_V2/cmsis_os2.c ****         }
 808:Middlewares/Third_Party/FreeRTOS/Source/CMSIS_RTOS_V2/cmsis_os2.c **** 
 809:Middlewares/Third_Party/FreeRTOS/Source/CMSIS_RTOS_V2/cmsis_os2.c ****         /* Update timeout */
 810:Middlewares/Third_Party/FreeRTOS/Source/CMSIS_RTOS_V2/cmsis_os2.c ****         td = xTaskGetTickCount() - t0;
 811:Middlewares/Third_Party/FreeRTOS/Source/CMSIS_RTOS_V2/cmsis_os2.c **** 
 812:Middlewares/Third_Party/FreeRTOS/Source/CMSIS_RTOS_V2/cmsis_os2.c ****         if (td > tout) {
 813:Middlewares/Third_Party/FreeRTOS/Source/CMSIS_RTOS_V2/cmsis_os2.c ****           tout  = 0;
 814:Middlewares/Third_Party/FreeRTOS/Source/CMSIS_RTOS_V2/cmsis_os2.c ****         } else {
 815:Middlewares/Third_Party/FreeRTOS/Source/CMSIS_RTOS_V2/cmsis_os2.c ****           tout -= td;
 816:Middlewares/Third_Party/FreeRTOS/Source/CMSIS_RTOS_V2/cmsis_os2.c ****         }
 817:Middlewares/Third_Party/FreeRTOS/Source/CMSIS_RTOS_V2/cmsis_os2.c ****       }
 818:Middlewares/Third_Party/FreeRTOS/Source/CMSIS_RTOS_V2/cmsis_os2.c ****       else {
 819:Middlewares/Third_Party/FreeRTOS/Source/CMSIS_RTOS_V2/cmsis_os2.c ****         if (timeout == 0) {
 820:Middlewares/Third_Party/FreeRTOS/Source/CMSIS_RTOS_V2/cmsis_os2.c ****           rflags = (uint32_t)osErrorResource;
 821:Middlewares/Third_Party/FreeRTOS/Source/CMSIS_RTOS_V2/cmsis_os2.c ****         } else {
 822:Middlewares/Third_Party/FreeRTOS/Source/CMSIS_RTOS_V2/cmsis_os2.c ****           rflags = (uint32_t)osErrorTimeout;
 823:Middlewares/Third_Party/FreeRTOS/Source/CMSIS_RTOS_V2/cmsis_os2.c ****         }
 824:Middlewares/Third_Party/FreeRTOS/Source/CMSIS_RTOS_V2/cmsis_os2.c ****       }
 825:Middlewares/Third_Party/FreeRTOS/Source/CMSIS_RTOS_V2/cmsis_os2.c ****     }
 826:Middlewares/Third_Party/FreeRTOS/Source/CMSIS_RTOS_V2/cmsis_os2.c ****     while (rval != pdFAIL);
 827:Middlewares/Third_Party/FreeRTOS/Source/CMSIS_RTOS_V2/cmsis_os2.c ****   }
 828:Middlewares/Third_Party/FreeRTOS/Source/CMSIS_RTOS_V2/cmsis_os2.c **** 
 829:Middlewares/Third_Party/FreeRTOS/Source/CMSIS_RTOS_V2/cmsis_os2.c ****   /* Return flags before clearing */
 830:Middlewares/Third_Party/FreeRTOS/Source/CMSIS_RTOS_V2/cmsis_os2.c ****   return (rflags);
ARM GAS  /tmp/ccZrYRqG.s 			page 16


 831:Middlewares/Third_Party/FreeRTOS/Source/CMSIS_RTOS_V2/cmsis_os2.c **** }
 832:Middlewares/Third_Party/FreeRTOS/Source/CMSIS_RTOS_V2/cmsis_os2.c **** 
 833:Middlewares/Third_Party/FreeRTOS/Source/CMSIS_RTOS_V2/cmsis_os2.c **** osStatus_t osDelay (uint32_t ticks) {
 834:Middlewares/Third_Party/FreeRTOS/Source/CMSIS_RTOS_V2/cmsis_os2.c ****   osStatus_t stat;
 835:Middlewares/Third_Party/FreeRTOS/Source/CMSIS_RTOS_V2/cmsis_os2.c **** 
 836:Middlewares/Third_Party/FreeRTOS/Source/CMSIS_RTOS_V2/cmsis_os2.c ****   if (IS_IRQ()) {
 837:Middlewares/Third_Party/FreeRTOS/Source/CMSIS_RTOS_V2/cmsis_os2.c ****     stat = osErrorISR;
 838:Middlewares/Third_Party/FreeRTOS/Source/CMSIS_RTOS_V2/cmsis_os2.c ****   }
 839:Middlewares/Third_Party/FreeRTOS/Source/CMSIS_RTOS_V2/cmsis_os2.c ****   else {
 840:Middlewares/Third_Party/FreeRTOS/Source/CMSIS_RTOS_V2/cmsis_os2.c ****     stat = osOK;
 841:Middlewares/Third_Party/FreeRTOS/Source/CMSIS_RTOS_V2/cmsis_os2.c **** 
 842:Middlewares/Third_Party/FreeRTOS/Source/CMSIS_RTOS_V2/cmsis_os2.c ****     if (ticks != 0U) {
 843:Middlewares/Third_Party/FreeRTOS/Source/CMSIS_RTOS_V2/cmsis_os2.c ****       vTaskDelay(ticks);
 844:Middlewares/Third_Party/FreeRTOS/Source/CMSIS_RTOS_V2/cmsis_os2.c ****     }
 845:Middlewares/Third_Party/FreeRTOS/Source/CMSIS_RTOS_V2/cmsis_os2.c ****   }
 846:Middlewares/Third_Party/FreeRTOS/Source/CMSIS_RTOS_V2/cmsis_os2.c **** 
 847:Middlewares/Third_Party/FreeRTOS/Source/CMSIS_RTOS_V2/cmsis_os2.c ****   return (stat);
 848:Middlewares/Third_Party/FreeRTOS/Source/CMSIS_RTOS_V2/cmsis_os2.c **** }
 849:Middlewares/Third_Party/FreeRTOS/Source/CMSIS_RTOS_V2/cmsis_os2.c **** 
 850:Middlewares/Third_Party/FreeRTOS/Source/CMSIS_RTOS_V2/cmsis_os2.c **** osStatus_t osDelayUntil (uint32_t ticks) {
 851:Middlewares/Third_Party/FreeRTOS/Source/CMSIS_RTOS_V2/cmsis_os2.c ****   TickType_t tcnt, delay;
 852:Middlewares/Third_Party/FreeRTOS/Source/CMSIS_RTOS_V2/cmsis_os2.c ****   osStatus_t stat;
 853:Middlewares/Third_Party/FreeRTOS/Source/CMSIS_RTOS_V2/cmsis_os2.c **** 
 854:Middlewares/Third_Party/FreeRTOS/Source/CMSIS_RTOS_V2/cmsis_os2.c ****   if (IS_IRQ()) {
 855:Middlewares/Third_Party/FreeRTOS/Source/CMSIS_RTOS_V2/cmsis_os2.c ****     stat = osErrorISR;
 856:Middlewares/Third_Party/FreeRTOS/Source/CMSIS_RTOS_V2/cmsis_os2.c ****   }
 857:Middlewares/Third_Party/FreeRTOS/Source/CMSIS_RTOS_V2/cmsis_os2.c ****   else {
 858:Middlewares/Third_Party/FreeRTOS/Source/CMSIS_RTOS_V2/cmsis_os2.c ****     stat = osOK;
 859:Middlewares/Third_Party/FreeRTOS/Source/CMSIS_RTOS_V2/cmsis_os2.c ****     tcnt = xTaskGetTickCount();
 860:Middlewares/Third_Party/FreeRTOS/Source/CMSIS_RTOS_V2/cmsis_os2.c **** 
 861:Middlewares/Third_Party/FreeRTOS/Source/CMSIS_RTOS_V2/cmsis_os2.c ****     /* Determine remaining number of ticks to delay */
 862:Middlewares/Third_Party/FreeRTOS/Source/CMSIS_RTOS_V2/cmsis_os2.c ****     delay = (TickType_t)ticks - tcnt;
 863:Middlewares/Third_Party/FreeRTOS/Source/CMSIS_RTOS_V2/cmsis_os2.c **** 
 864:Middlewares/Third_Party/FreeRTOS/Source/CMSIS_RTOS_V2/cmsis_os2.c ****     /* Check if target tick has not expired */
 865:Middlewares/Third_Party/FreeRTOS/Source/CMSIS_RTOS_V2/cmsis_os2.c ****     if((delay != 0U) && (0 == (delay >> (8 * sizeof(TickType_t) - 1)))) {
 866:Middlewares/Third_Party/FreeRTOS/Source/CMSIS_RTOS_V2/cmsis_os2.c ****       vTaskDelayUntil (&tcnt, delay);
 867:Middlewares/Third_Party/FreeRTOS/Source/CMSIS_RTOS_V2/cmsis_os2.c ****     }
 868:Middlewares/Third_Party/FreeRTOS/Source/CMSIS_RTOS_V2/cmsis_os2.c ****     else
 869:Middlewares/Third_Party/FreeRTOS/Source/CMSIS_RTOS_V2/cmsis_os2.c ****     {
 870:Middlewares/Third_Party/FreeRTOS/Source/CMSIS_RTOS_V2/cmsis_os2.c ****       /* No delay or already expired */
 871:Middlewares/Third_Party/FreeRTOS/Source/CMSIS_RTOS_V2/cmsis_os2.c ****       stat = osErrorParameter;
 872:Middlewares/Third_Party/FreeRTOS/Source/CMSIS_RTOS_V2/cmsis_os2.c ****     }
 873:Middlewares/Third_Party/FreeRTOS/Source/CMSIS_RTOS_V2/cmsis_os2.c ****   }
 874:Middlewares/Third_Party/FreeRTOS/Source/CMSIS_RTOS_V2/cmsis_os2.c **** 
 875:Middlewares/Third_Party/FreeRTOS/Source/CMSIS_RTOS_V2/cmsis_os2.c ****   return (stat);
 876:Middlewares/Third_Party/FreeRTOS/Source/CMSIS_RTOS_V2/cmsis_os2.c **** }
 877:Middlewares/Third_Party/FreeRTOS/Source/CMSIS_RTOS_V2/cmsis_os2.c **** 
 878:Middlewares/Third_Party/FreeRTOS/Source/CMSIS_RTOS_V2/cmsis_os2.c **** /*---------------------------------------------------------------------------*/
 879:Middlewares/Third_Party/FreeRTOS/Source/CMSIS_RTOS_V2/cmsis_os2.c **** 
 880:Middlewares/Third_Party/FreeRTOS/Source/CMSIS_RTOS_V2/cmsis_os2.c **** static void TimerCallback (TimerHandle_t hTimer) {
  27              		.loc 1 880 0
  28              		.cfi_startproc
  29              		@ args = 0, pretend = 0, frame = 0
  30              		@ frame_needed = 0, uses_anonymous_args = 0
  31              	.LVL0:
  32 0000 08B5     		push	{r3, lr}
  33              	.LCFI0:
ARM GAS  /tmp/ccZrYRqG.s 			page 17


  34              		.cfi_def_cfa_offset 8
  35              		.cfi_offset 3, -8
  36              		.cfi_offset 14, -4
 881:Middlewares/Third_Party/FreeRTOS/Source/CMSIS_RTOS_V2/cmsis_os2.c ****   TimerCallback_t *callb;
 882:Middlewares/Third_Party/FreeRTOS/Source/CMSIS_RTOS_V2/cmsis_os2.c **** 
 883:Middlewares/Third_Party/FreeRTOS/Source/CMSIS_RTOS_V2/cmsis_os2.c ****   callb = (TimerCallback_t *)pvTimerGetTimerID (hTimer);
  37              		.loc 1 883 0
  38 0002 FFF7FEFF 		bl	pvTimerGetTimerID
  39              	.LVL1:
 884:Middlewares/Third_Party/FreeRTOS/Source/CMSIS_RTOS_V2/cmsis_os2.c **** 
 885:Middlewares/Third_Party/FreeRTOS/Source/CMSIS_RTOS_V2/cmsis_os2.c ****   if (callb != NULL) {
  40              		.loc 1 885 0
  41 0006 10B1     		cbz	r0, .L1
 886:Middlewares/Third_Party/FreeRTOS/Source/CMSIS_RTOS_V2/cmsis_os2.c ****     callb->func (callb->arg);
  42              		.loc 1 886 0
  43 0008 0268     		ldr	r2, [r0]
  44 000a 4068     		ldr	r0, [r0, #4]
  45              	.LVL2:
  46 000c 9047     		blx	r2
  47              	.LVL3:
  48              	.L1:
  49 000e 08BD     		pop	{r3, pc}
  50              		.cfi_endproc
  51              	.LFE138:
  53              		.section	.text.osKernelInitialize,"ax",%progbits
  54              		.align	1
  55              		.global	osKernelInitialize
  56              		.syntax unified
  57              		.thumb
  58              		.thumb_func
  59              		.fpu fpv4-sp-d16
  61              	osKernelInitialize:
  62              	.LFB107:
 185:Middlewares/Third_Party/FreeRTOS/Source/CMSIS_RTOS_V2/cmsis_os2.c ****   osStatus_t stat;
  63              		.loc 1 185 0
  64              		.cfi_startproc
  65              		@ args = 0, pretend = 0, frame = 0
  66              		@ frame_needed = 0, uses_anonymous_args = 0
  67              		@ link register save eliminated.
  68              	.LBB340:
  69              	.LBB341:
  70              		.file 2 "Drivers/CMSIS/Include/cmsis_gcc.h"
   1:Drivers/CMSIS/Include/cmsis_gcc.h **** /**************************************************************************//**
   2:Drivers/CMSIS/Include/cmsis_gcc.h ****  * @file     cmsis_gcc.h
   3:Drivers/CMSIS/Include/cmsis_gcc.h ****  * @brief    CMSIS compiler GCC header file
   4:Drivers/CMSIS/Include/cmsis_gcc.h ****  * @version  V5.0.4
   5:Drivers/CMSIS/Include/cmsis_gcc.h ****  * @date     09. April 2018
   6:Drivers/CMSIS/Include/cmsis_gcc.h ****  ******************************************************************************/
   7:Drivers/CMSIS/Include/cmsis_gcc.h **** /*
   8:Drivers/CMSIS/Include/cmsis_gcc.h ****  * Copyright (c) 2009-2018 Arm Limited. All rights reserved.
   9:Drivers/CMSIS/Include/cmsis_gcc.h ****  *
  10:Drivers/CMSIS/Include/cmsis_gcc.h ****  * SPDX-License-Identifier: Apache-2.0
  11:Drivers/CMSIS/Include/cmsis_gcc.h ****  *
  12:Drivers/CMSIS/Include/cmsis_gcc.h ****  * Licensed under the Apache License, Version 2.0 (the License); you may
  13:Drivers/CMSIS/Include/cmsis_gcc.h ****  * not use this file except in compliance with the License.
  14:Drivers/CMSIS/Include/cmsis_gcc.h ****  * You may obtain a copy of the License at
  15:Drivers/CMSIS/Include/cmsis_gcc.h ****  *
ARM GAS  /tmp/ccZrYRqG.s 			page 18


  16:Drivers/CMSIS/Include/cmsis_gcc.h ****  * www.apache.org/licenses/LICENSE-2.0
  17:Drivers/CMSIS/Include/cmsis_gcc.h ****  *
  18:Drivers/CMSIS/Include/cmsis_gcc.h ****  * Unless required by applicable law or agreed to in writing, software
  19:Drivers/CMSIS/Include/cmsis_gcc.h ****  * distributed under the License is distributed on an AS IS BASIS, WITHOUT
  20:Drivers/CMSIS/Include/cmsis_gcc.h ****  * WARRANTIES OR CONDITIONS OF ANY KIND, either express or implied.
  21:Drivers/CMSIS/Include/cmsis_gcc.h ****  * See the License for the specific language governing permissions and
  22:Drivers/CMSIS/Include/cmsis_gcc.h ****  * limitations under the License.
  23:Drivers/CMSIS/Include/cmsis_gcc.h ****  */
  24:Drivers/CMSIS/Include/cmsis_gcc.h **** 
  25:Drivers/CMSIS/Include/cmsis_gcc.h **** #ifndef __CMSIS_GCC_H
  26:Drivers/CMSIS/Include/cmsis_gcc.h **** #define __CMSIS_GCC_H
  27:Drivers/CMSIS/Include/cmsis_gcc.h **** 
  28:Drivers/CMSIS/Include/cmsis_gcc.h **** /* ignore some GCC warnings */
  29:Drivers/CMSIS/Include/cmsis_gcc.h **** #pragma GCC diagnostic push
  30:Drivers/CMSIS/Include/cmsis_gcc.h **** #pragma GCC diagnostic ignored "-Wsign-conversion"
  31:Drivers/CMSIS/Include/cmsis_gcc.h **** #pragma GCC diagnostic ignored "-Wconversion"
  32:Drivers/CMSIS/Include/cmsis_gcc.h **** #pragma GCC diagnostic ignored "-Wunused-parameter"
  33:Drivers/CMSIS/Include/cmsis_gcc.h **** 
  34:Drivers/CMSIS/Include/cmsis_gcc.h **** /* Fallback for __has_builtin */
  35:Drivers/CMSIS/Include/cmsis_gcc.h **** #ifndef __has_builtin
  36:Drivers/CMSIS/Include/cmsis_gcc.h ****   #define __has_builtin(x) (0)
  37:Drivers/CMSIS/Include/cmsis_gcc.h **** #endif
  38:Drivers/CMSIS/Include/cmsis_gcc.h **** 
  39:Drivers/CMSIS/Include/cmsis_gcc.h **** /* CMSIS compiler specific defines */
  40:Drivers/CMSIS/Include/cmsis_gcc.h **** #ifndef   __ASM
  41:Drivers/CMSIS/Include/cmsis_gcc.h ****   #define __ASM                                  __asm
  42:Drivers/CMSIS/Include/cmsis_gcc.h **** #endif
  43:Drivers/CMSIS/Include/cmsis_gcc.h **** #ifndef   __INLINE
  44:Drivers/CMSIS/Include/cmsis_gcc.h ****   #define __INLINE                               inline
  45:Drivers/CMSIS/Include/cmsis_gcc.h **** #endif
  46:Drivers/CMSIS/Include/cmsis_gcc.h **** #ifndef   __STATIC_INLINE
  47:Drivers/CMSIS/Include/cmsis_gcc.h ****   #define __STATIC_INLINE                        static inline
  48:Drivers/CMSIS/Include/cmsis_gcc.h **** #endif
  49:Drivers/CMSIS/Include/cmsis_gcc.h **** #ifndef   __STATIC_FORCEINLINE                 
  50:Drivers/CMSIS/Include/cmsis_gcc.h ****   #define __STATIC_FORCEINLINE                   __attribute__((always_inline)) static inline
  51:Drivers/CMSIS/Include/cmsis_gcc.h **** #endif                                           
  52:Drivers/CMSIS/Include/cmsis_gcc.h **** #ifndef   __NO_RETURN
  53:Drivers/CMSIS/Include/cmsis_gcc.h ****   #define __NO_RETURN                            __attribute__((__noreturn__))
  54:Drivers/CMSIS/Include/cmsis_gcc.h **** #endif
  55:Drivers/CMSIS/Include/cmsis_gcc.h **** #ifndef   __USED
  56:Drivers/CMSIS/Include/cmsis_gcc.h ****   #define __USED                                 __attribute__((used))
  57:Drivers/CMSIS/Include/cmsis_gcc.h **** #endif
  58:Drivers/CMSIS/Include/cmsis_gcc.h **** #ifndef   __WEAK
  59:Drivers/CMSIS/Include/cmsis_gcc.h ****   #define __WEAK                                 __attribute__((weak))
  60:Drivers/CMSIS/Include/cmsis_gcc.h **** #endif
  61:Drivers/CMSIS/Include/cmsis_gcc.h **** #ifndef   __PACKED
  62:Drivers/CMSIS/Include/cmsis_gcc.h ****   #define __PACKED                               __attribute__((packed, aligned(1)))
  63:Drivers/CMSIS/Include/cmsis_gcc.h **** #endif
  64:Drivers/CMSIS/Include/cmsis_gcc.h **** #ifndef   __PACKED_STRUCT
  65:Drivers/CMSIS/Include/cmsis_gcc.h ****   #define __PACKED_STRUCT                        struct __attribute__((packed, aligned(1)))
  66:Drivers/CMSIS/Include/cmsis_gcc.h **** #endif
  67:Drivers/CMSIS/Include/cmsis_gcc.h **** #ifndef   __PACKED_UNION
  68:Drivers/CMSIS/Include/cmsis_gcc.h ****   #define __PACKED_UNION                         union __attribute__((packed, aligned(1)))
  69:Drivers/CMSIS/Include/cmsis_gcc.h **** #endif
  70:Drivers/CMSIS/Include/cmsis_gcc.h **** #ifndef   __UNALIGNED_UINT32        /* deprecated */
  71:Drivers/CMSIS/Include/cmsis_gcc.h ****   #pragma GCC diagnostic push
  72:Drivers/CMSIS/Include/cmsis_gcc.h ****   #pragma GCC diagnostic ignored "-Wpacked"
ARM GAS  /tmp/ccZrYRqG.s 			page 19


  73:Drivers/CMSIS/Include/cmsis_gcc.h ****   #pragma GCC diagnostic ignored "-Wattributes"
  74:Drivers/CMSIS/Include/cmsis_gcc.h ****   struct __attribute__((packed)) T_UINT32 { uint32_t v; };
  75:Drivers/CMSIS/Include/cmsis_gcc.h ****   #pragma GCC diagnostic pop
  76:Drivers/CMSIS/Include/cmsis_gcc.h ****   #define __UNALIGNED_UINT32(x)                  (((struct T_UINT32 *)(x))->v)
  77:Drivers/CMSIS/Include/cmsis_gcc.h **** #endif
  78:Drivers/CMSIS/Include/cmsis_gcc.h **** #ifndef   __UNALIGNED_UINT16_WRITE
  79:Drivers/CMSIS/Include/cmsis_gcc.h ****   #pragma GCC diagnostic push
  80:Drivers/CMSIS/Include/cmsis_gcc.h ****   #pragma GCC diagnostic ignored "-Wpacked"
  81:Drivers/CMSIS/Include/cmsis_gcc.h ****   #pragma GCC diagnostic ignored "-Wattributes"
  82:Drivers/CMSIS/Include/cmsis_gcc.h ****   __PACKED_STRUCT T_UINT16_WRITE { uint16_t v; };
  83:Drivers/CMSIS/Include/cmsis_gcc.h ****   #pragma GCC diagnostic pop
  84:Drivers/CMSIS/Include/cmsis_gcc.h ****   #define __UNALIGNED_UINT16_WRITE(addr, val)    (void)((((struct T_UINT16_WRITE *)(void *)(addr))-
  85:Drivers/CMSIS/Include/cmsis_gcc.h **** #endif
  86:Drivers/CMSIS/Include/cmsis_gcc.h **** #ifndef   __UNALIGNED_UINT16_READ
  87:Drivers/CMSIS/Include/cmsis_gcc.h ****   #pragma GCC diagnostic push
  88:Drivers/CMSIS/Include/cmsis_gcc.h ****   #pragma GCC diagnostic ignored "-Wpacked"
  89:Drivers/CMSIS/Include/cmsis_gcc.h ****   #pragma GCC diagnostic ignored "-Wattributes"
  90:Drivers/CMSIS/Include/cmsis_gcc.h ****   __PACKED_STRUCT T_UINT16_READ { uint16_t v; };
  91:Drivers/CMSIS/Include/cmsis_gcc.h ****   #pragma GCC diagnostic pop
  92:Drivers/CMSIS/Include/cmsis_gcc.h ****   #define __UNALIGNED_UINT16_READ(addr)          (((const struct T_UINT16_READ *)(const void *)(add
  93:Drivers/CMSIS/Include/cmsis_gcc.h **** #endif
  94:Drivers/CMSIS/Include/cmsis_gcc.h **** #ifndef   __UNALIGNED_UINT32_WRITE
  95:Drivers/CMSIS/Include/cmsis_gcc.h ****   #pragma GCC diagnostic push
  96:Drivers/CMSIS/Include/cmsis_gcc.h ****   #pragma GCC diagnostic ignored "-Wpacked"
  97:Drivers/CMSIS/Include/cmsis_gcc.h ****   #pragma GCC diagnostic ignored "-Wattributes"
  98:Drivers/CMSIS/Include/cmsis_gcc.h ****   __PACKED_STRUCT T_UINT32_WRITE { uint32_t v; };
  99:Drivers/CMSIS/Include/cmsis_gcc.h ****   #pragma GCC diagnostic pop
 100:Drivers/CMSIS/Include/cmsis_gcc.h ****   #define __UNALIGNED_UINT32_WRITE(addr, val)    (void)((((struct T_UINT32_WRITE *)(void *)(addr))-
 101:Drivers/CMSIS/Include/cmsis_gcc.h **** #endif
 102:Drivers/CMSIS/Include/cmsis_gcc.h **** #ifndef   __UNALIGNED_UINT32_READ
 103:Drivers/CMSIS/Include/cmsis_gcc.h ****   #pragma GCC diagnostic push
 104:Drivers/CMSIS/Include/cmsis_gcc.h ****   #pragma GCC diagnostic ignored "-Wpacked"
 105:Drivers/CMSIS/Include/cmsis_gcc.h ****   #pragma GCC diagnostic ignored "-Wattributes"
 106:Drivers/CMSIS/Include/cmsis_gcc.h ****   __PACKED_STRUCT T_UINT32_READ { uint32_t v; };
 107:Drivers/CMSIS/Include/cmsis_gcc.h ****   #pragma GCC diagnostic pop
 108:Drivers/CMSIS/Include/cmsis_gcc.h ****   #define __UNALIGNED_UINT32_READ(addr)          (((const struct T_UINT32_READ *)(const void *)(add
 109:Drivers/CMSIS/Include/cmsis_gcc.h **** #endif
 110:Drivers/CMSIS/Include/cmsis_gcc.h **** #ifndef   __ALIGNED
 111:Drivers/CMSIS/Include/cmsis_gcc.h ****   #define __ALIGNED(x)                           __attribute__((aligned(x)))
 112:Drivers/CMSIS/Include/cmsis_gcc.h **** #endif
 113:Drivers/CMSIS/Include/cmsis_gcc.h **** #ifndef   __RESTRICT
 114:Drivers/CMSIS/Include/cmsis_gcc.h ****   #define __RESTRICT                             __restrict
 115:Drivers/CMSIS/Include/cmsis_gcc.h **** #endif
 116:Drivers/CMSIS/Include/cmsis_gcc.h **** 
 117:Drivers/CMSIS/Include/cmsis_gcc.h **** 
 118:Drivers/CMSIS/Include/cmsis_gcc.h **** /* ###########################  Core Function Access  ########################### */
 119:Drivers/CMSIS/Include/cmsis_gcc.h **** /** \ingroup  CMSIS_Core_FunctionInterface
 120:Drivers/CMSIS/Include/cmsis_gcc.h ****     \defgroup CMSIS_Core_RegAccFunctions CMSIS Core Register Access Functions
 121:Drivers/CMSIS/Include/cmsis_gcc.h ****   @{
 122:Drivers/CMSIS/Include/cmsis_gcc.h ****  */
 123:Drivers/CMSIS/Include/cmsis_gcc.h **** 
 124:Drivers/CMSIS/Include/cmsis_gcc.h **** /**
 125:Drivers/CMSIS/Include/cmsis_gcc.h ****   \brief   Enable IRQ Interrupts
 126:Drivers/CMSIS/Include/cmsis_gcc.h ****   \details Enables IRQ interrupts by clearing the I-bit in the CPSR.
 127:Drivers/CMSIS/Include/cmsis_gcc.h ****            Can only be executed in Privileged modes.
 128:Drivers/CMSIS/Include/cmsis_gcc.h ****  */
 129:Drivers/CMSIS/Include/cmsis_gcc.h **** __STATIC_FORCEINLINE void __enable_irq(void)
ARM GAS  /tmp/ccZrYRqG.s 			page 20


 130:Drivers/CMSIS/Include/cmsis_gcc.h **** {
 131:Drivers/CMSIS/Include/cmsis_gcc.h ****   __ASM volatile ("cpsie i" : : : "memory");
 132:Drivers/CMSIS/Include/cmsis_gcc.h **** }
 133:Drivers/CMSIS/Include/cmsis_gcc.h **** 
 134:Drivers/CMSIS/Include/cmsis_gcc.h **** 
 135:Drivers/CMSIS/Include/cmsis_gcc.h **** /**
 136:Drivers/CMSIS/Include/cmsis_gcc.h ****   \brief   Disable IRQ Interrupts
 137:Drivers/CMSIS/Include/cmsis_gcc.h ****   \details Disables IRQ interrupts by setting the I-bit in the CPSR.
 138:Drivers/CMSIS/Include/cmsis_gcc.h ****            Can only be executed in Privileged modes.
 139:Drivers/CMSIS/Include/cmsis_gcc.h ****  */
 140:Drivers/CMSIS/Include/cmsis_gcc.h **** __STATIC_FORCEINLINE void __disable_irq(void)
 141:Drivers/CMSIS/Include/cmsis_gcc.h **** {
 142:Drivers/CMSIS/Include/cmsis_gcc.h ****   __ASM volatile ("cpsid i" : : : "memory");
 143:Drivers/CMSIS/Include/cmsis_gcc.h **** }
 144:Drivers/CMSIS/Include/cmsis_gcc.h **** 
 145:Drivers/CMSIS/Include/cmsis_gcc.h **** 
 146:Drivers/CMSIS/Include/cmsis_gcc.h **** /**
 147:Drivers/CMSIS/Include/cmsis_gcc.h ****   \brief   Get Control Register
 148:Drivers/CMSIS/Include/cmsis_gcc.h ****   \details Returns the content of the Control Register.
 149:Drivers/CMSIS/Include/cmsis_gcc.h ****   \return               Control Register value
 150:Drivers/CMSIS/Include/cmsis_gcc.h ****  */
 151:Drivers/CMSIS/Include/cmsis_gcc.h **** __STATIC_FORCEINLINE uint32_t __get_CONTROL(void)
 152:Drivers/CMSIS/Include/cmsis_gcc.h **** {
 153:Drivers/CMSIS/Include/cmsis_gcc.h ****   uint32_t result;
 154:Drivers/CMSIS/Include/cmsis_gcc.h **** 
 155:Drivers/CMSIS/Include/cmsis_gcc.h ****   __ASM volatile ("MRS %0, control" : "=r" (result) );
 156:Drivers/CMSIS/Include/cmsis_gcc.h ****   return(result);
 157:Drivers/CMSIS/Include/cmsis_gcc.h **** }
 158:Drivers/CMSIS/Include/cmsis_gcc.h **** 
 159:Drivers/CMSIS/Include/cmsis_gcc.h **** 
 160:Drivers/CMSIS/Include/cmsis_gcc.h **** #if (defined (__ARM_FEATURE_CMSE ) && (__ARM_FEATURE_CMSE == 3))
 161:Drivers/CMSIS/Include/cmsis_gcc.h **** /**
 162:Drivers/CMSIS/Include/cmsis_gcc.h ****   \brief   Get Control Register (non-secure)
 163:Drivers/CMSIS/Include/cmsis_gcc.h ****   \details Returns the content of the non-secure Control Register when in secure mode.
 164:Drivers/CMSIS/Include/cmsis_gcc.h ****   \return               non-secure Control Register value
 165:Drivers/CMSIS/Include/cmsis_gcc.h ****  */
 166:Drivers/CMSIS/Include/cmsis_gcc.h **** __STATIC_FORCEINLINE uint32_t __TZ_get_CONTROL_NS(void)
 167:Drivers/CMSIS/Include/cmsis_gcc.h **** {
 168:Drivers/CMSIS/Include/cmsis_gcc.h ****   uint32_t result;
 169:Drivers/CMSIS/Include/cmsis_gcc.h **** 
 170:Drivers/CMSIS/Include/cmsis_gcc.h ****   __ASM volatile ("MRS %0, control_ns" : "=r" (result) );
 171:Drivers/CMSIS/Include/cmsis_gcc.h ****   return(result);
 172:Drivers/CMSIS/Include/cmsis_gcc.h **** }
 173:Drivers/CMSIS/Include/cmsis_gcc.h **** #endif
 174:Drivers/CMSIS/Include/cmsis_gcc.h **** 
 175:Drivers/CMSIS/Include/cmsis_gcc.h **** 
 176:Drivers/CMSIS/Include/cmsis_gcc.h **** /**
 177:Drivers/CMSIS/Include/cmsis_gcc.h ****   \brief   Set Control Register
 178:Drivers/CMSIS/Include/cmsis_gcc.h ****   \details Writes the given value to the Control Register.
 179:Drivers/CMSIS/Include/cmsis_gcc.h ****   \param [in]    control  Control Register value to set
 180:Drivers/CMSIS/Include/cmsis_gcc.h ****  */
 181:Drivers/CMSIS/Include/cmsis_gcc.h **** __STATIC_FORCEINLINE void __set_CONTROL(uint32_t control)
 182:Drivers/CMSIS/Include/cmsis_gcc.h **** {
 183:Drivers/CMSIS/Include/cmsis_gcc.h ****   __ASM volatile ("MSR control, %0" : : "r" (control) : "memory");
 184:Drivers/CMSIS/Include/cmsis_gcc.h **** }
 185:Drivers/CMSIS/Include/cmsis_gcc.h **** 
 186:Drivers/CMSIS/Include/cmsis_gcc.h **** 
ARM GAS  /tmp/ccZrYRqG.s 			page 21


 187:Drivers/CMSIS/Include/cmsis_gcc.h **** #if (defined (__ARM_FEATURE_CMSE ) && (__ARM_FEATURE_CMSE == 3))
 188:Drivers/CMSIS/Include/cmsis_gcc.h **** /**
 189:Drivers/CMSIS/Include/cmsis_gcc.h ****   \brief   Set Control Register (non-secure)
 190:Drivers/CMSIS/Include/cmsis_gcc.h ****   \details Writes the given value to the non-secure Control Register when in secure state.
 191:Drivers/CMSIS/Include/cmsis_gcc.h ****   \param [in]    control  Control Register value to set
 192:Drivers/CMSIS/Include/cmsis_gcc.h ****  */
 193:Drivers/CMSIS/Include/cmsis_gcc.h **** __STATIC_FORCEINLINE void __TZ_set_CONTROL_NS(uint32_t control)
 194:Drivers/CMSIS/Include/cmsis_gcc.h **** {
 195:Drivers/CMSIS/Include/cmsis_gcc.h ****   __ASM volatile ("MSR control_ns, %0" : : "r" (control) : "memory");
 196:Drivers/CMSIS/Include/cmsis_gcc.h **** }
 197:Drivers/CMSIS/Include/cmsis_gcc.h **** #endif
 198:Drivers/CMSIS/Include/cmsis_gcc.h **** 
 199:Drivers/CMSIS/Include/cmsis_gcc.h **** 
 200:Drivers/CMSIS/Include/cmsis_gcc.h **** /**
 201:Drivers/CMSIS/Include/cmsis_gcc.h ****   \brief   Get IPSR Register
 202:Drivers/CMSIS/Include/cmsis_gcc.h ****   \details Returns the content of the IPSR Register.
 203:Drivers/CMSIS/Include/cmsis_gcc.h ****   \return               IPSR Register value
 204:Drivers/CMSIS/Include/cmsis_gcc.h ****  */
 205:Drivers/CMSIS/Include/cmsis_gcc.h **** __STATIC_FORCEINLINE uint32_t __get_IPSR(void)
 206:Drivers/CMSIS/Include/cmsis_gcc.h **** {
 207:Drivers/CMSIS/Include/cmsis_gcc.h ****   uint32_t result;
 208:Drivers/CMSIS/Include/cmsis_gcc.h **** 
 209:Drivers/CMSIS/Include/cmsis_gcc.h ****   __ASM volatile ("MRS %0, ipsr" : "=r" (result) );
  71              		.loc 2 209 0
  72              		.syntax unified
  73              	@ 209 "Drivers/CMSIS/Include/cmsis_gcc.h" 1
  74 0000 EFF30583 		MRS r3, ipsr
  75              	@ 0 "" 2
  76              		.thumb
  77              		.syntax unified
  78              	.LBE341:
  79              	.LBE340:
 188:Middlewares/Third_Party/FreeRTOS/Source/CMSIS_RTOS_V2/cmsis_os2.c ****     stat = osErrorISR;
  80              		.loc 1 188 0
  81 0004 8BB9     		cbnz	r3, .L8
  82              	.LBB342:
  83              	.LBB343:
 210:Drivers/CMSIS/Include/cmsis_gcc.h ****   return(result);
 211:Drivers/CMSIS/Include/cmsis_gcc.h **** }
 212:Drivers/CMSIS/Include/cmsis_gcc.h **** 
 213:Drivers/CMSIS/Include/cmsis_gcc.h **** 
 214:Drivers/CMSIS/Include/cmsis_gcc.h **** /**
 215:Drivers/CMSIS/Include/cmsis_gcc.h ****   \brief   Get APSR Register
 216:Drivers/CMSIS/Include/cmsis_gcc.h ****   \details Returns the content of the APSR Register.
 217:Drivers/CMSIS/Include/cmsis_gcc.h ****   \return               APSR Register value
 218:Drivers/CMSIS/Include/cmsis_gcc.h ****  */
 219:Drivers/CMSIS/Include/cmsis_gcc.h **** __STATIC_FORCEINLINE uint32_t __get_APSR(void)
 220:Drivers/CMSIS/Include/cmsis_gcc.h **** {
 221:Drivers/CMSIS/Include/cmsis_gcc.h ****   uint32_t result;
 222:Drivers/CMSIS/Include/cmsis_gcc.h **** 
 223:Drivers/CMSIS/Include/cmsis_gcc.h ****   __ASM volatile ("MRS %0, apsr" : "=r" (result) );
 224:Drivers/CMSIS/Include/cmsis_gcc.h ****   return(result);
 225:Drivers/CMSIS/Include/cmsis_gcc.h **** }
 226:Drivers/CMSIS/Include/cmsis_gcc.h **** 
 227:Drivers/CMSIS/Include/cmsis_gcc.h **** 
 228:Drivers/CMSIS/Include/cmsis_gcc.h **** /**
 229:Drivers/CMSIS/Include/cmsis_gcc.h ****   \brief   Get xPSR Register
ARM GAS  /tmp/ccZrYRqG.s 			page 22


 230:Drivers/CMSIS/Include/cmsis_gcc.h ****   \details Returns the content of the xPSR Register.
 231:Drivers/CMSIS/Include/cmsis_gcc.h ****   \return               xPSR Register value
 232:Drivers/CMSIS/Include/cmsis_gcc.h ****  */
 233:Drivers/CMSIS/Include/cmsis_gcc.h **** __STATIC_FORCEINLINE uint32_t __get_xPSR(void)
 234:Drivers/CMSIS/Include/cmsis_gcc.h **** {
 235:Drivers/CMSIS/Include/cmsis_gcc.h ****   uint32_t result;
 236:Drivers/CMSIS/Include/cmsis_gcc.h **** 
 237:Drivers/CMSIS/Include/cmsis_gcc.h ****   __ASM volatile ("MRS %0, xpsr" : "=r" (result) );
 238:Drivers/CMSIS/Include/cmsis_gcc.h ****   return(result);
 239:Drivers/CMSIS/Include/cmsis_gcc.h **** }
 240:Drivers/CMSIS/Include/cmsis_gcc.h **** 
 241:Drivers/CMSIS/Include/cmsis_gcc.h **** 
 242:Drivers/CMSIS/Include/cmsis_gcc.h **** /**
 243:Drivers/CMSIS/Include/cmsis_gcc.h ****   \brief   Get Process Stack Pointer
 244:Drivers/CMSIS/Include/cmsis_gcc.h ****   \details Returns the current value of the Process Stack Pointer (PSP).
 245:Drivers/CMSIS/Include/cmsis_gcc.h ****   \return               PSP Register value
 246:Drivers/CMSIS/Include/cmsis_gcc.h ****  */
 247:Drivers/CMSIS/Include/cmsis_gcc.h **** __STATIC_FORCEINLINE uint32_t __get_PSP(void)
 248:Drivers/CMSIS/Include/cmsis_gcc.h **** {
 249:Drivers/CMSIS/Include/cmsis_gcc.h ****   uint32_t result;
 250:Drivers/CMSIS/Include/cmsis_gcc.h **** 
 251:Drivers/CMSIS/Include/cmsis_gcc.h ****   __ASM volatile ("MRS %0, psp"  : "=r" (result) );
 252:Drivers/CMSIS/Include/cmsis_gcc.h ****   return(result);
 253:Drivers/CMSIS/Include/cmsis_gcc.h **** }
 254:Drivers/CMSIS/Include/cmsis_gcc.h **** 
 255:Drivers/CMSIS/Include/cmsis_gcc.h **** 
 256:Drivers/CMSIS/Include/cmsis_gcc.h **** #if (defined (__ARM_FEATURE_CMSE ) && (__ARM_FEATURE_CMSE == 3))
 257:Drivers/CMSIS/Include/cmsis_gcc.h **** /**
 258:Drivers/CMSIS/Include/cmsis_gcc.h ****   \brief   Get Process Stack Pointer (non-secure)
 259:Drivers/CMSIS/Include/cmsis_gcc.h ****   \details Returns the current value of the non-secure Process Stack Pointer (PSP) when in secure s
 260:Drivers/CMSIS/Include/cmsis_gcc.h ****   \return               PSP Register value
 261:Drivers/CMSIS/Include/cmsis_gcc.h ****  */
 262:Drivers/CMSIS/Include/cmsis_gcc.h **** __STATIC_FORCEINLINE uint32_t __TZ_get_PSP_NS(void)
 263:Drivers/CMSIS/Include/cmsis_gcc.h **** {
 264:Drivers/CMSIS/Include/cmsis_gcc.h ****   uint32_t result;
 265:Drivers/CMSIS/Include/cmsis_gcc.h **** 
 266:Drivers/CMSIS/Include/cmsis_gcc.h ****   __ASM volatile ("MRS %0, psp_ns"  : "=r" (result) );
 267:Drivers/CMSIS/Include/cmsis_gcc.h ****   return(result);
 268:Drivers/CMSIS/Include/cmsis_gcc.h **** }
 269:Drivers/CMSIS/Include/cmsis_gcc.h **** #endif
 270:Drivers/CMSIS/Include/cmsis_gcc.h **** 
 271:Drivers/CMSIS/Include/cmsis_gcc.h **** 
 272:Drivers/CMSIS/Include/cmsis_gcc.h **** /**
 273:Drivers/CMSIS/Include/cmsis_gcc.h ****   \brief   Set Process Stack Pointer
 274:Drivers/CMSIS/Include/cmsis_gcc.h ****   \details Assigns the given value to the Process Stack Pointer (PSP).
 275:Drivers/CMSIS/Include/cmsis_gcc.h ****   \param [in]    topOfProcStack  Process Stack Pointer value to set
 276:Drivers/CMSIS/Include/cmsis_gcc.h ****  */
 277:Drivers/CMSIS/Include/cmsis_gcc.h **** __STATIC_FORCEINLINE void __set_PSP(uint32_t topOfProcStack)
 278:Drivers/CMSIS/Include/cmsis_gcc.h **** {
 279:Drivers/CMSIS/Include/cmsis_gcc.h ****   __ASM volatile ("MSR psp, %0" : : "r" (topOfProcStack) : );
 280:Drivers/CMSIS/Include/cmsis_gcc.h **** }
 281:Drivers/CMSIS/Include/cmsis_gcc.h **** 
 282:Drivers/CMSIS/Include/cmsis_gcc.h **** 
 283:Drivers/CMSIS/Include/cmsis_gcc.h **** #if (defined (__ARM_FEATURE_CMSE ) && (__ARM_FEATURE_CMSE == 3))
 284:Drivers/CMSIS/Include/cmsis_gcc.h **** /**
 285:Drivers/CMSIS/Include/cmsis_gcc.h ****   \brief   Set Process Stack Pointer (non-secure)
 286:Drivers/CMSIS/Include/cmsis_gcc.h ****   \details Assigns the given value to the non-secure Process Stack Pointer (PSP) when in secure sta
ARM GAS  /tmp/ccZrYRqG.s 			page 23


 287:Drivers/CMSIS/Include/cmsis_gcc.h ****   \param [in]    topOfProcStack  Process Stack Pointer value to set
 288:Drivers/CMSIS/Include/cmsis_gcc.h ****  */
 289:Drivers/CMSIS/Include/cmsis_gcc.h **** __STATIC_FORCEINLINE void __TZ_set_PSP_NS(uint32_t topOfProcStack)
 290:Drivers/CMSIS/Include/cmsis_gcc.h **** {
 291:Drivers/CMSIS/Include/cmsis_gcc.h ****   __ASM volatile ("MSR psp_ns, %0" : : "r" (topOfProcStack) : );
 292:Drivers/CMSIS/Include/cmsis_gcc.h **** }
 293:Drivers/CMSIS/Include/cmsis_gcc.h **** #endif
 294:Drivers/CMSIS/Include/cmsis_gcc.h **** 
 295:Drivers/CMSIS/Include/cmsis_gcc.h **** 
 296:Drivers/CMSIS/Include/cmsis_gcc.h **** /**
 297:Drivers/CMSIS/Include/cmsis_gcc.h ****   \brief   Get Main Stack Pointer
 298:Drivers/CMSIS/Include/cmsis_gcc.h ****   \details Returns the current value of the Main Stack Pointer (MSP).
 299:Drivers/CMSIS/Include/cmsis_gcc.h ****   \return               MSP Register value
 300:Drivers/CMSIS/Include/cmsis_gcc.h ****  */
 301:Drivers/CMSIS/Include/cmsis_gcc.h **** __STATIC_FORCEINLINE uint32_t __get_MSP(void)
 302:Drivers/CMSIS/Include/cmsis_gcc.h **** {
 303:Drivers/CMSIS/Include/cmsis_gcc.h ****   uint32_t result;
 304:Drivers/CMSIS/Include/cmsis_gcc.h **** 
 305:Drivers/CMSIS/Include/cmsis_gcc.h ****   __ASM volatile ("MRS %0, msp" : "=r" (result) );
 306:Drivers/CMSIS/Include/cmsis_gcc.h ****   return(result);
 307:Drivers/CMSIS/Include/cmsis_gcc.h **** }
 308:Drivers/CMSIS/Include/cmsis_gcc.h **** 
 309:Drivers/CMSIS/Include/cmsis_gcc.h **** 
 310:Drivers/CMSIS/Include/cmsis_gcc.h **** #if (defined (__ARM_FEATURE_CMSE ) && (__ARM_FEATURE_CMSE == 3))
 311:Drivers/CMSIS/Include/cmsis_gcc.h **** /**
 312:Drivers/CMSIS/Include/cmsis_gcc.h ****   \brief   Get Main Stack Pointer (non-secure)
 313:Drivers/CMSIS/Include/cmsis_gcc.h ****   \details Returns the current value of the non-secure Main Stack Pointer (MSP) when in secure stat
 314:Drivers/CMSIS/Include/cmsis_gcc.h ****   \return               MSP Register value
 315:Drivers/CMSIS/Include/cmsis_gcc.h ****  */
 316:Drivers/CMSIS/Include/cmsis_gcc.h **** __STATIC_FORCEINLINE uint32_t __TZ_get_MSP_NS(void)
 317:Drivers/CMSIS/Include/cmsis_gcc.h **** {
 318:Drivers/CMSIS/Include/cmsis_gcc.h ****   uint32_t result;
 319:Drivers/CMSIS/Include/cmsis_gcc.h **** 
 320:Drivers/CMSIS/Include/cmsis_gcc.h ****   __ASM volatile ("MRS %0, msp_ns" : "=r" (result) );
 321:Drivers/CMSIS/Include/cmsis_gcc.h ****   return(result);
 322:Drivers/CMSIS/Include/cmsis_gcc.h **** }
 323:Drivers/CMSIS/Include/cmsis_gcc.h **** #endif
 324:Drivers/CMSIS/Include/cmsis_gcc.h **** 
 325:Drivers/CMSIS/Include/cmsis_gcc.h **** 
 326:Drivers/CMSIS/Include/cmsis_gcc.h **** /**
 327:Drivers/CMSIS/Include/cmsis_gcc.h ****   \brief   Set Main Stack Pointer
 328:Drivers/CMSIS/Include/cmsis_gcc.h ****   \details Assigns the given value to the Main Stack Pointer (MSP).
 329:Drivers/CMSIS/Include/cmsis_gcc.h ****   \param [in]    topOfMainStack  Main Stack Pointer value to set
 330:Drivers/CMSIS/Include/cmsis_gcc.h ****  */
 331:Drivers/CMSIS/Include/cmsis_gcc.h **** __STATIC_FORCEINLINE void __set_MSP(uint32_t topOfMainStack)
 332:Drivers/CMSIS/Include/cmsis_gcc.h **** {
 333:Drivers/CMSIS/Include/cmsis_gcc.h ****   __ASM volatile ("MSR msp, %0" : : "r" (topOfMainStack) : );
 334:Drivers/CMSIS/Include/cmsis_gcc.h **** }
 335:Drivers/CMSIS/Include/cmsis_gcc.h **** 
 336:Drivers/CMSIS/Include/cmsis_gcc.h **** 
 337:Drivers/CMSIS/Include/cmsis_gcc.h **** #if (defined (__ARM_FEATURE_CMSE ) && (__ARM_FEATURE_CMSE == 3))
 338:Drivers/CMSIS/Include/cmsis_gcc.h **** /**
 339:Drivers/CMSIS/Include/cmsis_gcc.h ****   \brief   Set Main Stack Pointer (non-secure)
 340:Drivers/CMSIS/Include/cmsis_gcc.h ****   \details Assigns the given value to the non-secure Main Stack Pointer (MSP) when in secure state.
 341:Drivers/CMSIS/Include/cmsis_gcc.h ****   \param [in]    topOfMainStack  Main Stack Pointer value to set
 342:Drivers/CMSIS/Include/cmsis_gcc.h ****  */
 343:Drivers/CMSIS/Include/cmsis_gcc.h **** __STATIC_FORCEINLINE void __TZ_set_MSP_NS(uint32_t topOfMainStack)
ARM GAS  /tmp/ccZrYRqG.s 			page 24


 344:Drivers/CMSIS/Include/cmsis_gcc.h **** {
 345:Drivers/CMSIS/Include/cmsis_gcc.h ****   __ASM volatile ("MSR msp_ns, %0" : : "r" (topOfMainStack) : );
 346:Drivers/CMSIS/Include/cmsis_gcc.h **** }
 347:Drivers/CMSIS/Include/cmsis_gcc.h **** #endif
 348:Drivers/CMSIS/Include/cmsis_gcc.h **** 
 349:Drivers/CMSIS/Include/cmsis_gcc.h **** 
 350:Drivers/CMSIS/Include/cmsis_gcc.h **** #if (defined (__ARM_FEATURE_CMSE ) && (__ARM_FEATURE_CMSE == 3))
 351:Drivers/CMSIS/Include/cmsis_gcc.h **** /**
 352:Drivers/CMSIS/Include/cmsis_gcc.h ****   \brief   Get Stack Pointer (non-secure)
 353:Drivers/CMSIS/Include/cmsis_gcc.h ****   \details Returns the current value of the non-secure Stack Pointer (SP) when in secure state.
 354:Drivers/CMSIS/Include/cmsis_gcc.h ****   \return               SP Register value
 355:Drivers/CMSIS/Include/cmsis_gcc.h ****  */
 356:Drivers/CMSIS/Include/cmsis_gcc.h **** __STATIC_FORCEINLINE uint32_t __TZ_get_SP_NS(void)
 357:Drivers/CMSIS/Include/cmsis_gcc.h **** {
 358:Drivers/CMSIS/Include/cmsis_gcc.h ****   uint32_t result;
 359:Drivers/CMSIS/Include/cmsis_gcc.h **** 
 360:Drivers/CMSIS/Include/cmsis_gcc.h ****   __ASM volatile ("MRS %0, sp_ns" : "=r" (result) );
 361:Drivers/CMSIS/Include/cmsis_gcc.h ****   return(result);
 362:Drivers/CMSIS/Include/cmsis_gcc.h **** }
 363:Drivers/CMSIS/Include/cmsis_gcc.h **** 
 364:Drivers/CMSIS/Include/cmsis_gcc.h **** 
 365:Drivers/CMSIS/Include/cmsis_gcc.h **** /**
 366:Drivers/CMSIS/Include/cmsis_gcc.h ****   \brief   Set Stack Pointer (non-secure)
 367:Drivers/CMSIS/Include/cmsis_gcc.h ****   \details Assigns the given value to the non-secure Stack Pointer (SP) when in secure state.
 368:Drivers/CMSIS/Include/cmsis_gcc.h ****   \param [in]    topOfStack  Stack Pointer value to set
 369:Drivers/CMSIS/Include/cmsis_gcc.h ****  */
 370:Drivers/CMSIS/Include/cmsis_gcc.h **** __STATIC_FORCEINLINE void __TZ_set_SP_NS(uint32_t topOfStack)
 371:Drivers/CMSIS/Include/cmsis_gcc.h **** {
 372:Drivers/CMSIS/Include/cmsis_gcc.h ****   __ASM volatile ("MSR sp_ns, %0" : : "r" (topOfStack) : );
 373:Drivers/CMSIS/Include/cmsis_gcc.h **** }
 374:Drivers/CMSIS/Include/cmsis_gcc.h **** #endif
 375:Drivers/CMSIS/Include/cmsis_gcc.h **** 
 376:Drivers/CMSIS/Include/cmsis_gcc.h **** 
 377:Drivers/CMSIS/Include/cmsis_gcc.h **** /**
 378:Drivers/CMSIS/Include/cmsis_gcc.h ****   \brief   Get Priority Mask
 379:Drivers/CMSIS/Include/cmsis_gcc.h ****   \details Returns the current state of the priority mask bit from the Priority Mask Register.
 380:Drivers/CMSIS/Include/cmsis_gcc.h ****   \return               Priority Mask value
 381:Drivers/CMSIS/Include/cmsis_gcc.h ****  */
 382:Drivers/CMSIS/Include/cmsis_gcc.h **** __STATIC_FORCEINLINE uint32_t __get_PRIMASK(void)
 383:Drivers/CMSIS/Include/cmsis_gcc.h **** {
 384:Drivers/CMSIS/Include/cmsis_gcc.h ****   uint32_t result;
 385:Drivers/CMSIS/Include/cmsis_gcc.h **** 
 386:Drivers/CMSIS/Include/cmsis_gcc.h ****   __ASM volatile ("MRS %0, primask" : "=r" (result) :: "memory");
  84              		.loc 2 386 0
  85              		.syntax unified
  86              	@ 386 "Drivers/CMSIS/Include/cmsis_gcc.h" 1
  87 0006 EFF31083 		MRS r3, primask
  88              	@ 0 "" 2
  89              		.thumb
  90              		.syntax unified
  91              	.LBE343:
  92              	.LBE342:
 188:Middlewares/Third_Party/FreeRTOS/Source/CMSIS_RTOS_V2/cmsis_os2.c ****     stat = osErrorISR;
  93              		.loc 1 188 0
  94 000a 13B9     		cbnz	r3, .L6
  95              	.LBB344:
  96              	.LBB345:
ARM GAS  /tmp/ccZrYRqG.s 			page 25


 387:Drivers/CMSIS/Include/cmsis_gcc.h ****   return(result);
 388:Drivers/CMSIS/Include/cmsis_gcc.h **** }
 389:Drivers/CMSIS/Include/cmsis_gcc.h **** 
 390:Drivers/CMSIS/Include/cmsis_gcc.h **** 
 391:Drivers/CMSIS/Include/cmsis_gcc.h **** #if (defined (__ARM_FEATURE_CMSE ) && (__ARM_FEATURE_CMSE == 3))
 392:Drivers/CMSIS/Include/cmsis_gcc.h **** /**
 393:Drivers/CMSIS/Include/cmsis_gcc.h ****   \brief   Get Priority Mask (non-secure)
 394:Drivers/CMSIS/Include/cmsis_gcc.h ****   \details Returns the current state of the non-secure priority mask bit from the Priority Mask Reg
 395:Drivers/CMSIS/Include/cmsis_gcc.h ****   \return               Priority Mask value
 396:Drivers/CMSIS/Include/cmsis_gcc.h ****  */
 397:Drivers/CMSIS/Include/cmsis_gcc.h **** __STATIC_FORCEINLINE uint32_t __TZ_get_PRIMASK_NS(void)
 398:Drivers/CMSIS/Include/cmsis_gcc.h **** {
 399:Drivers/CMSIS/Include/cmsis_gcc.h ****   uint32_t result;
 400:Drivers/CMSIS/Include/cmsis_gcc.h **** 
 401:Drivers/CMSIS/Include/cmsis_gcc.h ****   __ASM volatile ("MRS %0, primask_ns" : "=r" (result) :: "memory");
 402:Drivers/CMSIS/Include/cmsis_gcc.h ****   return(result);
 403:Drivers/CMSIS/Include/cmsis_gcc.h **** }
 404:Drivers/CMSIS/Include/cmsis_gcc.h **** #endif
 405:Drivers/CMSIS/Include/cmsis_gcc.h **** 
 406:Drivers/CMSIS/Include/cmsis_gcc.h **** 
 407:Drivers/CMSIS/Include/cmsis_gcc.h **** /**
 408:Drivers/CMSIS/Include/cmsis_gcc.h ****   \brief   Set Priority Mask
 409:Drivers/CMSIS/Include/cmsis_gcc.h ****   \details Assigns the given value to the Priority Mask Register.
 410:Drivers/CMSIS/Include/cmsis_gcc.h ****   \param [in]    priMask  Priority Mask
 411:Drivers/CMSIS/Include/cmsis_gcc.h ****  */
 412:Drivers/CMSIS/Include/cmsis_gcc.h **** __STATIC_FORCEINLINE void __set_PRIMASK(uint32_t priMask)
 413:Drivers/CMSIS/Include/cmsis_gcc.h **** {
 414:Drivers/CMSIS/Include/cmsis_gcc.h ****   __ASM volatile ("MSR primask, %0" : : "r" (priMask) : "memory");
 415:Drivers/CMSIS/Include/cmsis_gcc.h **** }
 416:Drivers/CMSIS/Include/cmsis_gcc.h **** 
 417:Drivers/CMSIS/Include/cmsis_gcc.h **** 
 418:Drivers/CMSIS/Include/cmsis_gcc.h **** #if (defined (__ARM_FEATURE_CMSE ) && (__ARM_FEATURE_CMSE == 3))
 419:Drivers/CMSIS/Include/cmsis_gcc.h **** /**
 420:Drivers/CMSIS/Include/cmsis_gcc.h ****   \brief   Set Priority Mask (non-secure)
 421:Drivers/CMSIS/Include/cmsis_gcc.h ****   \details Assigns the given value to the non-secure Priority Mask Register when in secure state.
 422:Drivers/CMSIS/Include/cmsis_gcc.h ****   \param [in]    priMask  Priority Mask
 423:Drivers/CMSIS/Include/cmsis_gcc.h ****  */
 424:Drivers/CMSIS/Include/cmsis_gcc.h **** __STATIC_FORCEINLINE void __TZ_set_PRIMASK_NS(uint32_t priMask)
 425:Drivers/CMSIS/Include/cmsis_gcc.h **** {
 426:Drivers/CMSIS/Include/cmsis_gcc.h ****   __ASM volatile ("MSR primask_ns, %0" : : "r" (priMask) : "memory");
 427:Drivers/CMSIS/Include/cmsis_gcc.h **** }
 428:Drivers/CMSIS/Include/cmsis_gcc.h **** #endif
 429:Drivers/CMSIS/Include/cmsis_gcc.h **** 
 430:Drivers/CMSIS/Include/cmsis_gcc.h **** 
 431:Drivers/CMSIS/Include/cmsis_gcc.h **** #if ((defined (__ARM_ARCH_7M__      ) && (__ARM_ARCH_7M__      == 1)) || \
 432:Drivers/CMSIS/Include/cmsis_gcc.h ****      (defined (__ARM_ARCH_7EM__     ) && (__ARM_ARCH_7EM__     == 1)) || \
 433:Drivers/CMSIS/Include/cmsis_gcc.h ****      (defined (__ARM_ARCH_8M_MAIN__ ) && (__ARM_ARCH_8M_MAIN__ == 1))    )
 434:Drivers/CMSIS/Include/cmsis_gcc.h **** /**
 435:Drivers/CMSIS/Include/cmsis_gcc.h ****   \brief   Enable FIQ
 436:Drivers/CMSIS/Include/cmsis_gcc.h ****   \details Enables FIQ interrupts by clearing the F-bit in the CPSR.
 437:Drivers/CMSIS/Include/cmsis_gcc.h ****            Can only be executed in Privileged modes.
 438:Drivers/CMSIS/Include/cmsis_gcc.h ****  */
 439:Drivers/CMSIS/Include/cmsis_gcc.h **** __STATIC_FORCEINLINE void __enable_fault_irq(void)
 440:Drivers/CMSIS/Include/cmsis_gcc.h **** {
 441:Drivers/CMSIS/Include/cmsis_gcc.h ****   __ASM volatile ("cpsie f" : : : "memory");
 442:Drivers/CMSIS/Include/cmsis_gcc.h **** }
 443:Drivers/CMSIS/Include/cmsis_gcc.h **** 
ARM GAS  /tmp/ccZrYRqG.s 			page 26


 444:Drivers/CMSIS/Include/cmsis_gcc.h **** 
 445:Drivers/CMSIS/Include/cmsis_gcc.h **** /**
 446:Drivers/CMSIS/Include/cmsis_gcc.h ****   \brief   Disable FIQ
 447:Drivers/CMSIS/Include/cmsis_gcc.h ****   \details Disables FIQ interrupts by setting the F-bit in the CPSR.
 448:Drivers/CMSIS/Include/cmsis_gcc.h ****            Can only be executed in Privileged modes.
 449:Drivers/CMSIS/Include/cmsis_gcc.h ****  */
 450:Drivers/CMSIS/Include/cmsis_gcc.h **** __STATIC_FORCEINLINE void __disable_fault_irq(void)
 451:Drivers/CMSIS/Include/cmsis_gcc.h **** {
 452:Drivers/CMSIS/Include/cmsis_gcc.h ****   __ASM volatile ("cpsid f" : : : "memory");
 453:Drivers/CMSIS/Include/cmsis_gcc.h **** }
 454:Drivers/CMSIS/Include/cmsis_gcc.h **** 
 455:Drivers/CMSIS/Include/cmsis_gcc.h **** 
 456:Drivers/CMSIS/Include/cmsis_gcc.h **** /**
 457:Drivers/CMSIS/Include/cmsis_gcc.h ****   \brief   Get Base Priority
 458:Drivers/CMSIS/Include/cmsis_gcc.h ****   \details Returns the current value of the Base Priority register.
 459:Drivers/CMSIS/Include/cmsis_gcc.h ****   \return               Base Priority register value
 460:Drivers/CMSIS/Include/cmsis_gcc.h ****  */
 461:Drivers/CMSIS/Include/cmsis_gcc.h **** __STATIC_FORCEINLINE uint32_t __get_BASEPRI(void)
 462:Drivers/CMSIS/Include/cmsis_gcc.h **** {
 463:Drivers/CMSIS/Include/cmsis_gcc.h ****   uint32_t result;
 464:Drivers/CMSIS/Include/cmsis_gcc.h **** 
 465:Drivers/CMSIS/Include/cmsis_gcc.h ****   __ASM volatile ("MRS %0, basepri" : "=r" (result) );
  97              		.loc 2 465 0
  98              		.syntax unified
  99              	@ 465 "Drivers/CMSIS/Include/cmsis_gcc.h" 1
 100 000c EFF31183 		MRS r3, basepri
 101              	@ 0 "" 2
 102              		.thumb
 103              		.syntax unified
 104              	.LBE345:
 105              	.LBE344:
 188:Middlewares/Third_Party/FreeRTOS/Source/CMSIS_RTOS_V2/cmsis_os2.c ****     stat = osErrorISR;
 106              		.loc 1 188 0
 107 0010 1BB1     		cbz	r3, .L7
 108              	.L6:
 188:Middlewares/Third_Party/FreeRTOS/Source/CMSIS_RTOS_V2/cmsis_os2.c ****     stat = osErrorISR;
 109              		.loc 1 188 0 is_stmt 0 discriminator 4
 110 0012 0A4B     		ldr	r3, .L11
 111 0014 1B68     		ldr	r3, [r3]
 112 0016 022B     		cmp	r3, #2
 113 0018 0AD0     		beq	.L9
 114              	.L7:
 192:Middlewares/Third_Party/FreeRTOS/Source/CMSIS_RTOS_V2/cmsis_os2.c ****       #if defined(USE_FREERTOS_HEAP_5) && (HEAP_5_REGION_SETUP == 1)
 115              		.loc 1 192 0 is_stmt 1
 116 001a 084B     		ldr	r3, .L11
 117 001c 1B68     		ldr	r3, [r3]
 118 001e 53B9     		cbnz	r3, .L10
 196:Middlewares/Third_Party/FreeRTOS/Source/CMSIS_RTOS_V2/cmsis_os2.c ****       stat = osOK;
 119              		.loc 1 196 0
 120 0020 0122     		movs	r2, #1
 121 0022 064B     		ldr	r3, .L11
 122 0024 1A60     		str	r2, [r3]
 123              	.LVL4:
 197:Middlewares/Third_Party/FreeRTOS/Source/CMSIS_RTOS_V2/cmsis_os2.c ****     } else {
 124              		.loc 1 197 0
 125 0026 0020     		movs	r0, #0
 126 0028 7047     		bx	lr
ARM GAS  /tmp/ccZrYRqG.s 			page 27


 127              	.LVL5:
 128              	.L8:
 189:Middlewares/Third_Party/FreeRTOS/Source/CMSIS_RTOS_V2/cmsis_os2.c ****   }
 129              		.loc 1 189 0
 130 002a 6FF00500 		mvn	r0, #5
 131 002e 7047     		bx	lr
 132              	.L9:
 133 0030 6FF00500 		mvn	r0, #5
 134 0034 7047     		bx	lr
 135              	.L10:
 199:Middlewares/Third_Party/FreeRTOS/Source/CMSIS_RTOS_V2/cmsis_os2.c ****     }
 136              		.loc 1 199 0
 137 0036 4FF0FF30 		mov	r0, #-1
 138              	.LVL6:
 204:Middlewares/Third_Party/FreeRTOS/Source/CMSIS_RTOS_V2/cmsis_os2.c **** 
 139              		.loc 1 204 0
 140 003a 7047     		bx	lr
 141              	.L12:
 142              		.align	2
 143              	.L11:
 144 003c 00000000 		.word	.LANCHOR0
 145              		.cfi_endproc
 146              	.LFE107:
 148              		.section	.text.osKernelGetInfo,"ax",%progbits
 149              		.align	1
 150              		.global	osKernelGetInfo
 151              		.syntax unified
 152              		.thumb
 153              		.thumb_func
 154              		.fpu fpv4-sp-d16
 156              	osKernelGetInfo:
 157              	.LFB108:
 206:Middlewares/Third_Party/FreeRTOS/Source/CMSIS_RTOS_V2/cmsis_os2.c **** 
 158              		.loc 1 206 0
 159              		.cfi_startproc
 160              		@ args = 0, pretend = 0, frame = 0
 161              		@ frame_needed = 0, uses_anonymous_args = 0
 162              	.LVL7:
 163 0000 10B5     		push	{r4, lr}
 164              	.LCFI1:
 165              		.cfi_def_cfa_offset 8
 166              		.cfi_offset 4, -8
 167              		.cfi_offset 14, -4
 168 0002 0C46     		mov	r4, r1
 208:Middlewares/Third_Party/FreeRTOS/Source/CMSIS_RTOS_V2/cmsis_os2.c ****     /* Version encoding is major.minor.rev: mmnnnrrrr dec */
 169              		.loc 1 208 0
 170 0004 10B1     		cbz	r0, .L14
 210:Middlewares/Third_Party/FreeRTOS/Source/CMSIS_RTOS_V2/cmsis_os2.c ****     version->kernel = KERNEL_VERSION;
 171              		.loc 1 210 0
 172 0006 0749     		ldr	r1, .L19
 173              	.LVL8:
 174 0008 0160     		str	r1, [r0]
 211:Middlewares/Third_Party/FreeRTOS/Source/CMSIS_RTOS_V2/cmsis_os2.c ****   }
 175              		.loc 1 211 0
 176 000a 4160     		str	r1, [r0, #4]
 177              	.L14:
 214:Middlewares/Third_Party/FreeRTOS/Source/CMSIS_RTOS_V2/cmsis_os2.c ****     if (id_size > sizeof(KERNEL_ID)) {
ARM GAS  /tmp/ccZrYRqG.s 			page 28


 178              		.loc 1 214 0
 179 000c 3CB1     		cbz	r4, .L15
 214:Middlewares/Third_Party/FreeRTOS/Source/CMSIS_RTOS_V2/cmsis_os2.c ****     if (id_size > sizeof(KERNEL_ID)) {
 180              		.loc 1 214 0 is_stmt 0 discriminator 1
 181 000e 32B1     		cbz	r2, .L15
 215:Middlewares/Third_Party/FreeRTOS/Source/CMSIS_RTOS_V2/cmsis_os2.c ****       id_size = sizeof(KERNEL_ID);
 182              		.loc 1 215 0 is_stmt 1
 183 0010 112A     		cmp	r2, #17
 184 0012 00D9     		bls	.L16
 216:Middlewares/Third_Party/FreeRTOS/Source/CMSIS_RTOS_V2/cmsis_os2.c ****     }
 185              		.loc 1 216 0
 186 0014 1122     		movs	r2, #17
 187              	.LVL9:
 188              	.L16:
 218:Middlewares/Third_Party/FreeRTOS/Source/CMSIS_RTOS_V2/cmsis_os2.c ****   }
 189              		.loc 1 218 0
 190 0016 0449     		ldr	r1, .L19+4
 191 0018 2046     		mov	r0, r4
 192              	.LVL10:
 193 001a FFF7FEFF 		bl	memcpy
 194              	.LVL11:
 195              	.L15:
 222:Middlewares/Third_Party/FreeRTOS/Source/CMSIS_RTOS_V2/cmsis_os2.c **** 
 196              		.loc 1 222 0
 197 001e 0020     		movs	r0, #0
 198 0020 10BD     		pop	{r4, pc}
 199              	.LVL12:
 200              	.L20:
 201 0022 00BF     		.align	2
 202              	.L19:
 203 0024 20EFF505 		.word	100003616
 204 0028 00000000 		.word	.LC0
 205              		.cfi_endproc
 206              	.LFE108:
 208              		.section	.text.osKernelGetState,"ax",%progbits
 209              		.align	1
 210              		.global	osKernelGetState
 211              		.syntax unified
 212              		.thumb
 213              		.thumb_func
 214              		.fpu fpv4-sp-d16
 216              	osKernelGetState:
 217              	.LFB109:
 224:Middlewares/Third_Party/FreeRTOS/Source/CMSIS_RTOS_V2/cmsis_os2.c ****   osKernelState_t state;
 218              		.loc 1 224 0
 219              		.cfi_startproc
 220              		@ args = 0, pretend = 0, frame = 0
 221              		@ frame_needed = 0, uses_anonymous_args = 0
 222 0000 08B5     		push	{r3, lr}
 223              	.LCFI2:
 224              		.cfi_def_cfa_offset 8
 225              		.cfi_offset 3, -8
 226              		.cfi_offset 14, -4
 227:Middlewares/Third_Party/FreeRTOS/Source/CMSIS_RTOS_V2/cmsis_os2.c ****     case taskSCHEDULER_RUNNING:
 227              		.loc 1 227 0
 228 0002 FFF7FEFF 		bl	xTaskGetSchedulerState
 229              	.LVL13:
ARM GAS  /tmp/ccZrYRqG.s 			page 29


 230 0006 50B1     		cbz	r0, .L25
 231 0008 0228     		cmp	r0, #2
 232 000a 01D1     		bne	.L27
 229:Middlewares/Third_Party/FreeRTOS/Source/CMSIS_RTOS_V2/cmsis_os2.c ****       break;
 233              		.loc 1 229 0
 234 000c 0220     		movs	r0, #2
 235 000e 08BD     		pop	{r3, pc}
 236              	.L27:
 238:Middlewares/Third_Party/FreeRTOS/Source/CMSIS_RTOS_V2/cmsis_os2.c ****         state = osKernelReady;
 237              		.loc 1 238 0
 238 0010 044B     		ldr	r3, .L30
 239 0012 1868     		ldr	r0, [r3]
 240 0014 0128     		cmp	r0, #1
 241 0016 01D0     		beq	.L29
 241:Middlewares/Third_Party/FreeRTOS/Source/CMSIS_RTOS_V2/cmsis_os2.c ****       }
 242              		.loc 1 241 0
 243 0018 0020     		movs	r0, #0
 244              	.LVL14:
 247:Middlewares/Third_Party/FreeRTOS/Source/CMSIS_RTOS_V2/cmsis_os2.c **** 
 245              		.loc 1 247 0
 246 001a 08BD     		pop	{r3, pc}
 247              	.LVL15:
 248              	.L29:
 249 001c 08BD     		pop	{r3, pc}
 250              	.L25:
 233:Middlewares/Third_Party/FreeRTOS/Source/CMSIS_RTOS_V2/cmsis_os2.c ****       break;
 251              		.loc 1 233 0
 252 001e 0320     		movs	r0, #3
 253 0020 08BD     		pop	{r3, pc}
 254              	.L31:
 255 0022 00BF     		.align	2
 256              	.L30:
 257 0024 00000000 		.word	.LANCHOR0
 258              		.cfi_endproc
 259              	.LFE109:
 261              		.section	.text.osKernelStart,"ax",%progbits
 262              		.align	1
 263              		.global	osKernelStart
 264              		.syntax unified
 265              		.thumb
 266              		.thumb_func
 267              		.fpu fpv4-sp-d16
 269              	osKernelStart:
 270              	.LFB110:
 249:Middlewares/Third_Party/FreeRTOS/Source/CMSIS_RTOS_V2/cmsis_os2.c ****   osStatus_t stat;
 271              		.loc 1 249 0
 272              		.cfi_startproc
 273              		@ args = 0, pretend = 0, frame = 0
 274              		@ frame_needed = 0, uses_anonymous_args = 0
 275 0000 08B5     		push	{r3, lr}
 276              	.LCFI3:
 277              		.cfi_def_cfa_offset 8
 278              		.cfi_offset 3, -8
 279              		.cfi_offset 14, -4
 280              	.LBB346:
 281              	.LBB347:
 209:Drivers/CMSIS/Include/cmsis_gcc.h ****   return(result);
ARM GAS  /tmp/ccZrYRqG.s 			page 30


 282              		.loc 2 209 0
 283              		.syntax unified
 284              	@ 209 "Drivers/CMSIS/Include/cmsis_gcc.h" 1
 285 0002 EFF30583 		MRS r3, ipsr
 286              	@ 0 "" 2
 287              		.thumb
 288              		.syntax unified
 289              	.LBE347:
 290              	.LBE346:
 252:Middlewares/Third_Party/FreeRTOS/Source/CMSIS_RTOS_V2/cmsis_os2.c ****     stat = osErrorISR;
 291              		.loc 1 252 0
 292 0006 A3B9     		cbnz	r3, .L36
 293              	.LBB348:
 294              	.LBB349:
 386:Drivers/CMSIS/Include/cmsis_gcc.h ****   return(result);
 295              		.loc 2 386 0
 296              		.syntax unified
 297              	@ 386 "Drivers/CMSIS/Include/cmsis_gcc.h" 1
 298 0008 EFF31083 		MRS r3, primask
 299              	@ 0 "" 2
 300              		.thumb
 301              		.syntax unified
 302              	.LBE349:
 303              	.LBE348:
 252:Middlewares/Third_Party/FreeRTOS/Source/CMSIS_RTOS_V2/cmsis_os2.c ****     stat = osErrorISR;
 304              		.loc 1 252 0
 305 000c 13B9     		cbnz	r3, .L34
 306              	.LBB350:
 307              	.LBB351:
 308              		.loc 2 465 0
 309              		.syntax unified
 310              	@ 465 "Drivers/CMSIS/Include/cmsis_gcc.h" 1
 311 000e EFF31183 		MRS r3, basepri
 312              	@ 0 "" 2
 313              		.thumb
 314              		.syntax unified
 315              	.LBE351:
 316              	.LBE350:
 252:Middlewares/Third_Party/FreeRTOS/Source/CMSIS_RTOS_V2/cmsis_os2.c ****     stat = osErrorISR;
 317              		.loc 1 252 0
 318 0012 1BB1     		cbz	r3, .L35
 319              	.L34:
 252:Middlewares/Third_Party/FreeRTOS/Source/CMSIS_RTOS_V2/cmsis_os2.c ****     stat = osErrorISR;
 320              		.loc 1 252 0 is_stmt 0 discriminator 4
 321 0014 0B4B     		ldr	r3, .L40
 322 0016 1B68     		ldr	r3, [r3]
 323 0018 022B     		cmp	r3, #2
 324 001a 0DD0     		beq	.L37
 325              	.L35:
 256:Middlewares/Third_Party/FreeRTOS/Source/CMSIS_RTOS_V2/cmsis_os2.c ****       /* Ensure SVC priority is at the reset value */
 326              		.loc 1 256 0 is_stmt 1
 327 001c 094B     		ldr	r3, .L40
 328 001e 1B68     		ldr	r3, [r3]
 329 0020 012B     		cmp	r3, #1
 330 0022 0CD1     		bne	.L38
 260:Middlewares/Third_Party/FreeRTOS/Source/CMSIS_RTOS_V2/cmsis_os2.c ****       /* Start the kernel scheduler */
 331              		.loc 1 260 0
ARM GAS  /tmp/ccZrYRqG.s 			page 31


 332 0024 0222     		movs	r2, #2
 333 0026 074B     		ldr	r3, .L40
 334 0028 1A60     		str	r2, [r3]
 262:Middlewares/Third_Party/FreeRTOS/Source/CMSIS_RTOS_V2/cmsis_os2.c ****       stat = osOK;
 335              		.loc 1 262 0
 336 002a FFF7FEFF 		bl	vTaskStartScheduler
 337              	.LVL16:
 263:Middlewares/Third_Party/FreeRTOS/Source/CMSIS_RTOS_V2/cmsis_os2.c ****     } else {
 338              		.loc 1 263 0
 339 002e 0020     		movs	r0, #0
 340 0030 08BD     		pop	{r3, pc}
 341              	.LVL17:
 342              	.L36:
 253:Middlewares/Third_Party/FreeRTOS/Source/CMSIS_RTOS_V2/cmsis_os2.c ****   }
 343              		.loc 1 253 0
 344 0032 6FF00500 		mvn	r0, #5
 345 0036 08BD     		pop	{r3, pc}
 346              	.L37:
 347 0038 6FF00500 		mvn	r0, #5
 348 003c 08BD     		pop	{r3, pc}
 349              	.L38:
 265:Middlewares/Third_Party/FreeRTOS/Source/CMSIS_RTOS_V2/cmsis_os2.c ****     }
 350              		.loc 1 265 0
 351 003e 4FF0FF30 		mov	r0, #-1
 352              	.LVL18:
 270:Middlewares/Third_Party/FreeRTOS/Source/CMSIS_RTOS_V2/cmsis_os2.c **** 
 353              		.loc 1 270 0
 354 0042 08BD     		pop	{r3, pc}
 355              	.L41:
 356              		.align	2
 357              	.L40:
 358 0044 00000000 		.word	.LANCHOR0
 359              		.cfi_endproc
 360              	.LFE110:
 362              		.section	.text.osKernelLock,"ax",%progbits
 363              		.align	1
 364              		.global	osKernelLock
 365              		.syntax unified
 366              		.thumb
 367              		.thumb_func
 368              		.fpu fpv4-sp-d16
 370              	osKernelLock:
 371              	.LFB111:
 272:Middlewares/Third_Party/FreeRTOS/Source/CMSIS_RTOS_V2/cmsis_os2.c ****   int32_t lock;
 372              		.loc 1 272 0
 373              		.cfi_startproc
 374              		@ args = 0, pretend = 0, frame = 0
 375              		@ frame_needed = 0, uses_anonymous_args = 0
 376 0000 08B5     		push	{r3, lr}
 377              	.LCFI4:
 378              		.cfi_def_cfa_offset 8
 379              		.cfi_offset 3, -8
 380              		.cfi_offset 14, -4
 381              	.LBB352:
 382              	.LBB353:
 209:Drivers/CMSIS/Include/cmsis_gcc.h ****   return(result);
 383              		.loc 2 209 0
ARM GAS  /tmp/ccZrYRqG.s 			page 32


 384              		.syntax unified
 385              	@ 209 "Drivers/CMSIS/Include/cmsis_gcc.h" 1
 386 0002 EFF30583 		MRS r3, ipsr
 387              	@ 0 "" 2
 388              		.thumb
 389              		.syntax unified
 390              	.LBE353:
 391              	.LBE352:
 275:Middlewares/Third_Party/FreeRTOS/Source/CMSIS_RTOS_V2/cmsis_os2.c ****     lock = (int32_t)osErrorISR;
 392              		.loc 1 275 0
 393 0006 BBB9     		cbnz	r3, .L48
 394              	.LBB354:
 395              	.LBB355:
 386:Drivers/CMSIS/Include/cmsis_gcc.h ****   return(result);
 396              		.loc 2 386 0
 397              		.syntax unified
 398              	@ 386 "Drivers/CMSIS/Include/cmsis_gcc.h" 1
 399 0008 EFF31083 		MRS r3, primask
 400              	@ 0 "" 2
 401              		.thumb
 402              		.syntax unified
 403              	.LBE355:
 404              	.LBE354:
 275:Middlewares/Third_Party/FreeRTOS/Source/CMSIS_RTOS_V2/cmsis_os2.c ****     lock = (int32_t)osErrorISR;
 405              		.loc 1 275 0
 406 000c 13B9     		cbnz	r3, .L44
 407              	.LBB356:
 408              	.LBB357:
 409              		.loc 2 465 0
 410              		.syntax unified
 411              	@ 465 "Drivers/CMSIS/Include/cmsis_gcc.h" 1
 412 000e EFF31183 		MRS r3, basepri
 413              	@ 0 "" 2
 414              		.thumb
 415              		.syntax unified
 416              	.LBE357:
 417              	.LBE356:
 275:Middlewares/Third_Party/FreeRTOS/Source/CMSIS_RTOS_V2/cmsis_os2.c ****     lock = (int32_t)osErrorISR;
 418              		.loc 1 275 0
 419 0012 1BB1     		cbz	r3, .L45
 420              	.L44:
 275:Middlewares/Third_Party/FreeRTOS/Source/CMSIS_RTOS_V2/cmsis_os2.c ****     lock = (int32_t)osErrorISR;
 421              		.loc 1 275 0 is_stmt 0 discriminator 4
 422 0014 0B4B     		ldr	r3, .L53
 423 0016 1B68     		ldr	r3, [r3]
 424 0018 022B     		cmp	r3, #2
 425 001a 10D0     		beq	.L49
 426              	.L45:
 279:Middlewares/Third_Party/FreeRTOS/Source/CMSIS_RTOS_V2/cmsis_os2.c ****       case taskSCHEDULER_SUSPENDED:
 427              		.loc 1 279 0 is_stmt 1
 428 001c FFF7FEFF 		bl	xTaskGetSchedulerState
 429              	.LVL19:
 430 0020 20B1     		cbz	r0, .L46
 431 0022 0228     		cmp	r0, #2
 432 0024 04D0     		beq	.L47
 291:Middlewares/Third_Party/FreeRTOS/Source/CMSIS_RTOS_V2/cmsis_os2.c ****         break;
 433              		.loc 1 291 0
ARM GAS  /tmp/ccZrYRqG.s 			page 33


 434 0026 4FF0FF30 		mov	r0, #-1
 435              	.LVL20:
 297:Middlewares/Third_Party/FreeRTOS/Source/CMSIS_RTOS_V2/cmsis_os2.c **** 
 436              		.loc 1 297 0
 437 002a 08BD     		pop	{r3, pc}
 438              	.LVL21:
 439              	.L46:
 281:Middlewares/Third_Party/FreeRTOS/Source/CMSIS_RTOS_V2/cmsis_os2.c ****         break;
 440              		.loc 1 281 0
 441 002c 0120     		movs	r0, #1
 442 002e 08BD     		pop	{r3, pc}
 443              	.L47:
 285:Middlewares/Third_Party/FreeRTOS/Source/CMSIS_RTOS_V2/cmsis_os2.c ****         lock = 0;
 444              		.loc 1 285 0
 445 0030 FFF7FEFF 		bl	vTaskSuspendAll
 446              	.LVL22:
 286:Middlewares/Third_Party/FreeRTOS/Source/CMSIS_RTOS_V2/cmsis_os2.c ****         break;
 447              		.loc 1 286 0
 448 0034 0020     		movs	r0, #0
 287:Middlewares/Third_Party/FreeRTOS/Source/CMSIS_RTOS_V2/cmsis_os2.c **** 
 449              		.loc 1 287 0
 450 0036 08BD     		pop	{r3, pc}
 451              	.LVL23:
 452              	.L48:
 276:Middlewares/Third_Party/FreeRTOS/Source/CMSIS_RTOS_V2/cmsis_os2.c ****   }
 453              		.loc 1 276 0
 454 0038 6FF00500 		mvn	r0, #5
 455 003c 08BD     		pop	{r3, pc}
 456              	.L49:
 457 003e 6FF00500 		mvn	r0, #5
 458 0042 08BD     		pop	{r3, pc}
 459              	.L54:
 460              		.align	2
 461              	.L53:
 462 0044 00000000 		.word	.LANCHOR0
 463              		.cfi_endproc
 464              	.LFE111:
 466              		.section	.text.osKernelUnlock,"ax",%progbits
 467              		.align	1
 468              		.global	osKernelUnlock
 469              		.syntax unified
 470              		.thumb
 471              		.thumb_func
 472              		.fpu fpv4-sp-d16
 474              	osKernelUnlock:
 475              	.LFB112:
 299:Middlewares/Third_Party/FreeRTOS/Source/CMSIS_RTOS_V2/cmsis_os2.c ****   int32_t lock;
 476              		.loc 1 299 0
 477              		.cfi_startproc
 478              		@ args = 0, pretend = 0, frame = 0
 479              		@ frame_needed = 0, uses_anonymous_args = 0
 480 0000 08B5     		push	{r3, lr}
 481              	.LCFI5:
 482              		.cfi_def_cfa_offset 8
 483              		.cfi_offset 3, -8
 484              		.cfi_offset 14, -4
 485              	.LBB358:
ARM GAS  /tmp/ccZrYRqG.s 			page 34


 486              	.LBB359:
 209:Drivers/CMSIS/Include/cmsis_gcc.h ****   return(result);
 487              		.loc 2 209 0
 488              		.syntax unified
 489              	@ 209 "Drivers/CMSIS/Include/cmsis_gcc.h" 1
 490 0002 EFF30583 		MRS r3, ipsr
 491              	@ 0 "" 2
 492              		.thumb
 493              		.syntax unified
 494              	.LBE359:
 495              	.LBE358:
 302:Middlewares/Third_Party/FreeRTOS/Source/CMSIS_RTOS_V2/cmsis_os2.c ****     lock = (int32_t)osErrorISR;
 496              		.loc 1 302 0
 497 0006 CBB9     		cbnz	r3, .L61
 498              	.LBB360:
 499              	.LBB361:
 386:Drivers/CMSIS/Include/cmsis_gcc.h ****   return(result);
 500              		.loc 2 386 0
 501              		.syntax unified
 502              	@ 386 "Drivers/CMSIS/Include/cmsis_gcc.h" 1
 503 0008 EFF31083 		MRS r3, primask
 504              	@ 0 "" 2
 505              		.thumb
 506              		.syntax unified
 507              	.LBE361:
 508              	.LBE360:
 302:Middlewares/Third_Party/FreeRTOS/Source/CMSIS_RTOS_V2/cmsis_os2.c ****     lock = (int32_t)osErrorISR;
 509              		.loc 1 302 0
 510 000c 13B9     		cbnz	r3, .L57
 511              	.LBB362:
 512              	.LBB363:
 513              		.loc 2 465 0
 514              		.syntax unified
 515              	@ 465 "Drivers/CMSIS/Include/cmsis_gcc.h" 1
 516 000e EFF31183 		MRS r3, basepri
 517              	@ 0 "" 2
 518              		.thumb
 519              		.syntax unified
 520              	.LBE363:
 521              	.LBE362:
 302:Middlewares/Third_Party/FreeRTOS/Source/CMSIS_RTOS_V2/cmsis_os2.c ****     lock = (int32_t)osErrorISR;
 522              		.loc 1 302 0
 523 0012 1BB1     		cbz	r3, .L58
 524              	.L57:
 302:Middlewares/Third_Party/FreeRTOS/Source/CMSIS_RTOS_V2/cmsis_os2.c ****     lock = (int32_t)osErrorISR;
 525              		.loc 1 302 0 is_stmt 0 discriminator 4
 526 0014 104B     		ldr	r3, .L68
 527 0016 1B68     		ldr	r3, [r3]
 528 0018 022B     		cmp	r3, #2
 529 001a 12D0     		beq	.L62
 530              	.L58:
 306:Middlewares/Third_Party/FreeRTOS/Source/CMSIS_RTOS_V2/cmsis_os2.c ****       case taskSCHEDULER_SUSPENDED:
 531              		.loc 1 306 0 is_stmt 1
 532 001c FFF7FEFF 		bl	xTaskGetSchedulerState
 533              	.LVL24:
 534 0020 18B1     		cbz	r0, .L59
 535 0022 0228     		cmp	r0, #2
ARM GAS  /tmp/ccZrYRqG.s 			page 35


 536 0024 10D1     		bne	.L66
 318:Middlewares/Third_Party/FreeRTOS/Source/CMSIS_RTOS_V2/cmsis_os2.c ****         break;
 537              		.loc 1 318 0
 538 0026 0020     		movs	r0, #0
 539 0028 08BD     		pop	{r3, pc}
 540              	.L59:
 541              	.LVL25:
 310:Middlewares/Third_Party/FreeRTOS/Source/CMSIS_RTOS_V2/cmsis_os2.c ****           if (xTaskGetSchedulerState() == taskSCHEDULER_SUSPENDED) {
 542              		.loc 1 310 0
 543 002a FFF7FEFF 		bl	xTaskResumeAll
 544              	.LVL26:
 545 002e 0128     		cmp	r0, #1
 546 0030 0DD0     		beq	.L64
 311:Middlewares/Third_Party/FreeRTOS/Source/CMSIS_RTOS_V2/cmsis_os2.c ****             lock = (int32_t)osError;
 547              		.loc 1 311 0
 548 0032 FFF7FEFF 		bl	xTaskGetSchedulerState
 549              	.LVL27:
 550 0036 60B1     		cbz	r0, .L65
 308:Middlewares/Third_Party/FreeRTOS/Source/CMSIS_RTOS_V2/cmsis_os2.c **** 
 551              		.loc 1 308 0
 552 0038 0120     		movs	r0, #1
 553 003a 08BD     		pop	{r3, pc}
 554              	.LVL28:
 555              	.L61:
 303:Middlewares/Third_Party/FreeRTOS/Source/CMSIS_RTOS_V2/cmsis_os2.c ****   }
 556              		.loc 1 303 0
 557 003c 6FF00500 		mvn	r0, #5
 558 0040 08BD     		pop	{r3, pc}
 559              	.L62:
 560 0042 6FF00500 		mvn	r0, #5
 561 0046 08BD     		pop	{r3, pc}
 562              	.L66:
 323:Middlewares/Third_Party/FreeRTOS/Source/CMSIS_RTOS_V2/cmsis_os2.c ****         break;
 563              		.loc 1 323 0
 564 0048 4FF0FF30 		mov	r0, #-1
 565 004c 08BD     		pop	{r3, pc}
 566              	.LVL29:
 567              	.L64:
 308:Middlewares/Third_Party/FreeRTOS/Source/CMSIS_RTOS_V2/cmsis_os2.c **** 
 568              		.loc 1 308 0
 569 004e 0120     		movs	r0, #1
 570 0050 08BD     		pop	{r3, pc}
 571              	.L65:
 312:Middlewares/Third_Party/FreeRTOS/Source/CMSIS_RTOS_V2/cmsis_os2.c ****           }
 572              		.loc 1 312 0
 573 0052 4FF0FF30 		mov	r0, #-1
 574              	.LVL30:
 329:Middlewares/Third_Party/FreeRTOS/Source/CMSIS_RTOS_V2/cmsis_os2.c **** 
 575              		.loc 1 329 0
 576 0056 08BD     		pop	{r3, pc}
 577              	.L69:
 578              		.align	2
 579              	.L68:
 580 0058 00000000 		.word	.LANCHOR0
 581              		.cfi_endproc
 582              	.LFE112:
 584              		.section	.text.osKernelRestoreLock,"ax",%progbits
ARM GAS  /tmp/ccZrYRqG.s 			page 36


 585              		.align	1
 586              		.global	osKernelRestoreLock
 587              		.syntax unified
 588              		.thumb
 589              		.thumb_func
 590              		.fpu fpv4-sp-d16
 592              	osKernelRestoreLock:
 593              	.LFB113:
 331:Middlewares/Third_Party/FreeRTOS/Source/CMSIS_RTOS_V2/cmsis_os2.c **** 
 594              		.loc 1 331 0
 595              		.cfi_startproc
 596              		@ args = 0, pretend = 0, frame = 0
 597              		@ frame_needed = 0, uses_anonymous_args = 0
 598              	.LVL31:
 599 0000 10B5     		push	{r4, lr}
 600              	.LCFI6:
 601              		.cfi_def_cfa_offset 8
 602              		.cfi_offset 4, -8
 603              		.cfi_offset 14, -4
 604              	.LBB364:
 605              	.LBB365:
 209:Drivers/CMSIS/Include/cmsis_gcc.h ****   return(result);
 606              		.loc 2 209 0
 607              		.syntax unified
 608              	@ 209 "Drivers/CMSIS/Include/cmsis_gcc.h" 1
 609 0002 EFF30583 		MRS r3, ipsr
 610              	@ 0 "" 2
 611              		.thumb
 612              		.syntax unified
 613              	.LBE365:
 614              	.LBE364:
 333:Middlewares/Third_Party/FreeRTOS/Source/CMSIS_RTOS_V2/cmsis_os2.c ****     lock = (int32_t)osErrorISR;
 615              		.loc 1 333 0
 616 0006 FBB9     		cbnz	r3, .L76
 617 0008 0446     		mov	r4, r0
 618              	.LBB366:
 619              	.LBB367:
 386:Drivers/CMSIS/Include/cmsis_gcc.h ****   return(result);
 620              		.loc 2 386 0
 621              		.syntax unified
 622              	@ 386 "Drivers/CMSIS/Include/cmsis_gcc.h" 1
 623 000a EFF31083 		MRS r3, primask
 624              	@ 0 "" 2
 625              		.thumb
 626              		.syntax unified
 627              	.LBE367:
 628              	.LBE366:
 333:Middlewares/Third_Party/FreeRTOS/Source/CMSIS_RTOS_V2/cmsis_os2.c ****     lock = (int32_t)osErrorISR;
 629              		.loc 1 333 0
 630 000e 13B9     		cbnz	r3, .L72
 631              	.LBB368:
 632              	.LBB369:
 633              		.loc 2 465 0
 634              		.syntax unified
 635              	@ 465 "Drivers/CMSIS/Include/cmsis_gcc.h" 1
 636 0010 EFF31183 		MRS r3, basepri
 637              	@ 0 "" 2
ARM GAS  /tmp/ccZrYRqG.s 			page 37


 638              		.thumb
 639              		.syntax unified
 640              	.LBE369:
 641              	.LBE368:
 333:Middlewares/Third_Party/FreeRTOS/Source/CMSIS_RTOS_V2/cmsis_os2.c ****     lock = (int32_t)osErrorISR;
 642              		.loc 1 333 0
 643 0014 1BB1     		cbz	r3, .L73
 644              	.L72:
 333:Middlewares/Third_Party/FreeRTOS/Source/CMSIS_RTOS_V2/cmsis_os2.c ****     lock = (int32_t)osErrorISR;
 645              		.loc 1 333 0 is_stmt 0 discriminator 4
 646 0016 144B     		ldr	r3, .L85
 647 0018 1B68     		ldr	r3, [r3]
 648 001a 022B     		cmp	r3, #2
 649 001c 17D0     		beq	.L77
 650              	.L73:
 337:Middlewares/Third_Party/FreeRTOS/Source/CMSIS_RTOS_V2/cmsis_os2.c ****       case taskSCHEDULER_SUSPENDED:
 651              		.loc 1 337 0 is_stmt 1
 652 001e FFF7FEFF 		bl	xTaskGetSchedulerState
 653              	.LVL32:
 654 0022 08B1     		cbz	r0, .L74
 655 0024 0228     		cmp	r0, #2
 656 0026 15D1     		bne	.L81
 657              	.L74:
 340:Middlewares/Third_Party/FreeRTOS/Source/CMSIS_RTOS_V2/cmsis_os2.c ****           vTaskSuspendAll();
 658              		.loc 1 340 0
 659 0028 012C     		cmp	r4, #1
 660 002a 0AD0     		beq	.L83
 344:Middlewares/Third_Party/FreeRTOS/Source/CMSIS_RTOS_V2/cmsis_os2.c ****             lock = (int32_t)osError;
 661              		.loc 1 344 0
 662 002c ACB9     		cbnz	r4, .L79
 348:Middlewares/Third_Party/FreeRTOS/Source/CMSIS_RTOS_V2/cmsis_os2.c ****               if (xTaskGetSchedulerState() != taskSCHEDULER_RUNNING) {
 663              		.loc 1 348 0
 664 002e FFF7FEFF 		bl	xTaskResumeAll
 665              	.LVL33:
 666 0032 0128     		cmp	r0, #1
 667 0034 03D0     		beq	.L71
 349:Middlewares/Third_Party/FreeRTOS/Source/CMSIS_RTOS_V2/cmsis_os2.c ****                 lock = (int32_t)osError;
 668              		.loc 1 349 0
 669 0036 FFF7FEFF 		bl	xTaskGetSchedulerState
 670              	.LVL34:
 671 003a 0228     		cmp	r0, #2
 672 003c 10D1     		bne	.L84
 673              	.LVL35:
 674              	.L71:
 365:Middlewares/Third_Party/FreeRTOS/Source/CMSIS_RTOS_V2/cmsis_os2.c **** 
 675              		.loc 1 365 0
 676 003e 2046     		mov	r0, r4
 677 0040 10BD     		pop	{r4, pc}
 678              	.LVL36:
 679              	.L83:
 341:Middlewares/Third_Party/FreeRTOS/Source/CMSIS_RTOS_V2/cmsis_os2.c ****         }
 680              		.loc 1 341 0
 681 0042 FFF7FEFF 		bl	vTaskSuspendAll
 682              	.LVL37:
 683 0046 FAE7     		b	.L71
 684              	.LVL38:
 685              	.L76:
ARM GAS  /tmp/ccZrYRqG.s 			page 38


 334:Middlewares/Third_Party/FreeRTOS/Source/CMSIS_RTOS_V2/cmsis_os2.c ****   }
 686              		.loc 1 334 0
 687 0048 6FF00504 		mvn	r4, #5
 688 004c F7E7     		b	.L71
 689              	.L77:
 690 004e 6FF00504 		mvn	r4, #5
 691 0052 F4E7     		b	.L71
 692              	.LVL39:
 693              	.L81:
 359:Middlewares/Third_Party/FreeRTOS/Source/CMSIS_RTOS_V2/cmsis_os2.c ****         break;
 694              		.loc 1 359 0
 695 0054 4FF0FF34 		mov	r4, #-1
 696              	.LVL40:
 697 0058 F1E7     		b	.L71
 698              	.LVL41:
 699              	.L79:
 345:Middlewares/Third_Party/FreeRTOS/Source/CMSIS_RTOS_V2/cmsis_os2.c ****           }
 700              		.loc 1 345 0
 701 005a 4FF0FF34 		mov	r4, #-1
 702              	.LVL42:
 703 005e EEE7     		b	.L71
 704              	.LVL43:
 705              	.L84:
 350:Middlewares/Third_Party/FreeRTOS/Source/CMSIS_RTOS_V2/cmsis_os2.c ****               }
 706              		.loc 1 350 0
 707 0060 4FF0FF34 		mov	r4, #-1
 708              	.LVL44:
 709 0064 EBE7     		b	.L71
 710              	.L86:
 711 0066 00BF     		.align	2
 712              	.L85:
 713 0068 00000000 		.word	.LANCHOR0
 714              		.cfi_endproc
 715              	.LFE113:
 717              		.section	.text.osKernelGetTickCount,"ax",%progbits
 718              		.align	1
 719              		.global	osKernelGetTickCount
 720              		.syntax unified
 721              		.thumb
 722              		.thumb_func
 723              		.fpu fpv4-sp-d16
 725              	osKernelGetTickCount:
 726              	.LFB114:
 367:Middlewares/Third_Party/FreeRTOS/Source/CMSIS_RTOS_V2/cmsis_os2.c ****   TickType_t ticks;
 727              		.loc 1 367 0
 728              		.cfi_startproc
 729              		@ args = 0, pretend = 0, frame = 0
 730              		@ frame_needed = 0, uses_anonymous_args = 0
 731 0000 08B5     		push	{r3, lr}
 732              	.LCFI7:
 733              		.cfi_def_cfa_offset 8
 734              		.cfi_offset 3, -8
 735              		.cfi_offset 14, -4
 736              	.LBB370:
 737              	.LBB371:
 209:Drivers/CMSIS/Include/cmsis_gcc.h ****   return(result);
 738              		.loc 2 209 0
ARM GAS  /tmp/ccZrYRqG.s 			page 39


 739              		.syntax unified
 740              	@ 209 "Drivers/CMSIS/Include/cmsis_gcc.h" 1
 741 0002 EFF30583 		MRS r3, ipsr
 742              	@ 0 "" 2
 743              		.thumb
 744              		.syntax unified
 745              	.LBE371:
 746              	.LBE370:
 370:Middlewares/Third_Party/FreeRTOS/Source/CMSIS_RTOS_V2/cmsis_os2.c ****     ticks = xTaskGetTickCountFromISR();
 747              		.loc 1 370 0
 748 0006 63B9     		cbnz	r3, .L88
 749              	.LBB372:
 750              	.LBB373:
 386:Drivers/CMSIS/Include/cmsis_gcc.h ****   return(result);
 751              		.loc 2 386 0
 752              		.syntax unified
 753              	@ 386 "Drivers/CMSIS/Include/cmsis_gcc.h" 1
 754 0008 EFF31083 		MRS r3, primask
 755              	@ 0 "" 2
 756              		.thumb
 757              		.syntax unified
 758              	.LBE373:
 759              	.LBE372:
 370:Middlewares/Third_Party/FreeRTOS/Source/CMSIS_RTOS_V2/cmsis_os2.c ****     ticks = xTaskGetTickCountFromISR();
 760              		.loc 1 370 0
 761 000c 13B9     		cbnz	r3, .L89
 762              	.LBB374:
 763              	.LBB375:
 764              		.loc 2 465 0
 765              		.syntax unified
 766              	@ 465 "Drivers/CMSIS/Include/cmsis_gcc.h" 1
 767 000e EFF31183 		MRS r3, basepri
 768              	@ 0 "" 2
 769              		.thumb
 770              		.syntax unified
 771              	.LBE375:
 772              	.LBE374:
 370:Middlewares/Third_Party/FreeRTOS/Source/CMSIS_RTOS_V2/cmsis_os2.c ****     ticks = xTaskGetTickCountFromISR();
 773              		.loc 1 370 0
 774 0012 1BB1     		cbz	r3, .L90
 775              	.L89:
 370:Middlewares/Third_Party/FreeRTOS/Source/CMSIS_RTOS_V2/cmsis_os2.c ****     ticks = xTaskGetTickCountFromISR();
 776              		.loc 1 370 0 is_stmt 0 discriminator 4
 777 0014 044B     		ldr	r3, .L93
 778 0016 1B68     		ldr	r3, [r3]
 779 0018 022B     		cmp	r3, #2
 780 001a 02D0     		beq	.L88
 781              	.L90:
 373:Middlewares/Third_Party/FreeRTOS/Source/CMSIS_RTOS_V2/cmsis_os2.c ****   }
 782              		.loc 1 373 0 is_stmt 1
 783 001c FFF7FEFF 		bl	xTaskGetTickCount
 784              	.LVL45:
 377:Middlewares/Third_Party/FreeRTOS/Source/CMSIS_RTOS_V2/cmsis_os2.c **** 
 785              		.loc 1 377 0
 786 0020 08BD     		pop	{r3, pc}
 787              	.LVL46:
 788              	.L88:
ARM GAS  /tmp/ccZrYRqG.s 			page 40


 371:Middlewares/Third_Party/FreeRTOS/Source/CMSIS_RTOS_V2/cmsis_os2.c ****   } else {
 789              		.loc 1 371 0
 790 0022 FFF7FEFF 		bl	xTaskGetTickCountFromISR
 791              	.LVL47:
 792 0026 08BD     		pop	{r3, pc}
 793              	.L94:
 794              		.align	2
 795              	.L93:
 796 0028 00000000 		.word	.LANCHOR0
 797              		.cfi_endproc
 798              	.LFE114:
 800              		.section	.text.osKernelGetTickFreq,"ax",%progbits
 801              		.align	1
 802              		.global	osKernelGetTickFreq
 803              		.syntax unified
 804              		.thumb
 805              		.thumb_func
 806              		.fpu fpv4-sp-d16
 808              	osKernelGetTickFreq:
 809              	.LFB115:
 379:Middlewares/Third_Party/FreeRTOS/Source/CMSIS_RTOS_V2/cmsis_os2.c ****   return (configTICK_RATE_HZ);
 810              		.loc 1 379 0
 811              		.cfi_startproc
 812              		@ args = 0, pretend = 0, frame = 0
 813              		@ frame_needed = 0, uses_anonymous_args = 0
 814              		@ link register save eliminated.
 381:Middlewares/Third_Party/FreeRTOS/Source/CMSIS_RTOS_V2/cmsis_os2.c **** 
 815              		.loc 1 381 0
 816 0000 4FF47A70 		mov	r0, #1000
 817 0004 7047     		bx	lr
 818              		.cfi_endproc
 819              	.LFE115:
 821              		.section	.text.osKernelGetSysTimerCount,"ax",%progbits
 822              		.align	1
 823              		.global	osKernelGetSysTimerCount
 824              		.syntax unified
 825              		.thumb
 826              		.thumb_func
 827              		.fpu fpv4-sp-d16
 829              	osKernelGetSysTimerCount:
 830              	.LFB116:
 383:Middlewares/Third_Party/FreeRTOS/Source/CMSIS_RTOS_V2/cmsis_os2.c ****   uint32_t irqmask = IS_IRQ_MASKED();
 831              		.loc 1 383 0
 832              		.cfi_startproc
 833              		@ args = 0, pretend = 0, frame = 0
 834              		@ frame_needed = 0, uses_anonymous_args = 0
 835 0000 10B5     		push	{r4, lr}
 836              	.LCFI8:
 837              		.cfi_def_cfa_offset 8
 838              		.cfi_offset 4, -8
 839              		.cfi_offset 14, -4
 840              	.LBB376:
 841              	.LBB377:
 386:Drivers/CMSIS/Include/cmsis_gcc.h ****   return(result);
 842              		.loc 2 386 0
 843              		.syntax unified
 844              	@ 386 "Drivers/CMSIS/Include/cmsis_gcc.h" 1
ARM GAS  /tmp/ccZrYRqG.s 			page 41


 845 0002 EFF31083 		MRS r3, primask
 846              	@ 0 "" 2
 847              		.thumb
 848              		.syntax unified
 849              	.LBE377:
 850              	.LBE376:
 384:Middlewares/Third_Party/FreeRTOS/Source/CMSIS_RTOS_V2/cmsis_os2.c ****   TickType_t ticks;
 851              		.loc 1 384 0
 852 0006 23B9     		cbnz	r3, .L99
 853              	.LBB378:
 854              	.LBB379:
 855              		.loc 2 465 0
 856              		.syntax unified
 857              	@ 465 "Drivers/CMSIS/Include/cmsis_gcc.h" 1
 858 0008 EFF31183 		MRS r3, basepri
 859              	@ 0 "" 2
 860              		.thumb
 861              		.syntax unified
 862              	.LBE379:
 863              	.LBE378:
 384:Middlewares/Third_Party/FreeRTOS/Source/CMSIS_RTOS_V2/cmsis_os2.c ****   TickType_t ticks;
 864              		.loc 1 384 0
 865 000c 83B9     		cbnz	r3, .L100
 866 000e 0024     		movs	r4, #0
 867 0010 00E0     		b	.L97
 868              	.L99:
 869 0012 0124     		movs	r4, #1
 870              	.L97:
 871              	.LVL48:
 872              	.LBB380:
 873              	.LBB381:
 142:Drivers/CMSIS/Include/cmsis_gcc.h **** }
 874              		.loc 2 142 0 discriminator 6
 875              		.syntax unified
 876              	@ 142 "Drivers/CMSIS/Include/cmsis_gcc.h" 1
 877 0014 72B6     		cpsid i
 878              	@ 0 "" 2
 879              		.thumb
 880              		.syntax unified
 881              	.LBE381:
 882              	.LBE380:
 390:Middlewares/Third_Party/FreeRTOS/Source/CMSIS_RTOS_V2/cmsis_os2.c **** 
 883              		.loc 1 390 0 discriminator 6
 884 0016 FFF7FEFF 		bl	xTaskGetTickCount
 885              	.LVL49:
 392:Middlewares/Third_Party/FreeRTOS/Source/CMSIS_RTOS_V2/cmsis_os2.c ****   if (irqmask == 0U) {
 886              		.loc 1 392 0 discriminator 6
 887 001a 064B     		ldr	r3, .L102
 888 001c 1B68     		ldr	r3, [r3]
 889 001e 064A     		ldr	r2, .L102+4
 890 0020 A2FB0323 		umull	r2, r3, r2, r3
 891 0024 9B09     		lsrs	r3, r3, #6
 892 0026 03FB00F0 		mul	r0, r3, r0
 893              	.LVL50:
 393:Middlewares/Third_Party/FreeRTOS/Source/CMSIS_RTOS_V2/cmsis_os2.c ****     __enable_irq();
 894              		.loc 1 393 0 discriminator 6
 895 002a 04B9     		cbnz	r4, .L96
ARM GAS  /tmp/ccZrYRqG.s 			page 42


 896              	.LBB382:
 897              	.LBB383:
 131:Drivers/CMSIS/Include/cmsis_gcc.h **** }
 898              		.loc 2 131 0
 899              		.syntax unified
 900              	@ 131 "Drivers/CMSIS/Include/cmsis_gcc.h" 1
 901 002c 62B6     		cpsie i
 902              	@ 0 "" 2
 903              		.thumb
 904              		.syntax unified
 905              	.L96:
 906              	.LBE383:
 907              	.LBE382:
 398:Middlewares/Third_Party/FreeRTOS/Source/CMSIS_RTOS_V2/cmsis_os2.c **** 
 908              		.loc 1 398 0
 909 002e 10BD     		pop	{r4, pc}
 910              	.LVL51:
 911              	.L100:
 384:Middlewares/Third_Party/FreeRTOS/Source/CMSIS_RTOS_V2/cmsis_os2.c ****   TickType_t ticks;
 912              		.loc 1 384 0
 913 0030 0124     		movs	r4, #1
 914 0032 EFE7     		b	.L97
 915              	.L103:
 916              		.align	2
 917              	.L102:
 918 0034 00000000 		.word	SystemCoreClock
 919 0038 D34D6210 		.word	274877907
 920              		.cfi_endproc
 921              	.LFE116:
 923              		.section	.text.osKernelGetSysTimerFreq,"ax",%progbits
 924              		.align	1
 925              		.global	osKernelGetSysTimerFreq
 926              		.syntax unified
 927              		.thumb
 928              		.thumb_func
 929              		.fpu fpv4-sp-d16
 931              	osKernelGetSysTimerFreq:
 932              	.LFB117:
 400:Middlewares/Third_Party/FreeRTOS/Source/CMSIS_RTOS_V2/cmsis_os2.c ****   return (configCPU_CLOCK_HZ);
 933              		.loc 1 400 0
 934              		.cfi_startproc
 935              		@ args = 0, pretend = 0, frame = 0
 936              		@ frame_needed = 0, uses_anonymous_args = 0
 937              		@ link register save eliminated.
 402:Middlewares/Third_Party/FreeRTOS/Source/CMSIS_RTOS_V2/cmsis_os2.c **** 
 938              		.loc 1 402 0
 939 0000 014B     		ldr	r3, .L105
 940 0002 1868     		ldr	r0, [r3]
 941 0004 7047     		bx	lr
 942              	.L106:
 943 0006 00BF     		.align	2
 944              	.L105:
 945 0008 00000000 		.word	SystemCoreClock
 946              		.cfi_endproc
 947              	.LFE117:
 949              		.section	.text.osThreadNew,"ax",%progbits
 950              		.align	1
ARM GAS  /tmp/ccZrYRqG.s 			page 43


 951              		.global	osThreadNew
 952              		.syntax unified
 953              		.thumb
 954              		.thumb_func
 955              		.fpu fpv4-sp-d16
 957              	osThreadNew:
 958              	.LFB118:
 406:Middlewares/Third_Party/FreeRTOS/Source/CMSIS_RTOS_V2/cmsis_os2.c ****   const char *name;
 959              		.loc 1 406 0
 960              		.cfi_startproc
 961              		@ args = 0, pretend = 0, frame = 8
 962              		@ frame_needed = 0, uses_anonymous_args = 0
 963              	.LVL52:
 964 0000 F0B5     		push	{r4, r5, r6, r7, lr}
 965              	.LCFI9:
 966              		.cfi_def_cfa_offset 20
 967              		.cfi_offset 4, -20
 968              		.cfi_offset 5, -16
 969              		.cfi_offset 6, -12
 970              		.cfi_offset 7, -8
 971              		.cfi_offset 14, -4
 972 0002 87B0     		sub	sp, sp, #28
 973              	.LCFI10:
 974              		.cfi_def_cfa_offset 48
 413:Middlewares/Third_Party/FreeRTOS/Source/CMSIS_RTOS_V2/cmsis_os2.c **** 
 975              		.loc 1 413 0
 976 0004 0024     		movs	r4, #0
 977 0006 0594     		str	r4, [sp, #20]
 978              	.LBB384:
 979              	.LBB385:
 209:Drivers/CMSIS/Include/cmsis_gcc.h ****   return(result);
 980              		.loc 2 209 0
 981              		.syntax unified
 982              	@ 209 "Drivers/CMSIS/Include/cmsis_gcc.h" 1
 983 0008 EFF30584 		MRS r4, ipsr
 984              	@ 0 "" 2
 985              		.thumb
 986              		.syntax unified
 987              	.LBE385:
 988              	.LBE384:
 415:Middlewares/Third_Party/FreeRTOS/Source/CMSIS_RTOS_V2/cmsis_os2.c ****     stack = configMINIMAL_STACK_SIZE;
 989              		.loc 1 415 0
 990 000c 44BB     		cbnz	r4, .L108
 991              	.LBB386:
 992              	.LBB387:
 386:Drivers/CMSIS/Include/cmsis_gcc.h ****   return(result);
 993              		.loc 2 386 0
 994              		.syntax unified
 995              	@ 386 "Drivers/CMSIS/Include/cmsis_gcc.h" 1
 996 000e EFF31083 		MRS r3, primask
 997              	@ 0 "" 2
 998              		.thumb
 999              		.syntax unified
 1000              	.LBE387:
 1001              	.LBE386:
 415:Middlewares/Third_Party/FreeRTOS/Source/CMSIS_RTOS_V2/cmsis_os2.c ****     stack = configMINIMAL_STACK_SIZE;
 1002              		.loc 1 415 0
ARM GAS  /tmp/ccZrYRqG.s 			page 44


 1003 0012 13B9     		cbnz	r3, .L109
 1004              	.LBB388:
 1005              	.LBB389:
 1006              		.loc 2 465 0
 1007              		.syntax unified
 1008              	@ 465 "Drivers/CMSIS/Include/cmsis_gcc.h" 1
 1009 0014 EFF31183 		MRS r3, basepri
 1010              	@ 0 "" 2
 1011              		.thumb
 1012              		.syntax unified
 1013              	.LBE389:
 1014              	.LBE388:
 415:Middlewares/Third_Party/FreeRTOS/Source/CMSIS_RTOS_V2/cmsis_os2.c ****     stack = configMINIMAL_STACK_SIZE;
 1015              		.loc 1 415 0
 1016 0018 1BB1     		cbz	r3, .L110
 1017              	.L109:
 415:Middlewares/Third_Party/FreeRTOS/Source/CMSIS_RTOS_V2/cmsis_os2.c ****     stack = configMINIMAL_STACK_SIZE;
 1018              		.loc 1 415 0 is_stmt 0 discriminator 5
 1019 001a 2D4B     		ldr	r3, .L131
 1020 001c 1B68     		ldr	r3, [r3]
 1021 001e 022B     		cmp	r3, #2
 1022 0020 1ED0     		beq	.L108
 1023              	.L110:
 415:Middlewares/Third_Party/FreeRTOS/Source/CMSIS_RTOS_V2/cmsis_os2.c ****     stack = configMINIMAL_STACK_SIZE;
 1024              		.loc 1 415 0 discriminator 6
 1025 0022 E8B1     		cbz	r0, .L108
 1026              	.LVL53:
 422:Middlewares/Third_Party/FreeRTOS/Source/CMSIS_RTOS_V2/cmsis_os2.c ****       if (attr->name != NULL) {
 1027              		.loc 1 422 0 is_stmt 1
 1028 0024 4AB3     		cbz	r2, .L118
 423:Middlewares/Third_Party/FreeRTOS/Source/CMSIS_RTOS_V2/cmsis_os2.c ****         name = attr->name;
 1029              		.loc 1 423 0
 1030 0026 1668     		ldr	r6, [r2]
 1031              	.LVL54:
 426:Middlewares/Third_Party/FreeRTOS/Source/CMSIS_RTOS_V2/cmsis_os2.c ****         prio = (UBaseType_t)attr->priority;
 1032              		.loc 1 426 0
 1033 0028 9469     		ldr	r4, [r2, #24]
 1034 002a 04B9     		cbnz	r4, .L113
 417:Middlewares/Third_Party/FreeRTOS/Source/CMSIS_RTOS_V2/cmsis_os2.c **** 
 1035              		.loc 1 417 0
 1036 002c 1824     		movs	r4, #24
 1037              	.L113:
 1038              	.LVL55:
 430:Middlewares/Third_Party/FreeRTOS/Source/CMSIS_RTOS_V2/cmsis_os2.c ****         return (NULL);
 1039              		.loc 1 430 0
 1040 002e 631E     		subs	r3, r4, #1
 1041 0030 372B     		cmp	r3, #55
 1042 0032 49D8     		bhi	.L120
 430:Middlewares/Third_Party/FreeRTOS/Source/CMSIS_RTOS_V2/cmsis_os2.c ****         return (NULL);
 1043              		.loc 1 430 0 is_stmt 0 discriminator 1
 1044 0034 5368     		ldr	r3, [r2, #4]
 1045 0036 13F0010F 		tst	r3, #1
 1046 003a 47D1     		bne	.L121
 434:Middlewares/Third_Party/FreeRTOS/Source/CMSIS_RTOS_V2/cmsis_os2.c ****         /* In FreeRTOS stack is not in bytes, but in sizeof(StackType_t) which is 4 on ARM ports.  
 1047              		.loc 1 434 0 is_stmt 1
 1048 003c 5369     		ldr	r3, [r2, #20]
 1049 003e 93B1     		cbz	r3, .L122
ARM GAS  /tmp/ccZrYRqG.s 			page 45


 437:Middlewares/Third_Party/FreeRTOS/Source/CMSIS_RTOS_V2/cmsis_os2.c ****       }
 1050              		.loc 1 437 0
 1051 0040 4FEA930E 		lsr	lr, r3, #2
 1052              	.LVL56:
 1053              	.L115:
 440:Middlewares/Third_Party/FreeRTOS/Source/CMSIS_RTOS_V2/cmsis_os2.c ****           (attr->stack_mem != NULL) && (attr->stack_size >  0U)) {
 1054              		.loc 1 440 0
 1055 0044 9568     		ldr	r5, [r2, #8]
 1056 0046 2DB1     		cbz	r5, .L116
 440:Middlewares/Third_Party/FreeRTOS/Source/CMSIS_RTOS_V2/cmsis_os2.c ****           (attr->stack_mem != NULL) && (attr->stack_size >  0U)) {
 1057              		.loc 1 440 0 is_stmt 0 discriminator 1
 1058 0048 D768     		ldr	r7, [r2, #12]
 1059 004a 5B2F     		cmp	r7, #91
 1060 004c 02D9     		bls	.L116
 440:Middlewares/Third_Party/FreeRTOS/Source/CMSIS_RTOS_V2/cmsis_os2.c ****           (attr->stack_mem != NULL) && (attr->stack_size >  0U)) {
 1061              		.loc 1 440 0 discriminator 2
 1062 004e 1769     		ldr	r7, [r2, #16]
 1063 0050 07B1     		cbz	r7, .L116
 441:Middlewares/Third_Party/FreeRTOS/Source/CMSIS_RTOS_V2/cmsis_os2.c ****         mem = 1;
 1064              		.loc 1 441 0 is_stmt 1
 1065 0052 C3B9     		cbnz	r3, .L123
 1066              	.L116:
 445:Middlewares/Third_Party/FreeRTOS/Source/CMSIS_RTOS_V2/cmsis_os2.c ****           mem = 0;
 1067              		.loc 1 445 0
 1068 0054 55B1     		cbz	r5, .L128
 420:Middlewares/Third_Party/FreeRTOS/Source/CMSIS_RTOS_V2/cmsis_os2.c **** 
 1069              		.loc 1 420 0
 1070 0056 4FF0FF35 		mov	r5, #-1
 1071              	.LVL57:
 1072              	.L111:
 454:Middlewares/Third_Party/FreeRTOS/Source/CMSIS_RTOS_V2/cmsis_os2.c ****       hTask = xTaskCreateStatic ((TaskFunction_t)func, name, stack, argument, prio, (StackType_t  *
 1073              		.loc 1 454 0
 1074 005a 012D     		cmp	r5, #1
 1075 005c 1AD0     		beq	.L129
 459:Middlewares/Third_Party/FreeRTOS/Source/CMSIS_RTOS_V2/cmsis_os2.c ****         if (xTaskCreate ((TaskFunction_t)func, name, (uint16_t)stack, argument, prio, &hTask) != pd
 1076              		.loc 1 459 0
 1077 005e 2DB3     		cbz	r5, .L130
 1078              	.LVL58:
 1079              	.L108:
 467:Middlewares/Third_Party/FreeRTOS/Source/CMSIS_RTOS_V2/cmsis_os2.c **** }
 1080              		.loc 1 467 0
 1081 0060 0598     		ldr	r0, [sp, #20]
 1082              	.L107:
 468:Middlewares/Third_Party/FreeRTOS/Source/CMSIS_RTOS_V2/cmsis_os2.c **** 
 1083              		.loc 1 468 0
 1084 0062 07B0     		add	sp, sp, #28
 1085              	.LCFI11:
 1086              		.cfi_remember_state
 1087              		.cfi_def_cfa_offset 20
 1088              		@ sp needed
 1089 0064 F0BD     		pop	{r4, r5, r6, r7, pc}
 1090              	.LVL59:
 1091              	.L122:
 1092              	.LCFI12:
 1093              		.cfi_restore_state
 416:Middlewares/Third_Party/FreeRTOS/Source/CMSIS_RTOS_V2/cmsis_os2.c ****     prio  = (UBaseType_t)osPriorityNormal;
 1094              		.loc 1 416 0
ARM GAS  /tmp/ccZrYRqG.s 			page 46


 1095 0066 4FF0800E 		mov	lr, #128
 1096 006a EBE7     		b	.L115
 1097              	.LVL60:
 1098              	.L128:
 445:Middlewares/Third_Party/FreeRTOS/Source/CMSIS_RTOS_V2/cmsis_os2.c ****           mem = 0;
 1099              		.loc 1 445 0 discriminator 1
 1100 006c D368     		ldr	r3, [r2, #12]
 1101 006e 63B9     		cbnz	r3, .L125
 445:Middlewares/Third_Party/FreeRTOS/Source/CMSIS_RTOS_V2/cmsis_os2.c ****           mem = 0;
 1102              		.loc 1 445 0 is_stmt 0 discriminator 2
 1103 0070 1369     		ldr	r3, [r2, #16]
 1104 0072 6BB1     		cbz	r3, .L126
 420:Middlewares/Third_Party/FreeRTOS/Source/CMSIS_RTOS_V2/cmsis_os2.c **** 
 1105              		.loc 1 420 0 is_stmt 1
 1106 0074 4FF0FF35 		mov	r5, #-1
 1107 0078 EFE7     		b	.L111
 1108              	.LVL61:
 1109              	.L118:
 451:Middlewares/Third_Party/FreeRTOS/Source/CMSIS_RTOS_V2/cmsis_os2.c ****     }
 1110              		.loc 1 451 0
 1111 007a 0025     		movs	r5, #0
 417:Middlewares/Third_Party/FreeRTOS/Source/CMSIS_RTOS_V2/cmsis_os2.c **** 
 1112              		.loc 1 417 0
 1113 007c 1824     		movs	r4, #24
 416:Middlewares/Third_Party/FreeRTOS/Source/CMSIS_RTOS_V2/cmsis_os2.c ****     prio  = (UBaseType_t)osPriorityNormal;
 1114              		.loc 1 416 0
 1115 007e 4FF0800E 		mov	lr, #128
 419:Middlewares/Third_Party/FreeRTOS/Source/CMSIS_RTOS_V2/cmsis_os2.c ****     mem  = -1;
 1116              		.loc 1 419 0
 1117 0082 2E46     		mov	r6, r5
 1118 0084 E9E7     		b	.L111
 1119              	.LVL62:
 1120              	.L123:
 442:Middlewares/Third_Party/FreeRTOS/Source/CMSIS_RTOS_V2/cmsis_os2.c ****       }
 1121              		.loc 1 442 0
 1122 0086 0125     		movs	r5, #1
 1123 0088 E7E7     		b	.L111
 1124              	.L125:
 420:Middlewares/Third_Party/FreeRTOS/Source/CMSIS_RTOS_V2/cmsis_os2.c **** 
 1125              		.loc 1 420 0
 1126 008a 4FF0FF35 		mov	r5, #-1
 1127 008e E4E7     		b	.L111
 1128              	.L126:
 446:Middlewares/Third_Party/FreeRTOS/Source/CMSIS_RTOS_V2/cmsis_os2.c ****         }
 1129              		.loc 1 446 0
 1130 0090 0025     		movs	r5, #0
 1131 0092 E2E7     		b	.L111
 1132              	.LVL63:
 1133              	.L129:
 455:Middlewares/Third_Party/FreeRTOS/Source/CMSIS_RTOS_V2/cmsis_os2.c ****                                                                                     (StaticTask_t *
 1134              		.loc 1 455 0
 1135 0094 1369     		ldr	r3, [r2, #16]
 456:Middlewares/Third_Party/FreeRTOS/Source/CMSIS_RTOS_V2/cmsis_os2.c ****     }
 1136              		.loc 1 456 0
 1137 0096 9268     		ldr	r2, [r2, #8]
 1138              	.LVL64:
 455:Middlewares/Third_Party/FreeRTOS/Source/CMSIS_RTOS_V2/cmsis_os2.c ****                                                                                     (StaticTask_t *
ARM GAS  /tmp/ccZrYRqG.s 			page 47


 1139              		.loc 1 455 0
 1140 0098 0292     		str	r2, [sp, #8]
 1141 009a 0193     		str	r3, [sp, #4]
 1142 009c 0094     		str	r4, [sp]
 1143 009e 0B46     		mov	r3, r1
 1144 00a0 7246     		mov	r2, lr
 1145 00a2 3146     		mov	r1, r6
 1146              	.LVL65:
 1147 00a4 FFF7FEFF 		bl	xTaskCreateStatic
 1148              	.LVL66:
 1149 00a8 0590     		str	r0, [sp, #20]
 1150 00aa D9E7     		b	.L108
 1151              	.LVL67:
 1152              	.L130:
 460:Middlewares/Third_Party/FreeRTOS/Source/CMSIS_RTOS_V2/cmsis_os2.c ****           hTask = NULL;
 1153              		.loc 1 460 0
 1154 00ac 05AA     		add	r2, sp, #20
 1155              	.LVL68:
 1156 00ae 0192     		str	r2, [sp, #4]
 1157 00b0 0094     		str	r4, [sp]
 1158 00b2 0B46     		mov	r3, r1
 1159 00b4 1FFA8EF2 		uxth	r2, lr
 1160 00b8 3146     		mov	r1, r6
 1161              	.LVL69:
 1162 00ba FFF7FEFF 		bl	xTaskCreate
 1163              	.LVL70:
 1164 00be 0128     		cmp	r0, #1
 1165 00c0 CED0     		beq	.L108
 461:Middlewares/Third_Party/FreeRTOS/Source/CMSIS_RTOS_V2/cmsis_os2.c ****         }
 1166              		.loc 1 461 0
 1167 00c2 0023     		movs	r3, #0
 1168 00c4 0593     		str	r3, [sp, #20]
 1169 00c6 CBE7     		b	.L108
 1170              	.LVL71:
 1171              	.L120:
 431:Middlewares/Third_Party/FreeRTOS/Source/CMSIS_RTOS_V2/cmsis_os2.c ****       }
 1172              		.loc 1 431 0
 1173 00c8 0020     		movs	r0, #0
 1174              	.LVL72:
 1175 00ca CAE7     		b	.L107
 1176              	.LVL73:
 1177              	.L121:
 1178 00cc 0020     		movs	r0, #0
 1179              	.LVL74:
 1180 00ce C8E7     		b	.L107
 1181              	.L132:
 1182              		.align	2
 1183              	.L131:
 1184 00d0 00000000 		.word	.LANCHOR0
 1185              		.cfi_endproc
 1186              	.LFE118:
 1188              		.section	.text.osThreadGetName,"ax",%progbits
 1189              		.align	1
 1190              		.global	osThreadGetName
 1191              		.syntax unified
 1192              		.thumb
 1193              		.thumb_func
ARM GAS  /tmp/ccZrYRqG.s 			page 48


 1194              		.fpu fpv4-sp-d16
 1196              	osThreadGetName:
 1197              	.LFB119:
 470:Middlewares/Third_Party/FreeRTOS/Source/CMSIS_RTOS_V2/cmsis_os2.c ****   TaskHandle_t hTask = (TaskHandle_t)thread_id;
 1198              		.loc 1 470 0
 1199              		.cfi_startproc
 1200              		@ args = 0, pretend = 0, frame = 0
 1201              		@ frame_needed = 0, uses_anonymous_args = 0
 1202              	.LVL75:
 1203 0000 08B5     		push	{r3, lr}
 1204              	.LCFI13:
 1205              		.cfi_def_cfa_offset 8
 1206              		.cfi_offset 3, -8
 1207              		.cfi_offset 14, -4
 1208              	.LVL76:
 1209              	.LBB390:
 1210              	.LBB391:
 209:Drivers/CMSIS/Include/cmsis_gcc.h ****   return(result);
 1211              		.loc 2 209 0
 1212              		.syntax unified
 1213              	@ 209 "Drivers/CMSIS/Include/cmsis_gcc.h" 1
 1214 0002 EFF30583 		MRS r3, ipsr
 1215              	@ 0 "" 2
 1216              		.thumb
 1217              		.syntax unified
 1218              	.LBE391:
 1219              	.LBE390:
 474:Middlewares/Third_Party/FreeRTOS/Source/CMSIS_RTOS_V2/cmsis_os2.c ****     name = NULL;
 1220              		.loc 1 474 0
 1221 0006 6BB9     		cbnz	r3, .L137
 1222              	.LBB392:
 1223              	.LBB393:
 386:Drivers/CMSIS/Include/cmsis_gcc.h ****   return(result);
 1224              		.loc 2 386 0
 1225              		.syntax unified
 1226              	@ 386 "Drivers/CMSIS/Include/cmsis_gcc.h" 1
 1227 0008 EFF31083 		MRS r3, primask
 1228              	@ 0 "" 2
 1229              		.thumb
 1230              		.syntax unified
 1231              	.LBE393:
 1232              	.LBE392:
 474:Middlewares/Third_Party/FreeRTOS/Source/CMSIS_RTOS_V2/cmsis_os2.c ****     name = NULL;
 1233              		.loc 1 474 0
 1234 000c 13B9     		cbnz	r3, .L135
 1235              	.LBB394:
 1236              	.LBB395:
 1237              		.loc 2 465 0
 1238              		.syntax unified
 1239              	@ 465 "Drivers/CMSIS/Include/cmsis_gcc.h" 1
 1240 000e EFF31183 		MRS r3, basepri
 1241              	@ 0 "" 2
 1242              		.thumb
 1243              		.syntax unified
 1244              	.LBE395:
 1245              	.LBE394:
 474:Middlewares/Third_Party/FreeRTOS/Source/CMSIS_RTOS_V2/cmsis_os2.c ****     name = NULL;
ARM GAS  /tmp/ccZrYRqG.s 			page 49


 1246              		.loc 1 474 0
 1247 0012 1BB1     		cbz	r3, .L136
 1248              	.L135:
 474:Middlewares/Third_Party/FreeRTOS/Source/CMSIS_RTOS_V2/cmsis_os2.c ****     name = NULL;
 1249              		.loc 1 474 0 is_stmt 0 discriminator 4
 1250 0014 064B     		ldr	r3, .L141
 1251 0016 1B68     		ldr	r3, [r3]
 1252 0018 022B     		cmp	r3, #2
 1253 001a 05D0     		beq	.L138
 1254              	.L136:
 474:Middlewares/Third_Party/FreeRTOS/Source/CMSIS_RTOS_V2/cmsis_os2.c ****     name = NULL;
 1255              		.loc 1 474 0 discriminator 6
 1256 001c 30B1     		cbz	r0, .L139
 477:Middlewares/Third_Party/FreeRTOS/Source/CMSIS_RTOS_V2/cmsis_os2.c ****   }
 1257              		.loc 1 477 0 is_stmt 1
 1258 001e FFF7FEFF 		bl	pcTaskGetName
 1259              	.LVL77:
 1260 0022 08BD     		pop	{r3, pc}
 1261              	.LVL78:
 1262              	.L137:
 475:Middlewares/Third_Party/FreeRTOS/Source/CMSIS_RTOS_V2/cmsis_os2.c ****   } else {
 1263              		.loc 1 475 0
 1264 0024 0020     		movs	r0, #0
 1265              	.LVL79:
 1266 0026 08BD     		pop	{r3, pc}
 1267              	.LVL80:
 1268              	.L138:
 1269 0028 0020     		movs	r0, #0
 1270              	.LVL81:
 1271 002a 08BD     		pop	{r3, pc}
 1272              	.LVL82:
 1273              	.L139:
 1274 002c 0020     		movs	r0, #0
 1275              	.LVL83:
 481:Middlewares/Third_Party/FreeRTOS/Source/CMSIS_RTOS_V2/cmsis_os2.c **** 
 1276              		.loc 1 481 0
 1277 002e 08BD     		pop	{r3, pc}
 1278              	.L142:
 1279              		.align	2
 1280              	.L141:
 1281 0030 00000000 		.word	.LANCHOR0
 1282              		.cfi_endproc
 1283              	.LFE119:
 1285              		.section	.text.osThreadGetId,"ax",%progbits
 1286              		.align	1
 1287              		.global	osThreadGetId
 1288              		.syntax unified
 1289              		.thumb
 1290              		.thumb_func
 1291              		.fpu fpv4-sp-d16
 1293              	osThreadGetId:
 1294              	.LFB120:
 483:Middlewares/Third_Party/FreeRTOS/Source/CMSIS_RTOS_V2/cmsis_os2.c ****   osThreadId_t id;
 1295              		.loc 1 483 0
 1296              		.cfi_startproc
 1297              		@ args = 0, pretend = 0, frame = 0
 1298              		@ frame_needed = 0, uses_anonymous_args = 0
ARM GAS  /tmp/ccZrYRqG.s 			page 50


 1299 0000 08B5     		push	{r3, lr}
 1300              	.LCFI14:
 1301              		.cfi_def_cfa_offset 8
 1302              		.cfi_offset 3, -8
 1303              		.cfi_offset 14, -4
 486:Middlewares/Third_Party/FreeRTOS/Source/CMSIS_RTOS_V2/cmsis_os2.c **** 
 1304              		.loc 1 486 0
 1305 0002 FFF7FEFF 		bl	xTaskGetCurrentTaskHandle
 1306              	.LVL84:
 489:Middlewares/Third_Party/FreeRTOS/Source/CMSIS_RTOS_V2/cmsis_os2.c **** 
 1307              		.loc 1 489 0
 1308 0006 08BD     		pop	{r3, pc}
 1309              		.cfi_endproc
 1310              	.LFE120:
 1312              		.section	.text.osThreadGetState,"ax",%progbits
 1313              		.align	1
 1314              		.global	osThreadGetState
 1315              		.syntax unified
 1316              		.thumb
 1317              		.thumb_func
 1318              		.fpu fpv4-sp-d16
 1320              	osThreadGetState:
 1321              	.LFB121:
 491:Middlewares/Third_Party/FreeRTOS/Source/CMSIS_RTOS_V2/cmsis_os2.c ****   TaskHandle_t hTask = (TaskHandle_t)thread_id;
 1322              		.loc 1 491 0
 1323              		.cfi_startproc
 1324              		@ args = 0, pretend = 0, frame = 0
 1325              		@ frame_needed = 0, uses_anonymous_args = 0
 1326              	.LVL85:
 1327 0000 08B5     		push	{r3, lr}
 1328              	.LCFI15:
 1329              		.cfi_def_cfa_offset 8
 1330              		.cfi_offset 3, -8
 1331              		.cfi_offset 14, -4
 1332              	.LVL86:
 1333              	.LBB396:
 1334              	.LBB397:
 209:Drivers/CMSIS/Include/cmsis_gcc.h ****   return(result);
 1335              		.loc 2 209 0
 1336              		.syntax unified
 1337              	@ 209 "Drivers/CMSIS/Include/cmsis_gcc.h" 1
 1338 0002 EFF30583 		MRS r3, ipsr
 1339              	@ 0 "" 2
 1340              		.thumb
 1341              		.syntax unified
 1342              	.LBE397:
 1343              	.LBE396:
 495:Middlewares/Third_Party/FreeRTOS/Source/CMSIS_RTOS_V2/cmsis_os2.c ****     state = osThreadError;
 1344              		.loc 1 495 0
 1345 0006 E3B9     		cbnz	r3, .L154
 1346              	.LBB398:
 1347              	.LBB399:
 386:Drivers/CMSIS/Include/cmsis_gcc.h ****   return(result);
 1348              		.loc 2 386 0
 1349              		.syntax unified
 1350              	@ 386 "Drivers/CMSIS/Include/cmsis_gcc.h" 1
 1351 0008 EFF31083 		MRS r3, primask
ARM GAS  /tmp/ccZrYRqG.s 			page 51


 1352              	@ 0 "" 2
 1353              		.thumb
 1354              		.syntax unified
 1355              	.LBE399:
 1356              	.LBE398:
 495:Middlewares/Third_Party/FreeRTOS/Source/CMSIS_RTOS_V2/cmsis_os2.c ****     state = osThreadError;
 1357              		.loc 1 495 0
 1358 000c 13B9     		cbnz	r3, .L147
 1359              	.LBB400:
 1360              	.LBB401:
 1361              		.loc 2 465 0
 1362              		.syntax unified
 1363              	@ 465 "Drivers/CMSIS/Include/cmsis_gcc.h" 1
 1364 000e EFF31183 		MRS r3, basepri
 1365              	@ 0 "" 2
 1366              		.thumb
 1367              		.syntax unified
 1368              	.LBE401:
 1369              	.LBE400:
 495:Middlewares/Third_Party/FreeRTOS/Source/CMSIS_RTOS_V2/cmsis_os2.c ****     state = osThreadError;
 1370              		.loc 1 495 0
 1371 0012 1BB1     		cbz	r3, .L148
 1372              	.L147:
 495:Middlewares/Third_Party/FreeRTOS/Source/CMSIS_RTOS_V2/cmsis_os2.c ****     state = osThreadError;
 1373              		.loc 1 495 0 is_stmt 0 discriminator 4
 1374 0014 104B     		ldr	r3, .L159
 1375 0016 1B68     		ldr	r3, [r3]
 1376 0018 022B     		cmp	r3, #2
 1377 001a 15D0     		beq	.L155
 1378              	.L148:
 495:Middlewares/Third_Party/FreeRTOS/Source/CMSIS_RTOS_V2/cmsis_os2.c ****     state = osThreadError;
 1379              		.loc 1 495 0 discriminator 6
 1380 001c B8B1     		cbz	r0, .L156
 499:Middlewares/Third_Party/FreeRTOS/Source/CMSIS_RTOS_V2/cmsis_os2.c ****       case eRunning:   state = osThreadRunning;    break;
 1381              		.loc 1 499 0 is_stmt 1
 1382 001e FFF7FEFF 		bl	eTaskGetState
 1383              	.LVL87:
 1384 0022 0428     		cmp	r0, #4
 1385 0024 0AD8     		bhi	.L149
 1386 0026 DFE800F0 		tbb	[pc, r0]
 1387              	.L151:
 1388 002a 03       		.byte	(.L150-.L151)/2
 1389 002b 15       		.byte	(.L157-.L151)/2
 1390 002c 05       		.byte	(.L152-.L151)/2
 1391 002d 05       		.byte	(.L152-.L151)/2
 1392 002e 07       		.byte	(.L153-.L151)/2
 1393 002f 00       		.p2align 1
 1394              	.L150:
 500:Middlewares/Third_Party/FreeRTOS/Source/CMSIS_RTOS_V2/cmsis_os2.c ****       case eReady:     state = osThreadReady;      break;
 1395              		.loc 1 500 0
 1396 0030 0220     		movs	r0, #2
 1397 0032 08BD     		pop	{r3, pc}
 1398              	.L152:
 1399              	.LVL88:
 503:Middlewares/Third_Party/FreeRTOS/Source/CMSIS_RTOS_V2/cmsis_os2.c ****       case eDeleted:   state = osThreadTerminated; break;
 1400              		.loc 1 503 0
 1401 0034 0320     		movs	r0, #3
ARM GAS  /tmp/ccZrYRqG.s 			page 52


 1402 0036 08BD     		pop	{r3, pc}
 1403              	.LVL89:
 1404              	.L153:
 504:Middlewares/Third_Party/FreeRTOS/Source/CMSIS_RTOS_V2/cmsis_os2.c ****       case eInvalid:
 1405              		.loc 1 504 0
 1406 0038 0420     		movs	r0, #4
 1407 003a 08BD     		pop	{r3, pc}
 1408              	.LVL90:
 1409              	.L149:
 506:Middlewares/Third_Party/FreeRTOS/Source/CMSIS_RTOS_V2/cmsis_os2.c ****     }
 1410              		.loc 1 506 0
 1411 003c 4FF0FF30 		mov	r0, #-1
 1412 0040 08BD     		pop	{r3, pc}
 1413              	.LVL91:
 1414              	.L154:
 496:Middlewares/Third_Party/FreeRTOS/Source/CMSIS_RTOS_V2/cmsis_os2.c ****   }
 1415              		.loc 1 496 0
 1416 0042 4FF0FF30 		mov	r0, #-1
 1417              	.LVL92:
 1418 0046 08BD     		pop	{r3, pc}
 1419              	.LVL93:
 1420              	.L155:
 1421 0048 4FF0FF30 		mov	r0, #-1
 1422              	.LVL94:
 1423 004c 08BD     		pop	{r3, pc}
 1424              	.LVL95:
 1425              	.L156:
 1426 004e 4FF0FF30 		mov	r0, #-1
 1427              	.LVL96:
 1428 0052 08BD     		pop	{r3, pc}
 1429              	.L157:
 501:Middlewares/Third_Party/FreeRTOS/Source/CMSIS_RTOS_V2/cmsis_os2.c ****       case eBlocked:
 1430              		.loc 1 501 0
 1431 0054 0120     		movs	r0, #1
 1432              	.LVL97:
 511:Middlewares/Third_Party/FreeRTOS/Source/CMSIS_RTOS_V2/cmsis_os2.c **** 
 1433              		.loc 1 511 0
 1434 0056 08BD     		pop	{r3, pc}
 1435              	.L160:
 1436              		.align	2
 1437              	.L159:
 1438 0058 00000000 		.word	.LANCHOR0
 1439              		.cfi_endproc
 1440              	.LFE121:
 1442              		.section	.text.osThreadGetStackSpace,"ax",%progbits
 1443              		.align	1
 1444              		.global	osThreadGetStackSpace
 1445              		.syntax unified
 1446              		.thumb
 1447              		.thumb_func
 1448              		.fpu fpv4-sp-d16
 1450              	osThreadGetStackSpace:
 1451              	.LFB122:
 513:Middlewares/Third_Party/FreeRTOS/Source/CMSIS_RTOS_V2/cmsis_os2.c ****   TaskHandle_t hTask = (TaskHandle_t)thread_id;
 1452              		.loc 1 513 0
 1453              		.cfi_startproc
 1454              		@ args = 0, pretend = 0, frame = 0
ARM GAS  /tmp/ccZrYRqG.s 			page 53


 1455              		@ frame_needed = 0, uses_anonymous_args = 0
 1456              	.LVL98:
 1457 0000 08B5     		push	{r3, lr}
 1458              	.LCFI16:
 1459              		.cfi_def_cfa_offset 8
 1460              		.cfi_offset 3, -8
 1461              		.cfi_offset 14, -4
 1462 0002 0346     		mov	r3, r0
 1463              	.LVL99:
 1464              	.LBB402:
 1465              	.LBB403:
 209:Drivers/CMSIS/Include/cmsis_gcc.h ****   return(result);
 1466              		.loc 2 209 0
 1467              		.syntax unified
 1468              	@ 209 "Drivers/CMSIS/Include/cmsis_gcc.h" 1
 1469 0004 EFF30580 		MRS r0, ipsr
 1470              	@ 0 "" 2
 1471              	.LVL100:
 1472              		.thumb
 1473              		.syntax unified
 1474              	.LBE403:
 1475              	.LBE402:
 517:Middlewares/Third_Party/FreeRTOS/Source/CMSIS_RTOS_V2/cmsis_os2.c ****     sz = 0U;
 1476              		.loc 1 517 0
 1477 0008 70B9     		cbnz	r0, .L165
 1478              	.LBB404:
 1479              	.LBB405:
 386:Drivers/CMSIS/Include/cmsis_gcc.h ****   return(result);
 1480              		.loc 2 386 0
 1481              		.syntax unified
 1482              	@ 386 "Drivers/CMSIS/Include/cmsis_gcc.h" 1
 1483 000a EFF31082 		MRS r2, primask
 1484              	@ 0 "" 2
 1485              		.thumb
 1486              		.syntax unified
 1487              	.LBE405:
 1488              	.LBE404:
 517:Middlewares/Third_Party/FreeRTOS/Source/CMSIS_RTOS_V2/cmsis_os2.c ****     sz = 0U;
 1489              		.loc 1 517 0
 1490 000e 12B9     		cbnz	r2, .L163
 1491              	.LBB406:
 1492              	.LBB407:
 1493              		.loc 2 465 0
 1494              		.syntax unified
 1495              	@ 465 "Drivers/CMSIS/Include/cmsis_gcc.h" 1
 1496 0010 EFF31182 		MRS r2, basepri
 1497              	@ 0 "" 2
 1498              		.thumb
 1499              		.syntax unified
 1500              	.LBE407:
 1501              	.LBE406:
 517:Middlewares/Third_Party/FreeRTOS/Source/CMSIS_RTOS_V2/cmsis_os2.c ****     sz = 0U;
 1502              		.loc 1 517 0
 1503 0014 1AB1     		cbz	r2, .L164
 1504              	.L163:
 517:Middlewares/Third_Party/FreeRTOS/Source/CMSIS_RTOS_V2/cmsis_os2.c ****     sz = 0U;
 1505              		.loc 1 517 0 is_stmt 0 discriminator 4
ARM GAS  /tmp/ccZrYRqG.s 			page 54


 1506 0016 054A     		ldr	r2, .L167
 1507 0018 1268     		ldr	r2, [r2]
 1508 001a 022A     		cmp	r2, #2
 1509 001c 05D0     		beq	.L161
 1510              	.L164:
 517:Middlewares/Third_Party/FreeRTOS/Source/CMSIS_RTOS_V2/cmsis_os2.c ****     sz = 0U;
 1511              		.loc 1 517 0 discriminator 6
 1512 001e 23B1     		cbz	r3, .L161
 1513 0020 1846     		mov	r0, r3
 520:Middlewares/Third_Party/FreeRTOS/Source/CMSIS_RTOS_V2/cmsis_os2.c ****   }
 1514              		.loc 1 520 0 is_stmt 1
 1515 0022 FFF7FEFF 		bl	uxTaskGetStackHighWaterMark
 1516              	.LVL101:
 1517 0026 08BD     		pop	{r3, pc}
 1518              	.LVL102:
 1519              	.L165:
 518:Middlewares/Third_Party/FreeRTOS/Source/CMSIS_RTOS_V2/cmsis_os2.c ****   } else {
 1520              		.loc 1 518 0
 1521 0028 0020     		movs	r0, #0
 1522              	.LVL103:
 1523              	.L161:
 524:Middlewares/Third_Party/FreeRTOS/Source/CMSIS_RTOS_V2/cmsis_os2.c **** 
 1524              		.loc 1 524 0
 1525 002a 08BD     		pop	{r3, pc}
 1526              	.LVL104:
 1527              	.L168:
 1528              		.align	2
 1529              	.L167:
 1530 002c 00000000 		.word	.LANCHOR0
 1531              		.cfi_endproc
 1532              	.LFE122:
 1534              		.section	.text.osThreadSetPriority,"ax",%progbits
 1535              		.align	1
 1536              		.global	osThreadSetPriority
 1537              		.syntax unified
 1538              		.thumb
 1539              		.thumb_func
 1540              		.fpu fpv4-sp-d16
 1542              	osThreadSetPriority:
 1543              	.LFB123:
 526:Middlewares/Third_Party/FreeRTOS/Source/CMSIS_RTOS_V2/cmsis_os2.c ****   TaskHandle_t hTask = (TaskHandle_t)thread_id;
 1544              		.loc 1 526 0
 1545              		.cfi_startproc
 1546              		@ args = 0, pretend = 0, frame = 0
 1547              		@ frame_needed = 0, uses_anonymous_args = 0
 1548              	.LVL105:
 1549 0000 08B5     		push	{r3, lr}
 1550              	.LCFI17:
 1551              		.cfi_def_cfa_offset 8
 1552              		.cfi_offset 3, -8
 1553              		.cfi_offset 14, -4
 1554              	.LVL106:
 1555              	.LBB408:
 1556              	.LBB409:
 209:Drivers/CMSIS/Include/cmsis_gcc.h ****   return(result);
 1557              		.loc 2 209 0
 1558              		.syntax unified
ARM GAS  /tmp/ccZrYRqG.s 			page 55


 1559              	@ 209 "Drivers/CMSIS/Include/cmsis_gcc.h" 1
 1560 0002 EFF30583 		MRS r3, ipsr
 1561              	@ 0 "" 2
 1562              		.thumb
 1563              		.syntax unified
 1564              	.LBE409:
 1565              	.LBE408:
 530:Middlewares/Third_Party/FreeRTOS/Source/CMSIS_RTOS_V2/cmsis_os2.c ****     stat = osErrorISR;
 1566              		.loc 1 530 0
 1567 0006 93B9     		cbnz	r3, .L173
 1568              	.LBB410:
 1569              	.LBB411:
 386:Drivers/CMSIS/Include/cmsis_gcc.h ****   return(result);
 1570              		.loc 2 386 0
 1571              		.syntax unified
 1572              	@ 386 "Drivers/CMSIS/Include/cmsis_gcc.h" 1
 1573 0008 EFF31083 		MRS r3, primask
 1574              	@ 0 "" 2
 1575              		.thumb
 1576              		.syntax unified
 1577              	.LBE411:
 1578              	.LBE410:
 530:Middlewares/Third_Party/FreeRTOS/Source/CMSIS_RTOS_V2/cmsis_os2.c ****     stat = osErrorISR;
 1579              		.loc 1 530 0
 1580 000c 13B9     		cbnz	r3, .L171
 1581              	.LBB412:
 1582              	.LBB413:
 1583              		.loc 2 465 0
 1584              		.syntax unified
 1585              	@ 465 "Drivers/CMSIS/Include/cmsis_gcc.h" 1
 1586 000e EFF31183 		MRS r3, basepri
 1587              	@ 0 "" 2
 1588              		.thumb
 1589              		.syntax unified
 1590              	.LBE413:
 1591              	.LBE412:
 530:Middlewares/Third_Party/FreeRTOS/Source/CMSIS_RTOS_V2/cmsis_os2.c ****     stat = osErrorISR;
 1592              		.loc 1 530 0
 1593 0012 1BB1     		cbz	r3, .L172
 1594              	.L171:
 530:Middlewares/Third_Party/FreeRTOS/Source/CMSIS_RTOS_V2/cmsis_os2.c ****     stat = osErrorISR;
 1595              		.loc 1 530 0 is_stmt 0 discriminator 4
 1596 0014 0D4B     		ldr	r3, .L179
 1597 0016 1B68     		ldr	r3, [r3]
 1598 0018 022B     		cmp	r3, #2
 1599 001a 0BD0     		beq	.L174
 1600              	.L172:
 533:Middlewares/Third_Party/FreeRTOS/Source/CMSIS_RTOS_V2/cmsis_os2.c ****     stat = osErrorParameter;
 1601              		.loc 1 533 0 is_stmt 1
 1602 001c 68B1     		cbz	r0, .L175
 533:Middlewares/Third_Party/FreeRTOS/Source/CMSIS_RTOS_V2/cmsis_os2.c ****     stat = osErrorParameter;
 1603              		.loc 1 533 0 is_stmt 0 discriminator 1
 1604 001e 0029     		cmp	r1, #0
 1605 0020 0EDD     		ble	.L176
 533:Middlewares/Third_Party/FreeRTOS/Source/CMSIS_RTOS_V2/cmsis_os2.c ****     stat = osErrorParameter;
 1606              		.loc 1 533 0 discriminator 2
 1607 0022 3829     		cmp	r1, #56
ARM GAS  /tmp/ccZrYRqG.s 			page 56


 1608 0024 0FDC     		bgt	.L177
 1609              	.LVL107:
 538:Middlewares/Third_Party/FreeRTOS/Source/CMSIS_RTOS_V2/cmsis_os2.c ****   }
 1610              		.loc 1 538 0 is_stmt 1
 1611 0026 FFF7FEFF 		bl	vTaskPrioritySet
 1612              	.LVL108:
 537:Middlewares/Third_Party/FreeRTOS/Source/CMSIS_RTOS_V2/cmsis_os2.c ****     vTaskPrioritySet (hTask, (UBaseType_t)priority);
 1613              		.loc 1 537 0
 1614 002a 0020     		movs	r0, #0
 1615 002c 08BD     		pop	{r3, pc}
 1616              	.LVL109:
 1617              	.L173:
 531:Middlewares/Third_Party/FreeRTOS/Source/CMSIS_RTOS_V2/cmsis_os2.c ****   }
 1618              		.loc 1 531 0
 1619 002e 6FF00500 		mvn	r0, #5
 1620              	.LVL110:
 1621 0032 08BD     		pop	{r3, pc}
 1622              	.LVL111:
 1623              	.L174:
 1624 0034 6FF00500 		mvn	r0, #5
 1625              	.LVL112:
 1626 0038 08BD     		pop	{r3, pc}
 1627              	.LVL113:
 1628              	.L175:
 534:Middlewares/Third_Party/FreeRTOS/Source/CMSIS_RTOS_V2/cmsis_os2.c ****   }
 1629              		.loc 1 534 0
 1630 003a 6FF00300 		mvn	r0, #3
 1631              	.LVL114:
 1632 003e 08BD     		pop	{r3, pc}
 1633              	.LVL115:
 1634              	.L176:
 1635 0040 6FF00300 		mvn	r0, #3
 1636              	.LVL116:
 1637 0044 08BD     		pop	{r3, pc}
 1638              	.LVL117:
 1639              	.L177:
 1640 0046 6FF00300 		mvn	r0, #3
 1641              	.LVL118:
 542:Middlewares/Third_Party/FreeRTOS/Source/CMSIS_RTOS_V2/cmsis_os2.c **** 
 1642              		.loc 1 542 0
 1643 004a 08BD     		pop	{r3, pc}
 1644              	.L180:
 1645              		.align	2
 1646              	.L179:
 1647 004c 00000000 		.word	.LANCHOR0
 1648              		.cfi_endproc
 1649              	.LFE123:
 1651              		.section	.text.osThreadGetPriority,"ax",%progbits
 1652              		.align	1
 1653              		.global	osThreadGetPriority
 1654              		.syntax unified
 1655              		.thumb
 1656              		.thumb_func
 1657              		.fpu fpv4-sp-d16
 1659              	osThreadGetPriority:
 1660              	.LFB124:
 544:Middlewares/Third_Party/FreeRTOS/Source/CMSIS_RTOS_V2/cmsis_os2.c ****   TaskHandle_t hTask = (TaskHandle_t)thread_id;
ARM GAS  /tmp/ccZrYRqG.s 			page 57


 1661              		.loc 1 544 0
 1662              		.cfi_startproc
 1663              		@ args = 0, pretend = 0, frame = 0
 1664              		@ frame_needed = 0, uses_anonymous_args = 0
 1665              	.LVL119:
 1666 0000 08B5     		push	{r3, lr}
 1667              	.LCFI18:
 1668              		.cfi_def_cfa_offset 8
 1669              		.cfi_offset 3, -8
 1670              		.cfi_offset 14, -4
 1671              	.LVL120:
 1672              	.LBB414:
 1673              	.LBB415:
 209:Drivers/CMSIS/Include/cmsis_gcc.h ****   return(result);
 1674              		.loc 2 209 0
 1675              		.syntax unified
 1676              	@ 209 "Drivers/CMSIS/Include/cmsis_gcc.h" 1
 1677 0002 EFF30583 		MRS r3, ipsr
 1678              	@ 0 "" 2
 1679              		.thumb
 1680              		.syntax unified
 1681              	.LBE415:
 1682              	.LBE414:
 548:Middlewares/Third_Party/FreeRTOS/Source/CMSIS_RTOS_V2/cmsis_os2.c ****     prio = osPriorityError;
 1683              		.loc 1 548 0
 1684 0006 6BB9     		cbnz	r3, .L185
 1685              	.LBB416:
 1686              	.LBB417:
 386:Drivers/CMSIS/Include/cmsis_gcc.h ****   return(result);
 1687              		.loc 2 386 0
 1688              		.syntax unified
 1689              	@ 386 "Drivers/CMSIS/Include/cmsis_gcc.h" 1
 1690 0008 EFF31083 		MRS r3, primask
 1691              	@ 0 "" 2
 1692              		.thumb
 1693              		.syntax unified
 1694              	.LBE417:
 1695              	.LBE416:
 548:Middlewares/Third_Party/FreeRTOS/Source/CMSIS_RTOS_V2/cmsis_os2.c ****     prio = osPriorityError;
 1696              		.loc 1 548 0
 1697 000c 13B9     		cbnz	r3, .L183
 1698              	.LBB418:
 1699              	.LBB419:
 1700              		.loc 2 465 0
 1701              		.syntax unified
 1702              	@ 465 "Drivers/CMSIS/Include/cmsis_gcc.h" 1
 1703 000e EFF31183 		MRS r3, basepri
 1704              	@ 0 "" 2
 1705              		.thumb
 1706              		.syntax unified
 1707              	.LBE419:
 1708              	.LBE418:
 548:Middlewares/Third_Party/FreeRTOS/Source/CMSIS_RTOS_V2/cmsis_os2.c ****     prio = osPriorityError;
 1709              		.loc 1 548 0
 1710 0012 1BB1     		cbz	r3, .L184
 1711              	.L183:
 548:Middlewares/Third_Party/FreeRTOS/Source/CMSIS_RTOS_V2/cmsis_os2.c ****     prio = osPriorityError;
ARM GAS  /tmp/ccZrYRqG.s 			page 58


 1712              		.loc 1 548 0 is_stmt 0 discriminator 4
 1713 0014 084B     		ldr	r3, .L189
 1714 0016 1B68     		ldr	r3, [r3]
 1715 0018 022B     		cmp	r3, #2
 1716 001a 06D0     		beq	.L186
 1717              	.L184:
 548:Middlewares/Third_Party/FreeRTOS/Source/CMSIS_RTOS_V2/cmsis_os2.c ****     prio = osPriorityError;
 1718              		.loc 1 548 0 discriminator 6
 1719 001c 40B1     		cbz	r0, .L187
 551:Middlewares/Third_Party/FreeRTOS/Source/CMSIS_RTOS_V2/cmsis_os2.c ****   }
 1720              		.loc 1 551 0 is_stmt 1
 1721 001e FFF7FEFF 		bl	uxTaskPriorityGet
 1722              	.LVL121:
 1723 0022 08BD     		pop	{r3, pc}
 1724              	.LVL122:
 1725              	.L185:
 549:Middlewares/Third_Party/FreeRTOS/Source/CMSIS_RTOS_V2/cmsis_os2.c ****   } else {
 1726              		.loc 1 549 0
 1727 0024 4FF0FF30 		mov	r0, #-1
 1728              	.LVL123:
 1729 0028 08BD     		pop	{r3, pc}
 1730              	.LVL124:
 1731              	.L186:
 1732 002a 4FF0FF30 		mov	r0, #-1
 1733              	.LVL125:
 1734 002e 08BD     		pop	{r3, pc}
 1735              	.LVL126:
 1736              	.L187:
 1737 0030 4FF0FF30 		mov	r0, #-1
 1738              	.LVL127:
 555:Middlewares/Third_Party/FreeRTOS/Source/CMSIS_RTOS_V2/cmsis_os2.c **** 
 1739              		.loc 1 555 0
 1740 0034 08BD     		pop	{r3, pc}
 1741              	.L190:
 1742 0036 00BF     		.align	2
 1743              	.L189:
 1744 0038 00000000 		.word	.LANCHOR0
 1745              		.cfi_endproc
 1746              	.LFE124:
 1748              		.section	.text.osThreadYield,"ax",%progbits
 1749              		.align	1
 1750              		.global	osThreadYield
 1751              		.syntax unified
 1752              		.thumb
 1753              		.thumb_func
 1754              		.fpu fpv4-sp-d16
 1756              	osThreadYield:
 1757              	.LFB125:
 557:Middlewares/Third_Party/FreeRTOS/Source/CMSIS_RTOS_V2/cmsis_os2.c ****   osStatus_t stat;
 1758              		.loc 1 557 0
 1759              		.cfi_startproc
 1760              		@ args = 0, pretend = 0, frame = 0
 1761              		@ frame_needed = 0, uses_anonymous_args = 0
 1762              		@ link register save eliminated.
 1763              	.LBB420:
 1764              	.LBB421:
 209:Drivers/CMSIS/Include/cmsis_gcc.h ****   return(result);
ARM GAS  /tmp/ccZrYRqG.s 			page 59


 1765              		.loc 2 209 0
 1766              		.syntax unified
 1767              	@ 209 "Drivers/CMSIS/Include/cmsis_gcc.h" 1
 1768 0000 EFF30583 		MRS r3, ipsr
 1769              	@ 0 "" 2
 1770              		.thumb
 1771              		.syntax unified
 1772              	.LBE421:
 1773              	.LBE420:
 560:Middlewares/Third_Party/FreeRTOS/Source/CMSIS_RTOS_V2/cmsis_os2.c ****     stat = osErrorISR;
 1774              		.loc 1 560 0
 1775 0004 9BB9     		cbnz	r3, .L195
 1776              	.LBB422:
 1777              	.LBB423:
 386:Drivers/CMSIS/Include/cmsis_gcc.h ****   return(result);
 1778              		.loc 2 386 0
 1779              		.syntax unified
 1780              	@ 386 "Drivers/CMSIS/Include/cmsis_gcc.h" 1
 1781 0006 EFF31083 		MRS r3, primask
 1782              	@ 0 "" 2
 1783              		.thumb
 1784              		.syntax unified
 1785              	.LBE423:
 1786              	.LBE422:
 560:Middlewares/Third_Party/FreeRTOS/Source/CMSIS_RTOS_V2/cmsis_os2.c ****     stat = osErrorISR;
 1787              		.loc 1 560 0
 1788 000a 13B9     		cbnz	r3, .L193
 1789              	.LBB424:
 1790              	.LBB425:
 1791              		.loc 2 465 0
 1792              		.syntax unified
 1793              	@ 465 "Drivers/CMSIS/Include/cmsis_gcc.h" 1
 1794 000c EFF31183 		MRS r3, basepri
 1795              	@ 0 "" 2
 1796              		.thumb
 1797              		.syntax unified
 1798              	.LBE425:
 1799              	.LBE424:
 560:Middlewares/Third_Party/FreeRTOS/Source/CMSIS_RTOS_V2/cmsis_os2.c ****     stat = osErrorISR;
 1800              		.loc 1 560 0
 1801 0010 1BB1     		cbz	r3, .L194
 1802              	.L193:
 560:Middlewares/Third_Party/FreeRTOS/Source/CMSIS_RTOS_V2/cmsis_os2.c ****     stat = osErrorISR;
 1803              		.loc 1 560 0 is_stmt 0 discriminator 4
 1804 0012 0A4B     		ldr	r3, .L197
 1805 0014 1B68     		ldr	r3, [r3]
 1806 0016 022B     		cmp	r3, #2
 1807 0018 0CD0     		beq	.L196
 1808              	.L194:
 1809              	.LVL128:
 564:Middlewares/Third_Party/FreeRTOS/Source/CMSIS_RTOS_V2/cmsis_os2.c ****   }
 1810              		.loc 1 564 0 is_stmt 1
 1811 001a 4FF08052 		mov	r2, #268435456
 1812 001e 084B     		ldr	r3, .L197+4
 1813 0020 1A60     		str	r2, [r3]
 1814              		.syntax unified
 1815              	@ 564 "Middlewares/Third_Party/FreeRTOS/Source/CMSIS_RTOS_V2/cmsis_os2.c" 1
ARM GAS  /tmp/ccZrYRqG.s 			page 60


 1816 0022 BFF34F8F 		dsb
 1817              	@ 0 "" 2
 1818              	@ 564 "Middlewares/Third_Party/FreeRTOS/Source/CMSIS_RTOS_V2/cmsis_os2.c" 1
 1819 0026 BFF36F8F 		isb
 1820              	@ 0 "" 2
 563:Middlewares/Third_Party/FreeRTOS/Source/CMSIS_RTOS_V2/cmsis_os2.c ****     taskYIELD();
 1821              		.loc 1 563 0
 1822              		.thumb
 1823              		.syntax unified
 1824 002a 0020     		movs	r0, #0
 1825 002c 7047     		bx	lr
 1826              	.LVL129:
 1827              	.L195:
 561:Middlewares/Third_Party/FreeRTOS/Source/CMSIS_RTOS_V2/cmsis_os2.c ****   } else {
 1828              		.loc 1 561 0
 1829 002e 6FF00500 		mvn	r0, #5
 1830 0032 7047     		bx	lr
 1831              	.L196:
 1832 0034 6FF00500 		mvn	r0, #5
 1833              	.LVL130:
 568:Middlewares/Third_Party/FreeRTOS/Source/CMSIS_RTOS_V2/cmsis_os2.c **** 
 1834              		.loc 1 568 0
 1835 0038 7047     		bx	lr
 1836              	.L198:
 1837 003a 00BF     		.align	2
 1838              	.L197:
 1839 003c 00000000 		.word	.LANCHOR0
 1840 0040 04ED00E0 		.word	-536810236
 1841              		.cfi_endproc
 1842              	.LFE125:
 1844              		.section	.text.osThreadSuspend,"ax",%progbits
 1845              		.align	1
 1846              		.global	osThreadSuspend
 1847              		.syntax unified
 1848              		.thumb
 1849              		.thumb_func
 1850              		.fpu fpv4-sp-d16
 1852              	osThreadSuspend:
 1853              	.LFB126:
 570:Middlewares/Third_Party/FreeRTOS/Source/CMSIS_RTOS_V2/cmsis_os2.c ****   TaskHandle_t hTask = (TaskHandle_t)thread_id;
 1854              		.loc 1 570 0
 1855              		.cfi_startproc
 1856              		@ args = 0, pretend = 0, frame = 0
 1857              		@ frame_needed = 0, uses_anonymous_args = 0
 1858              	.LVL131:
 1859 0000 08B5     		push	{r3, lr}
 1860              	.LCFI19:
 1861              		.cfi_def_cfa_offset 8
 1862              		.cfi_offset 3, -8
 1863              		.cfi_offset 14, -4
 1864              	.LVL132:
 1865              	.LBB426:
 1866              	.LBB427:
 209:Drivers/CMSIS/Include/cmsis_gcc.h ****   return(result);
 1867              		.loc 2 209 0
 1868              		.syntax unified
 1869              	@ 209 "Drivers/CMSIS/Include/cmsis_gcc.h" 1
ARM GAS  /tmp/ccZrYRqG.s 			page 61


 1870 0002 EFF30583 		MRS r3, ipsr
 1871              	@ 0 "" 2
 1872              		.thumb
 1873              		.syntax unified
 1874              	.LBE427:
 1875              	.LBE426:
 574:Middlewares/Third_Party/FreeRTOS/Source/CMSIS_RTOS_V2/cmsis_os2.c ****     stat = osErrorISR;
 1876              		.loc 1 574 0
 1877 0006 73B9     		cbnz	r3, .L203
 1878              	.LBB428:
 1879              	.LBB429:
 386:Drivers/CMSIS/Include/cmsis_gcc.h ****   return(result);
 1880              		.loc 2 386 0
 1881              		.syntax unified
 1882              	@ 386 "Drivers/CMSIS/Include/cmsis_gcc.h" 1
 1883 0008 EFF31083 		MRS r3, primask
 1884              	@ 0 "" 2
 1885              		.thumb
 1886              		.syntax unified
 1887              	.LBE429:
 1888              	.LBE428:
 574:Middlewares/Third_Party/FreeRTOS/Source/CMSIS_RTOS_V2/cmsis_os2.c ****     stat = osErrorISR;
 1889              		.loc 1 574 0
 1890 000c 13B9     		cbnz	r3, .L201
 1891              	.LBB430:
 1892              	.LBB431:
 1893              		.loc 2 465 0
 1894              		.syntax unified
 1895              	@ 465 "Drivers/CMSIS/Include/cmsis_gcc.h" 1
 1896 000e EFF31183 		MRS r3, basepri
 1897              	@ 0 "" 2
 1898              		.thumb
 1899              		.syntax unified
 1900              	.LBE431:
 1901              	.LBE430:
 574:Middlewares/Third_Party/FreeRTOS/Source/CMSIS_RTOS_V2/cmsis_os2.c ****     stat = osErrorISR;
 1902              		.loc 1 574 0
 1903 0012 1BB1     		cbz	r3, .L202
 1904              	.L201:
 574:Middlewares/Third_Party/FreeRTOS/Source/CMSIS_RTOS_V2/cmsis_os2.c ****     stat = osErrorISR;
 1905              		.loc 1 574 0 is_stmt 0 discriminator 4
 1906 0014 084B     		ldr	r3, .L207
 1907 0016 1B68     		ldr	r3, [r3]
 1908 0018 022B     		cmp	r3, #2
 1909 001a 07D0     		beq	.L204
 1910              	.L202:
 577:Middlewares/Third_Party/FreeRTOS/Source/CMSIS_RTOS_V2/cmsis_os2.c ****     stat = osErrorParameter;
 1911              		.loc 1 577 0 is_stmt 1
 1912 001c 48B1     		cbz	r0, .L205
 1913              	.LVL133:
 582:Middlewares/Third_Party/FreeRTOS/Source/CMSIS_RTOS_V2/cmsis_os2.c ****   }
 1914              		.loc 1 582 0
 1915 001e FFF7FEFF 		bl	vTaskSuspend
 1916              	.LVL134:
 581:Middlewares/Third_Party/FreeRTOS/Source/CMSIS_RTOS_V2/cmsis_os2.c ****     vTaskSuspend (hTask);
 1917              		.loc 1 581 0
 1918 0022 0020     		movs	r0, #0
ARM GAS  /tmp/ccZrYRqG.s 			page 62


 1919 0024 08BD     		pop	{r3, pc}
 1920              	.LVL135:
 1921              	.L203:
 575:Middlewares/Third_Party/FreeRTOS/Source/CMSIS_RTOS_V2/cmsis_os2.c ****   }
 1922              		.loc 1 575 0
 1923 0026 6FF00500 		mvn	r0, #5
 1924              	.LVL136:
 1925 002a 08BD     		pop	{r3, pc}
 1926              	.LVL137:
 1927              	.L204:
 1928 002c 6FF00500 		mvn	r0, #5
 1929              	.LVL138:
 1930 0030 08BD     		pop	{r3, pc}
 1931              	.LVL139:
 1932              	.L205:
 578:Middlewares/Third_Party/FreeRTOS/Source/CMSIS_RTOS_V2/cmsis_os2.c ****   }
 1933              		.loc 1 578 0
 1934 0032 6FF00300 		mvn	r0, #3
 1935              	.LVL140:
 586:Middlewares/Third_Party/FreeRTOS/Source/CMSIS_RTOS_V2/cmsis_os2.c **** 
 1936              		.loc 1 586 0
 1937 0036 08BD     		pop	{r3, pc}
 1938              	.L208:
 1939              		.align	2
 1940              	.L207:
 1941 0038 00000000 		.word	.LANCHOR0
 1942              		.cfi_endproc
 1943              	.LFE126:
 1945              		.section	.text.osThreadResume,"ax",%progbits
 1946              		.align	1
 1947              		.global	osThreadResume
 1948              		.syntax unified
 1949              		.thumb
 1950              		.thumb_func
 1951              		.fpu fpv4-sp-d16
 1953              	osThreadResume:
 1954              	.LFB127:
 588:Middlewares/Third_Party/FreeRTOS/Source/CMSIS_RTOS_V2/cmsis_os2.c ****   TaskHandle_t hTask = (TaskHandle_t)thread_id;
 1955              		.loc 1 588 0
 1956              		.cfi_startproc
 1957              		@ args = 0, pretend = 0, frame = 0
 1958              		@ frame_needed = 0, uses_anonymous_args = 0
 1959              	.LVL141:
 1960 0000 08B5     		push	{r3, lr}
 1961              	.LCFI20:
 1962              		.cfi_def_cfa_offset 8
 1963              		.cfi_offset 3, -8
 1964              		.cfi_offset 14, -4
 1965              	.LVL142:
 1966              	.LBB432:
 1967              	.LBB433:
 209:Drivers/CMSIS/Include/cmsis_gcc.h ****   return(result);
 1968              		.loc 2 209 0
 1969              		.syntax unified
 1970              	@ 209 "Drivers/CMSIS/Include/cmsis_gcc.h" 1
 1971 0002 EFF30583 		MRS r3, ipsr
 1972              	@ 0 "" 2
ARM GAS  /tmp/ccZrYRqG.s 			page 63


 1973              		.thumb
 1974              		.syntax unified
 1975              	.LBE433:
 1976              	.LBE432:
 592:Middlewares/Third_Party/FreeRTOS/Source/CMSIS_RTOS_V2/cmsis_os2.c ****     stat = osErrorISR;
 1977              		.loc 1 592 0
 1978 0006 73B9     		cbnz	r3, .L213
 1979              	.LBB434:
 1980              	.LBB435:
 386:Drivers/CMSIS/Include/cmsis_gcc.h ****   return(result);
 1981              		.loc 2 386 0
 1982              		.syntax unified
 1983              	@ 386 "Drivers/CMSIS/Include/cmsis_gcc.h" 1
 1984 0008 EFF31083 		MRS r3, primask
 1985              	@ 0 "" 2
 1986              		.thumb
 1987              		.syntax unified
 1988              	.LBE435:
 1989              	.LBE434:
 592:Middlewares/Third_Party/FreeRTOS/Source/CMSIS_RTOS_V2/cmsis_os2.c ****     stat = osErrorISR;
 1990              		.loc 1 592 0
 1991 000c 13B9     		cbnz	r3, .L211
 1992              	.LBB436:
 1993              	.LBB437:
 1994              		.loc 2 465 0
 1995              		.syntax unified
 1996              	@ 465 "Drivers/CMSIS/Include/cmsis_gcc.h" 1
 1997 000e EFF31183 		MRS r3, basepri
 1998              	@ 0 "" 2
 1999              		.thumb
 2000              		.syntax unified
 2001              	.LBE437:
 2002              	.LBE436:
 592:Middlewares/Third_Party/FreeRTOS/Source/CMSIS_RTOS_V2/cmsis_os2.c ****     stat = osErrorISR;
 2003              		.loc 1 592 0
 2004 0012 1BB1     		cbz	r3, .L212
 2005              	.L211:
 592:Middlewares/Third_Party/FreeRTOS/Source/CMSIS_RTOS_V2/cmsis_os2.c ****     stat = osErrorISR;
 2006              		.loc 1 592 0 is_stmt 0 discriminator 4
 2007 0014 084B     		ldr	r3, .L217
 2008 0016 1B68     		ldr	r3, [r3]
 2009 0018 022B     		cmp	r3, #2
 2010 001a 07D0     		beq	.L214
 2011              	.L212:
 595:Middlewares/Third_Party/FreeRTOS/Source/CMSIS_RTOS_V2/cmsis_os2.c ****     stat = osErrorParameter;
 2012              		.loc 1 595 0 is_stmt 1
 2013 001c 48B1     		cbz	r0, .L215
 2014              	.LVL143:
 600:Middlewares/Third_Party/FreeRTOS/Source/CMSIS_RTOS_V2/cmsis_os2.c ****   }
 2015              		.loc 1 600 0
 2016 001e FFF7FEFF 		bl	vTaskResume
 2017              	.LVL144:
 599:Middlewares/Third_Party/FreeRTOS/Source/CMSIS_RTOS_V2/cmsis_os2.c ****     vTaskResume (hTask);
 2018              		.loc 1 599 0
 2019 0022 0020     		movs	r0, #0
 2020 0024 08BD     		pop	{r3, pc}
 2021              	.LVL145:
ARM GAS  /tmp/ccZrYRqG.s 			page 64


 2022              	.L213:
 593:Middlewares/Third_Party/FreeRTOS/Source/CMSIS_RTOS_V2/cmsis_os2.c ****   }
 2023              		.loc 1 593 0
 2024 0026 6FF00500 		mvn	r0, #5
 2025              	.LVL146:
 2026 002a 08BD     		pop	{r3, pc}
 2027              	.LVL147:
 2028              	.L214:
 2029 002c 6FF00500 		mvn	r0, #5
 2030              	.LVL148:
 2031 0030 08BD     		pop	{r3, pc}
 2032              	.LVL149:
 2033              	.L215:
 596:Middlewares/Third_Party/FreeRTOS/Source/CMSIS_RTOS_V2/cmsis_os2.c ****   }
 2034              		.loc 1 596 0
 2035 0032 6FF00300 		mvn	r0, #3
 2036              	.LVL150:
 604:Middlewares/Third_Party/FreeRTOS/Source/CMSIS_RTOS_V2/cmsis_os2.c **** 
 2037              		.loc 1 604 0
 2038 0036 08BD     		pop	{r3, pc}
 2039              	.L218:
 2040              		.align	2
 2041              	.L217:
 2042 0038 00000000 		.word	.LANCHOR0
 2043              		.cfi_endproc
 2044              	.LFE127:
 2046              		.section	.text.osThreadExit,"ax",%progbits
 2047              		.align	1
 2048              		.global	osThreadExit
 2049              		.syntax unified
 2050              		.thumb
 2051              		.thumb_func
 2052              		.fpu fpv4-sp-d16
 2054              	osThreadExit:
 2055              	.LFB128:
 606:Middlewares/Third_Party/FreeRTOS/Source/CMSIS_RTOS_V2/cmsis_os2.c **** #ifndef USE_FreeRTOS_HEAP_1
 2056              		.loc 1 606 0
 2057              		.cfi_startproc
 2058              		@ Volatile: function does not return.
 2059              		@ args = 0, pretend = 0, frame = 0
 2060              		@ frame_needed = 0, uses_anonymous_args = 0
 2061 0000 08B5     		push	{r3, lr}
 2062              	.LCFI21:
 2063              		.cfi_def_cfa_offset 8
 2064              		.cfi_offset 3, -8
 2065              		.cfi_offset 14, -4
 608:Middlewares/Third_Party/FreeRTOS/Source/CMSIS_RTOS_V2/cmsis_os2.c **** #endif
 2066              		.loc 1 608 0
 2067 0002 0020     		movs	r0, #0
 2068 0004 FFF7FEFF 		bl	vTaskDelete
 2069              	.LVL151:
 2070              	.L220:
 2071 0008 FEE7     		b	.L220
 2072              		.cfi_endproc
 2073              	.LFE128:
 2075              		.section	.text.osThreadTerminate,"ax",%progbits
 2076              		.align	1
ARM GAS  /tmp/ccZrYRqG.s 			page 65


 2077              		.global	osThreadTerminate
 2078              		.syntax unified
 2079              		.thumb
 2080              		.thumb_func
 2081              		.fpu fpv4-sp-d16
 2083              	osThreadTerminate:
 2084              	.LFB129:
 613:Middlewares/Third_Party/FreeRTOS/Source/CMSIS_RTOS_V2/cmsis_os2.c ****   TaskHandle_t hTask = (TaskHandle_t)thread_id;
 2085              		.loc 1 613 0
 2086              		.cfi_startproc
 2087              		@ args = 0, pretend = 0, frame = 0
 2088              		@ frame_needed = 0, uses_anonymous_args = 0
 2089              	.LVL152:
 2090              	.LBB438:
 2091              	.LBB439:
 209:Drivers/CMSIS/Include/cmsis_gcc.h ****   return(result);
 2092              		.loc 2 209 0
 2093              		.syntax unified
 2094              	@ 209 "Drivers/CMSIS/Include/cmsis_gcc.h" 1
 2095 0000 EFF30583 		MRS r3, ipsr
 2096              	@ 0 "" 2
 2097              		.thumb
 2098              		.syntax unified
 2099              	.LBE439:
 2100              	.LBE438:
 619:Middlewares/Third_Party/FreeRTOS/Source/CMSIS_RTOS_V2/cmsis_os2.c ****     stat = osErrorISR;
 2101              		.loc 1 619 0
 2102 0004 ABB9     		cbnz	r3, .L226
 2103              	.LBB440:
 2104              	.LBB441:
 386:Drivers/CMSIS/Include/cmsis_gcc.h ****   return(result);
 2105              		.loc 2 386 0
 2106              		.syntax unified
 2107              	@ 386 "Drivers/CMSIS/Include/cmsis_gcc.h" 1
 2108 0006 EFF31083 		MRS r3, primask
 2109              	@ 0 "" 2
 2110              		.thumb
 2111              		.syntax unified
 2112              	.LBE441:
 2113              	.LBE440:
 619:Middlewares/Third_Party/FreeRTOS/Source/CMSIS_RTOS_V2/cmsis_os2.c ****     stat = osErrorISR;
 2114              		.loc 1 619 0
 2115 000a 13B9     		cbnz	r3, .L224
 2116              	.LBB442:
 2117              	.LBB443:
 2118              		.loc 2 465 0
 2119              		.syntax unified
 2120              	@ 465 "Drivers/CMSIS/Include/cmsis_gcc.h" 1
 2121 000c EFF31183 		MRS r3, basepri
 2122              	@ 0 "" 2
 2123              		.thumb
 2124              		.syntax unified
 2125              	.LBE443:
 2126              	.LBE442:
 619:Middlewares/Third_Party/FreeRTOS/Source/CMSIS_RTOS_V2/cmsis_os2.c ****     stat = osErrorISR;
 2127              		.loc 1 619 0
 2128 0010 1BB1     		cbz	r3, .L225
ARM GAS  /tmp/ccZrYRqG.s 			page 66


 2129              	.L224:
 619:Middlewares/Third_Party/FreeRTOS/Source/CMSIS_RTOS_V2/cmsis_os2.c ****     stat = osErrorISR;
 2130              		.loc 1 619 0 is_stmt 0 discriminator 4
 2131 0012 0E4B     		ldr	r3, .L234
 2132 0014 1B68     		ldr	r3, [r3]
 2133 0016 022B     		cmp	r3, #2
 2134 0018 0ED0     		beq	.L227
 2135              	.L225:
 622:Middlewares/Third_Party/FreeRTOS/Source/CMSIS_RTOS_V2/cmsis_os2.c ****     stat = osErrorParameter;
 2136              		.loc 1 622 0 is_stmt 1
 2137 001a 80B1     		cbz	r0, .L228
 613:Middlewares/Third_Party/FreeRTOS/Source/CMSIS_RTOS_V2/cmsis_os2.c ****   TaskHandle_t hTask = (TaskHandle_t)thread_id;
 2138              		.loc 1 613 0
 2139 001c 10B5     		push	{r4, lr}
 2140              	.LCFI22:
 2141              		.cfi_def_cfa_offset 8
 2142              		.cfi_offset 4, -8
 2143              		.cfi_offset 14, -4
 2144 001e 0446     		mov	r4, r0
 626:Middlewares/Third_Party/FreeRTOS/Source/CMSIS_RTOS_V2/cmsis_os2.c **** 
 2145              		.loc 1 626 0
 2146 0020 FFF7FEFF 		bl	eTaskGetState
 2147              	.LVL153:
 628:Middlewares/Third_Party/FreeRTOS/Source/CMSIS_RTOS_V2/cmsis_os2.c ****       stat = osOK;
 2148              		.loc 1 628 0
 2149 0024 0428     		cmp	r0, #4
 2150 0026 0DD0     		beq	.L229
 2151              	.LVL154:
 630:Middlewares/Third_Party/FreeRTOS/Source/CMSIS_RTOS_V2/cmsis_os2.c ****     } else {
 2152              		.loc 1 630 0
 2153 0028 2046     		mov	r0, r4
 2154              	.LVL155:
 2155 002a FFF7FEFF 		bl	vTaskDelete
 2156              	.LVL156:
 629:Middlewares/Third_Party/FreeRTOS/Source/CMSIS_RTOS_V2/cmsis_os2.c ****       vTaskDelete (hTask);
 2157              		.loc 1 629 0
 2158 002e 0020     		movs	r0, #0
 2159 0030 10BD     		pop	{r4, pc}
 2160              	.LVL157:
 2161              	.L226:
 2162              	.LCFI23:
 2163              		.cfi_def_cfa_offset 0
 2164              		.cfi_restore 4
 2165              		.cfi_restore 14
 620:Middlewares/Third_Party/FreeRTOS/Source/CMSIS_RTOS_V2/cmsis_os2.c ****   }
 2166              		.loc 1 620 0
 2167 0032 6FF00500 		mvn	r0, #5
 2168              	.LVL158:
 2169 0036 7047     		bx	lr
 2170              	.LVL159:
 2171              	.L227:
 2172 0038 6FF00500 		mvn	r0, #5
 2173              	.LVL160:
 2174 003c 7047     		bx	lr
 2175              	.LVL161:
 2176              	.L228:
 623:Middlewares/Third_Party/FreeRTOS/Source/CMSIS_RTOS_V2/cmsis_os2.c ****   }
ARM GAS  /tmp/ccZrYRqG.s 			page 67


 2177              		.loc 1 623 0
 2178 003e 6FF00300 		mvn	r0, #3
 2179              	.LVL162:
 2180 0042 7047     		bx	lr
 2181              	.LVL163:
 2182              	.L229:
 2183              	.LCFI24:
 2184              		.cfi_def_cfa_offset 8
 2185              		.cfi_offset 4, -8
 2186              		.cfi_offset 14, -4
 632:Middlewares/Third_Party/FreeRTOS/Source/CMSIS_RTOS_V2/cmsis_os2.c ****     }
 2187              		.loc 1 632 0
 2188 0044 6FF00200 		mvn	r0, #2
 2189              	.LVL164:
 640:Middlewares/Third_Party/FreeRTOS/Source/CMSIS_RTOS_V2/cmsis_os2.c **** 
 2190              		.loc 1 640 0
 2191 0048 10BD     		pop	{r4, pc}
 2192              	.LVL165:
 2193              	.L235:
 2194 004a 00BF     		.align	2
 2195              	.L234:
 2196 004c 00000000 		.word	.LANCHOR0
 2197              		.cfi_endproc
 2198              	.LFE129:
 2200              		.section	.text.osThreadGetCount,"ax",%progbits
 2201              		.align	1
 2202              		.global	osThreadGetCount
 2203              		.syntax unified
 2204              		.thumb
 2205              		.thumb_func
 2206              		.fpu fpv4-sp-d16
 2208              	osThreadGetCount:
 2209              	.LFB130:
 642:Middlewares/Third_Party/FreeRTOS/Source/CMSIS_RTOS_V2/cmsis_os2.c ****   uint32_t count;
 2210              		.loc 1 642 0
 2211              		.cfi_startproc
 2212              		@ args = 0, pretend = 0, frame = 0
 2213              		@ frame_needed = 0, uses_anonymous_args = 0
 2214              	.LBB444:
 2215              	.LBB445:
 209:Drivers/CMSIS/Include/cmsis_gcc.h ****   return(result);
 2216              		.loc 2 209 0
 2217              		.syntax unified
 2218              	@ 209 "Drivers/CMSIS/Include/cmsis_gcc.h" 1
 2219 0000 EFF30580 		MRS r0, ipsr
 2220              	@ 0 "" 2
 2221              		.thumb
 2222              		.syntax unified
 2223              	.LBE445:
 2224              	.LBE444:
 645:Middlewares/Third_Party/FreeRTOS/Source/CMSIS_RTOS_V2/cmsis_os2.c ****     count = 0U;
 2225              		.loc 1 645 0
 2226 0004 68B9     		cbnz	r0, .L240
 642:Middlewares/Third_Party/FreeRTOS/Source/CMSIS_RTOS_V2/cmsis_os2.c ****   uint32_t count;
 2227              		.loc 1 642 0
 2228 0006 08B5     		push	{r3, lr}
 2229              	.LCFI25:
ARM GAS  /tmp/ccZrYRqG.s 			page 68


 2230              		.cfi_def_cfa_offset 8
 2231              		.cfi_offset 3, -8
 2232              		.cfi_offset 14, -4
 2233              	.LBB446:
 2234              	.LBB447:
 386:Drivers/CMSIS/Include/cmsis_gcc.h ****   return(result);
 2235              		.loc 2 386 0
 2236              		.syntax unified
 2237              	@ 386 "Drivers/CMSIS/Include/cmsis_gcc.h" 1
 2238 0008 EFF31083 		MRS r3, primask
 2239              	@ 0 "" 2
 2240              		.thumb
 2241              		.syntax unified
 2242              	.LBE447:
 2243              	.LBE446:
 645:Middlewares/Third_Party/FreeRTOS/Source/CMSIS_RTOS_V2/cmsis_os2.c ****     count = 0U;
 2244              		.loc 1 645 0
 2245 000c 13B9     		cbnz	r3, .L238
 2246              	.LBB448:
 2247              	.LBB449:
 2248              		.loc 2 465 0
 2249              		.syntax unified
 2250              	@ 465 "Drivers/CMSIS/Include/cmsis_gcc.h" 1
 2251 000e EFF31183 		MRS r3, basepri
 2252              	@ 0 "" 2
 2253              		.thumb
 2254              		.syntax unified
 2255              	.LBE449:
 2256              	.LBE448:
 645:Middlewares/Third_Party/FreeRTOS/Source/CMSIS_RTOS_V2/cmsis_os2.c ****     count = 0U;
 2257              		.loc 1 645 0
 2258 0012 1BB1     		cbz	r3, .L239
 2259              	.L238:
 645:Middlewares/Third_Party/FreeRTOS/Source/CMSIS_RTOS_V2/cmsis_os2.c ****     count = 0U;
 2260              		.loc 1 645 0 is_stmt 0 discriminator 4
 2261 0014 044B     		ldr	r3, .L245
 2262 0016 1B68     		ldr	r3, [r3]
 2263 0018 022B     		cmp	r3, #2
 2264 001a 04D0     		beq	.L236
 2265              	.L239:
 648:Middlewares/Third_Party/FreeRTOS/Source/CMSIS_RTOS_V2/cmsis_os2.c ****   }
 2266              		.loc 1 648 0 is_stmt 1
 2267 001c FFF7FEFF 		bl	uxTaskGetNumberOfTasks
 2268              	.LVL166:
 2269 0020 08BD     		pop	{r3, pc}
 2270              	.LVL167:
 2271              	.L240:
 2272              	.LCFI26:
 2273              		.cfi_def_cfa_offset 0
 2274              		.cfi_restore 3
 2275              		.cfi_restore 14
 646:Middlewares/Third_Party/FreeRTOS/Source/CMSIS_RTOS_V2/cmsis_os2.c ****   } else {
 2276              		.loc 1 646 0
 2277 0022 0020     		movs	r0, #0
 2278              	.LVL168:
 651:Middlewares/Third_Party/FreeRTOS/Source/CMSIS_RTOS_V2/cmsis_os2.c **** }
 2279              		.loc 1 651 0
ARM GAS  /tmp/ccZrYRqG.s 			page 69


 2280 0024 7047     		bx	lr
 2281              	.LVL169:
 2282              	.L236:
 2283              	.LCFI27:
 2284              		.cfi_def_cfa_offset 8
 2285              		.cfi_offset 3, -8
 2286              		.cfi_offset 14, -4
 652:Middlewares/Third_Party/FreeRTOS/Source/CMSIS_RTOS_V2/cmsis_os2.c **** 
 2287              		.loc 1 652 0
 2288 0026 08BD     		pop	{r3, pc}
 2289              	.L246:
 2290              		.align	2
 2291              	.L245:
 2292 0028 00000000 		.word	.LANCHOR0
 2293              		.cfi_endproc
 2294              	.LFE130:
 2296              		.section	.text.osThreadEnumerate,"ax",%progbits
 2297              		.align	1
 2298              		.global	osThreadEnumerate
 2299              		.syntax unified
 2300              		.thumb
 2301              		.thumb_func
 2302              		.fpu fpv4-sp-d16
 2304              	osThreadEnumerate:
 2305              	.LFB131:
 654:Middlewares/Third_Party/FreeRTOS/Source/CMSIS_RTOS_V2/cmsis_os2.c ****   uint32_t i, count;
 2306              		.loc 1 654 0
 2307              		.cfi_startproc
 2308              		@ args = 0, pretend = 0, frame = 0
 2309              		@ frame_needed = 0, uses_anonymous_args = 0
 2310              	.LVL170:
 2311 0000 2DE9F041 		push	{r4, r5, r6, r7, r8, lr}
 2312              	.LCFI28:
 2313              		.cfi_def_cfa_offset 24
 2314              		.cfi_offset 4, -24
 2315              		.cfi_offset 5, -20
 2316              		.cfi_offset 6, -16
 2317              		.cfi_offset 7, -12
 2318              		.cfi_offset 8, -8
 2319              		.cfi_offset 14, -4
 2320              	.LBB450:
 2321              	.LBB451:
 209:Drivers/CMSIS/Include/cmsis_gcc.h ****   return(result);
 2322              		.loc 2 209 0
 2323              		.syntax unified
 2324              	@ 209 "Drivers/CMSIS/Include/cmsis_gcc.h" 1
 2325 0004 EFF30584 		MRS r4, ipsr
 2326              	@ 0 "" 2
 2327              		.thumb
 2328              		.syntax unified
 2329              	.LBE451:
 2330              	.LBE450:
 658:Middlewares/Third_Party/FreeRTOS/Source/CMSIS_RTOS_V2/cmsis_os2.c ****     count = 0U;
 2331              		.loc 1 658 0
 2332 0008 9CBB     		cbnz	r4, .L254
 2333              	.LBB452:
 2334              	.LBB453:
ARM GAS  /tmp/ccZrYRqG.s 			page 70


 386:Drivers/CMSIS/Include/cmsis_gcc.h ****   return(result);
 2335              		.loc 2 386 0
 2336              		.syntax unified
 2337              	@ 386 "Drivers/CMSIS/Include/cmsis_gcc.h" 1
 2338 000a EFF31083 		MRS r3, primask
 2339              	@ 0 "" 2
 2340              		.thumb
 2341              		.syntax unified
 2342              	.LBE453:
 2343              	.LBE452:
 658:Middlewares/Third_Party/FreeRTOS/Source/CMSIS_RTOS_V2/cmsis_os2.c ****     count = 0U;
 2344              		.loc 1 658 0
 2345 000e 13B9     		cbnz	r3, .L249
 2346              	.LBB454:
 2347              	.LBB455:
 2348              		.loc 2 465 0
 2349              		.syntax unified
 2350              	@ 465 "Drivers/CMSIS/Include/cmsis_gcc.h" 1
 2351 0010 EFF31183 		MRS r3, basepri
 2352              	@ 0 "" 2
 2353              		.thumb
 2354              		.syntax unified
 2355              	.LBE455:
 2356              	.LBE454:
 658:Middlewares/Third_Party/FreeRTOS/Source/CMSIS_RTOS_V2/cmsis_os2.c ****     count = 0U;
 2357              		.loc 1 658 0
 2358 0014 1BB1     		cbz	r3, .L250
 2359              	.L249:
 658:Middlewares/Third_Party/FreeRTOS/Source/CMSIS_RTOS_V2/cmsis_os2.c ****     count = 0U;
 2360              		.loc 1 658 0 is_stmt 0 discriminator 4
 2361 0016 194B     		ldr	r3, .L259
 2362 0018 1B68     		ldr	r3, [r3]
 2363 001a 022B     		cmp	r3, #2
 2364 001c 2AD0     		beq	.L247
 2365              	.L250:
 658:Middlewares/Third_Party/FreeRTOS/Source/CMSIS_RTOS_V2/cmsis_os2.c ****     count = 0U;
 2366              		.loc 1 658 0 discriminator 6
 2367 001e 48B3     		cbz	r0, .L247
 658:Middlewares/Third_Party/FreeRTOS/Source/CMSIS_RTOS_V2/cmsis_os2.c ****     count = 0U;
 2368              		.loc 1 658 0 discriminator 7
 2369 0020 09B9     		cbnz	r1, .L258
 659:Middlewares/Third_Party/FreeRTOS/Source/CMSIS_RTOS_V2/cmsis_os2.c ****   } else {
 2370              		.loc 1 659 0 is_stmt 1
 2371 0022 0C46     		mov	r4, r1
 2372              	.LVL171:
 679:Middlewares/Third_Party/FreeRTOS/Source/CMSIS_RTOS_V2/cmsis_os2.c **** }
 2373              		.loc 1 679 0
 2374 0024 26E0     		b	.L247
 2375              	.LVL172:
 2376              	.L258:
 2377 0026 0D46     		mov	r5, r1
 2378 0028 0746     		mov	r7, r0
 661:Middlewares/Third_Party/FreeRTOS/Source/CMSIS_RTOS_V2/cmsis_os2.c **** 
 2379              		.loc 1 661 0
 2380 002a FFF7FEFF 		bl	vTaskSuspendAll
 2381              	.LVL173:
 663:Middlewares/Third_Party/FreeRTOS/Source/CMSIS_RTOS_V2/cmsis_os2.c ****     task  = pvPortMalloc (count * sizeof(TaskStatus_t));
ARM GAS  /tmp/ccZrYRqG.s 			page 71


 2382              		.loc 1 663 0
 2383 002e FFF7FEFF 		bl	uxTaskGetNumberOfTasks
 2384              	.LVL174:
 2385 0032 8046     		mov	r8, r0
 2386              	.LVL175:
 664:Middlewares/Third_Party/FreeRTOS/Source/CMSIS_RTOS_V2/cmsis_os2.c **** 
 2387              		.loc 1 664 0
 2388 0034 00EBC003 		add	r3, r0, r0, lsl #3
 2389 0038 9800     		lsls	r0, r3, #2
 2390              	.LVL176:
 2391 003a FFF7FEFF 		bl	pvPortMalloc
 2392              	.LVL177:
 666:Middlewares/Third_Party/FreeRTOS/Source/CMSIS_RTOS_V2/cmsis_os2.c ****       count = uxTaskGetSystemState (task, count, NULL);
 2393              		.loc 1 666 0
 2394 003e 0646     		mov	r6, r0
 2395 0040 A8B1     		cbz	r0, .L256
 667:Middlewares/Third_Party/FreeRTOS/Source/CMSIS_RTOS_V2/cmsis_os2.c **** 
 2396              		.loc 1 667 0
 2397 0042 0022     		movs	r2, #0
 2398 0044 4146     		mov	r1, r8
 2399 0046 FFF7FEFF 		bl	uxTaskGetSystemState
 2400              	.LVL178:
 669:Middlewares/Third_Party/FreeRTOS/Source/CMSIS_RTOS_V2/cmsis_os2.c ****         thread_array[i] = (osThreadId_t)task[i].xHandle;
 2401              		.loc 1 669 0
 2402 004a 06E0     		b	.L252
 2403              	.LVL179:
 2404              	.L253:
 670:Middlewares/Third_Party/FreeRTOS/Source/CMSIS_RTOS_V2/cmsis_os2.c ****       }
 2405              		.loc 1 670 0 discriminator 4
 2406 004c 04EBC402 		add	r2, r4, r4, lsl #3
 2407 0050 9300     		lsls	r3, r2, #2
 2408 0052 F358     		ldr	r3, [r6, r3]
 2409 0054 47F82430 		str	r3, [r7, r4, lsl #2]
 669:Middlewares/Third_Party/FreeRTOS/Source/CMSIS_RTOS_V2/cmsis_os2.c ****         thread_array[i] = (osThreadId_t)task[i].xHandle;
 2410              		.loc 1 669 0 discriminator 4
 2411 0058 0134     		adds	r4, r4, #1
 2412              	.LVL180:
 2413              	.L252:
 669:Middlewares/Third_Party/FreeRTOS/Source/CMSIS_RTOS_V2/cmsis_os2.c ****         thread_array[i] = (osThreadId_t)task[i].xHandle;
 2414              		.loc 1 669 0 is_stmt 0 discriminator 1
 2415 005a 8442     		cmp	r4, r0
 2416 005c 01D2     		bcs	.L251
 669:Middlewares/Third_Party/FreeRTOS/Source/CMSIS_RTOS_V2/cmsis_os2.c ****         thread_array[i] = (osThreadId_t)task[i].xHandle;
 2417              		.loc 1 669 0 discriminator 3
 2418 005e AC42     		cmp	r4, r5
 2419 0060 F4D3     		bcc	.L253
 2420              	.LVL181:
 2421              	.L251:
 674:Middlewares/Third_Party/FreeRTOS/Source/CMSIS_RTOS_V2/cmsis_os2.c **** 
 2422              		.loc 1 674 0 is_stmt 1
 2423 0062 FFF7FEFF 		bl	xTaskResumeAll
 2424              	.LVL182:
 676:Middlewares/Third_Party/FreeRTOS/Source/CMSIS_RTOS_V2/cmsis_os2.c ****   }
 2425              		.loc 1 676 0
 2426 0066 3046     		mov	r0, r6
 2427 0068 FFF7FEFF 		bl	vPortFree
 2428              	.LVL183:
ARM GAS  /tmp/ccZrYRqG.s 			page 72


 2429 006c 02E0     		b	.L247
 2430              	.LVL184:
 2431              	.L256:
 663:Middlewares/Third_Party/FreeRTOS/Source/CMSIS_RTOS_V2/cmsis_os2.c ****     task  = pvPortMalloc (count * sizeof(TaskStatus_t));
 2432              		.loc 1 663 0
 2433 006e 4446     		mov	r4, r8
 2434 0070 F7E7     		b	.L251
 2435              	.LVL185:
 2436              	.L254:
 659:Middlewares/Third_Party/FreeRTOS/Source/CMSIS_RTOS_V2/cmsis_os2.c ****   } else {
 2437              		.loc 1 659 0
 2438 0072 0024     		movs	r4, #0
 2439              	.LVL186:
 2440              	.L247:
 680:Middlewares/Third_Party/FreeRTOS/Source/CMSIS_RTOS_V2/cmsis_os2.c **** 
 2441              		.loc 1 680 0
 2442 0074 2046     		mov	r0, r4
 2443 0076 BDE8F081 		pop	{r4, r5, r6, r7, r8, pc}
 2444              	.L260:
 2445 007a 00BF     		.align	2
 2446              	.L259:
 2447 007c 00000000 		.word	.LANCHOR0
 2448              		.cfi_endproc
 2449              	.LFE131:
 2451              		.section	.text.osThreadFlagsSet,"ax",%progbits
 2452              		.align	1
 2453              		.global	osThreadFlagsSet
 2454              		.syntax unified
 2455              		.thumb
 2456              		.thumb_func
 2457              		.fpu fpv4-sp-d16
 2459              	osThreadFlagsSet:
 2460              	.LFB132:
 682:Middlewares/Third_Party/FreeRTOS/Source/CMSIS_RTOS_V2/cmsis_os2.c ****   TaskHandle_t hTask = (TaskHandle_t)thread_id;
 2461              		.loc 1 682 0
 2462              		.cfi_startproc
 2463              		@ args = 0, pretend = 0, frame = 8
 2464              		@ frame_needed = 0, uses_anonymous_args = 0
 2465              	.LVL187:
 2466 0000 30B5     		push	{r4, r5, lr}
 2467              	.LCFI29:
 2468              		.cfi_def_cfa_offset 12
 2469              		.cfi_offset 4, -12
 2470              		.cfi_offset 5, -8
 2471              		.cfi_offset 14, -4
 2472 0002 85B0     		sub	sp, sp, #20
 2473              	.LCFI30:
 2474              		.cfi_def_cfa_offset 32
 2475              	.LVL188:
 687:Middlewares/Third_Party/FreeRTOS/Source/CMSIS_RTOS_V2/cmsis_os2.c ****     rflags = (uint32_t)osErrorParameter;
 2476              		.loc 1 687 0
 2477 0004 00B3     		cbz	r0, .L262
 2478 0006 0446     		mov	r4, r0
 687:Middlewares/Third_Party/FreeRTOS/Source/CMSIS_RTOS_V2/cmsis_os2.c ****     rflags = (uint32_t)osErrorParameter;
 2479              		.loc 1 687 0 is_stmt 0 discriminator 1
 2480 0008 0029     		cmp	r1, #0
 2481 000a 1DDB     		blt	.L262
ARM GAS  /tmp/ccZrYRqG.s 			page 73


 691:Middlewares/Third_Party/FreeRTOS/Source/CMSIS_RTOS_V2/cmsis_os2.c **** 
 2482              		.loc 1 691 0 is_stmt 1
 2483 000c 4FF0FF33 		mov	r3, #-1
 2484 0010 0393     		str	r3, [sp, #12]
 2485              	.LBB456:
 2486              	.LBB457:
 209:Drivers/CMSIS/Include/cmsis_gcc.h ****   return(result);
 2487              		.loc 2 209 0
 2488              		.syntax unified
 2489              	@ 209 "Drivers/CMSIS/Include/cmsis_gcc.h" 1
 2490 0012 EFF30583 		MRS r3, ipsr
 2491              	@ 0 "" 2
 2492              		.thumb
 2493              		.syntax unified
 2494              	.LBE457:
 2495              	.LBE456:
 693:Middlewares/Third_Party/FreeRTOS/Source/CMSIS_RTOS_V2/cmsis_os2.c ****       yield = pdFALSE;
 2496              		.loc 1 693 0
 2497 0016 DBB9     		cbnz	r3, .L265
 2498              	.LBB458:
 2499              	.LBB459:
 386:Drivers/CMSIS/Include/cmsis_gcc.h ****   return(result);
 2500              		.loc 2 386 0
 2501              		.syntax unified
 2502              	@ 386 "Drivers/CMSIS/Include/cmsis_gcc.h" 1
 2503 0018 EFF31083 		MRS r3, primask
 2504              	@ 0 "" 2
 2505              		.thumb
 2506              		.syntax unified
 2507              	.LBE459:
 2508              	.LBE458:
 693:Middlewares/Third_Party/FreeRTOS/Source/CMSIS_RTOS_V2/cmsis_os2.c ****       yield = pdFALSE;
 2509              		.loc 1 693 0
 2510 001c 13B9     		cbnz	r3, .L266
 2511              	.LBB460:
 2512              	.LBB461:
 2513              		.loc 2 465 0
 2514              		.syntax unified
 2515              	@ 465 "Drivers/CMSIS/Include/cmsis_gcc.h" 1
 2516 001e EFF31183 		MRS r3, basepri
 2517              	@ 0 "" 2
 2518              		.thumb
 2519              		.syntax unified
 2520              	.LBE461:
 2521              	.LBE460:
 693:Middlewares/Third_Party/FreeRTOS/Source/CMSIS_RTOS_V2/cmsis_os2.c ****       yield = pdFALSE;
 2522              		.loc 1 693 0
 2523 0022 1BB1     		cbz	r3, .L267
 2524              	.L266:
 693:Middlewares/Third_Party/FreeRTOS/Source/CMSIS_RTOS_V2/cmsis_os2.c ****       yield = pdFALSE;
 2525              		.loc 1 693 0 is_stmt 0 discriminator 4
 2526 0024 194B     		ldr	r3, .L269
 2527 0026 1B68     		ldr	r3, [r3]
 2528 0028 022B     		cmp	r3, #2
 2529 002a 11D0     		beq	.L265
 2530              	.L267:
 702:Middlewares/Third_Party/FreeRTOS/Source/CMSIS_RTOS_V2/cmsis_os2.c ****       (void)xTaskNotifyAndQuery (hTask, 0, eNoAction, &rflags);
ARM GAS  /tmp/ccZrYRqG.s 			page 74


 2531              		.loc 1 702 0 is_stmt 1
 2532 002c 0023     		movs	r3, #0
 2533 002e 0122     		movs	r2, #1
 2534 0030 2046     		mov	r0, r4
 2535              	.LVL189:
 2536 0032 FFF7FEFF 		bl	xTaskGenericNotify
 2537              	.LVL190:
 703:Middlewares/Third_Party/FreeRTOS/Source/CMSIS_RTOS_V2/cmsis_os2.c ****     }
 2538              		.loc 1 703 0
 2539 0036 03AB     		add	r3, sp, #12
 2540 0038 0022     		movs	r2, #0
 2541 003a 1146     		mov	r1, r2
 2542 003c 2046     		mov	r0, r4
 2543 003e FFF7FEFF 		bl	xTaskGenericNotify
 2544              	.LVL191:
 2545              	.L264:
 708:Middlewares/Third_Party/FreeRTOS/Source/CMSIS_RTOS_V2/cmsis_os2.c **** 
 2546              		.loc 1 708 0
 2547 0042 0398     		ldr	r0, [sp, #12]
 2548 0044 05B0     		add	sp, sp, #20
 2549              	.LCFI31:
 2550              		.cfi_remember_state
 2551              		.cfi_def_cfa_offset 12
 2552              		@ sp needed
 2553 0046 30BD     		pop	{r4, r5, pc}
 2554              	.LVL192:
 2555              	.L262:
 2556              	.LCFI32:
 2557              		.cfi_restore_state
 688:Middlewares/Third_Party/FreeRTOS/Source/CMSIS_RTOS_V2/cmsis_os2.c ****   }
 2558              		.loc 1 688 0
 2559 0048 6FF00303 		mvn	r3, #3
 2560 004c 0393     		str	r3, [sp, #12]
 2561 004e F8E7     		b	.L264
 2562              	.L265:
 694:Middlewares/Third_Party/FreeRTOS/Source/CMSIS_RTOS_V2/cmsis_os2.c **** 
 2563              		.loc 1 694 0
 2564 0050 0025     		movs	r5, #0
 2565 0052 04AB     		add	r3, sp, #16
 2566 0054 43F8085D 		str	r5, [r3, #-8]!
 696:Middlewares/Third_Party/FreeRTOS/Source/CMSIS_RTOS_V2/cmsis_os2.c ****       (void)xTaskNotifyAndQueryFromISR (hTask, 0, eNoAction, &rflags, NULL);
 2567              		.loc 1 696 0
 2568 0058 0093     		str	r3, [sp]
 2569 005a 2B46     		mov	r3, r5
 2570 005c 0122     		movs	r2, #1
 2571 005e 2046     		mov	r0, r4
 2572              	.LVL193:
 2573 0060 FFF7FEFF 		bl	xTaskGenericNotifyFromISR
 2574              	.LVL194:
 697:Middlewares/Third_Party/FreeRTOS/Source/CMSIS_RTOS_V2/cmsis_os2.c **** 
 2575              		.loc 1 697 0
 2576 0064 0095     		str	r5, [sp]
 2577 0066 03AB     		add	r3, sp, #12
 2578 0068 2A46     		mov	r2, r5
 2579 006a 2946     		mov	r1, r5
 2580 006c 2046     		mov	r0, r4
 2581 006e FFF7FEFF 		bl	xTaskGenericNotifyFromISR
ARM GAS  /tmp/ccZrYRqG.s 			page 75


 2582              	.LVL195:
 699:Middlewares/Third_Party/FreeRTOS/Source/CMSIS_RTOS_V2/cmsis_os2.c ****     }
 2583              		.loc 1 699 0
 2584 0072 029B     		ldr	r3, [sp, #8]
 2585 0074 002B     		cmp	r3, #0
 2586 0076 E4D0     		beq	.L264
 699:Middlewares/Third_Party/FreeRTOS/Source/CMSIS_RTOS_V2/cmsis_os2.c ****     }
 2587              		.loc 1 699 0 is_stmt 0 discriminator 1
 2588 0078 4FF08052 		mov	r2, #268435456
 2589 007c 044B     		ldr	r3, .L269+4
 2590 007e 1A60     		str	r2, [r3]
 2591              		.syntax unified
 2592              	@ 699 "Middlewares/Third_Party/FreeRTOS/Source/CMSIS_RTOS_V2/cmsis_os2.c" 1
 2593 0080 BFF34F8F 		dsb
 2594              	@ 0 "" 2
 2595              	@ 699 "Middlewares/Third_Party/FreeRTOS/Source/CMSIS_RTOS_V2/cmsis_os2.c" 1
 2596 0084 BFF36F8F 		isb
 2597              	@ 0 "" 2
 2598              		.thumb
 2599              		.syntax unified
 2600 0088 DBE7     		b	.L264
 2601              	.L270:
 2602 008a 00BF     		.align	2
 2603              	.L269:
 2604 008c 00000000 		.word	.LANCHOR0
 2605 0090 04ED00E0 		.word	-536810236
 2606              		.cfi_endproc
 2607              	.LFE132:
 2609              		.section	.text.osThreadFlagsClear,"ax",%progbits
 2610              		.align	1
 2611              		.global	osThreadFlagsClear
 2612              		.syntax unified
 2613              		.thumb
 2614              		.thumb_func
 2615              		.fpu fpv4-sp-d16
 2617              	osThreadFlagsClear:
 2618              	.LFB133:
 710:Middlewares/Third_Party/FreeRTOS/Source/CMSIS_RTOS_V2/cmsis_os2.c ****   TaskHandle_t hTask;
 2619              		.loc 1 710 0 is_stmt 1
 2620              		.cfi_startproc
 2621              		@ args = 0, pretend = 0, frame = 8
 2622              		@ frame_needed = 0, uses_anonymous_args = 0
 2623              	.LVL196:
 2624 0000 70B5     		push	{r4, r5, r6, lr}
 2625              	.LCFI33:
 2626              		.cfi_def_cfa_offset 16
 2627              		.cfi_offset 4, -16
 2628              		.cfi_offset 5, -12
 2629              		.cfi_offset 6, -8
 2630              		.cfi_offset 14, -4
 2631 0002 82B0     		sub	sp, sp, #8
 2632              	.LCFI34:
 2633              		.cfi_def_cfa_offset 24
 2634              	.LBB462:
 2635              	.LBB463:
 209:Drivers/CMSIS/Include/cmsis_gcc.h ****   return(result);
 2636              		.loc 2 209 0
ARM GAS  /tmp/ccZrYRqG.s 			page 76


 2637              		.syntax unified
 2638              	@ 209 "Drivers/CMSIS/Include/cmsis_gcc.h" 1
 2639 0004 EFF30583 		MRS r3, ipsr
 2640              	@ 0 "" 2
 2641              		.thumb
 2642              		.syntax unified
 2643              	.LBE463:
 2644              	.LBE462:
 714:Middlewares/Third_Party/FreeRTOS/Source/CMSIS_RTOS_V2/cmsis_os2.c ****     rflags = (uint32_t)osErrorISR;
 2645              		.loc 1 714 0
 2646 0008 23B1     		cbz	r3, .L281
 715:Middlewares/Third_Party/FreeRTOS/Source/CMSIS_RTOS_V2/cmsis_os2.c ****   }
 2647              		.loc 1 715 0
 2648 000a 6FF00504 		mvn	r4, #5
 2649              	.LVL197:
 2650              	.L271:
 738:Middlewares/Third_Party/FreeRTOS/Source/CMSIS_RTOS_V2/cmsis_os2.c **** 
 2651              		.loc 1 738 0
 2652 000e 2046     		mov	r0, r4
 2653 0010 02B0     		add	sp, sp, #8
 2654              	.LCFI35:
 2655              		.cfi_remember_state
 2656              		.cfi_def_cfa_offset 16
 2657              		@ sp needed
 2658 0012 70BD     		pop	{r4, r5, r6, pc}
 2659              	.LVL198:
 2660              	.L281:
 2661              	.LCFI36:
 2662              		.cfi_restore_state
 2663              	.LBB464:
 2664              	.LBB465:
 386:Drivers/CMSIS/Include/cmsis_gcc.h ****   return(result);
 2665              		.loc 2 386 0
 2666              		.syntax unified
 2667              	@ 386 "Drivers/CMSIS/Include/cmsis_gcc.h" 1
 2668 0014 EFF31083 		MRS r3, primask
 2669              	@ 0 "" 2
 2670              		.thumb
 2671              		.syntax unified
 2672              	.LBE465:
 2673              	.LBE464:
 714:Middlewares/Third_Party/FreeRTOS/Source/CMSIS_RTOS_V2/cmsis_os2.c ****     rflags = (uint32_t)osErrorISR;
 2674              		.loc 1 714 0
 2675 0018 13B9     		cbnz	r3, .L273
 2676              	.LBB466:
 2677              	.LBB467:
 2678              		.loc 2 465 0
 2679              		.syntax unified
 2680              	@ 465 "Drivers/CMSIS/Include/cmsis_gcc.h" 1
 2681 001a EFF31183 		MRS r3, basepri
 2682              	@ 0 "" 2
 2683              		.thumb
 2684              		.syntax unified
 2685              	.LBE467:
 2686              	.LBE466:
 714:Middlewares/Third_Party/FreeRTOS/Source/CMSIS_RTOS_V2/cmsis_os2.c ****     rflags = (uint32_t)osErrorISR;
 2687              		.loc 1 714 0
ARM GAS  /tmp/ccZrYRqG.s 			page 77


 2688 001e 1BB1     		cbz	r3, .L274
 2689              	.L273:
 714:Middlewares/Third_Party/FreeRTOS/Source/CMSIS_RTOS_V2/cmsis_os2.c ****     rflags = (uint32_t)osErrorISR;
 2690              		.loc 1 714 0 is_stmt 0 discriminator 4
 2691 0020 134B     		ldr	r3, .L284
 2692 0022 1B68     		ldr	r3, [r3]
 2693 0024 022B     		cmp	r3, #2
 2694 0026 20D0     		beq	.L276
 2695              	.L274:
 717:Middlewares/Third_Party/FreeRTOS/Source/CMSIS_RTOS_V2/cmsis_os2.c ****     rflags = (uint32_t)osErrorParameter;
 2696              		.loc 1 717 0 is_stmt 1
 2697 0028 0028     		cmp	r0, #0
 2698 002a 02DA     		bge	.L282
 718:Middlewares/Third_Party/FreeRTOS/Source/CMSIS_RTOS_V2/cmsis_os2.c ****   }
 2699              		.loc 1 718 0
 2700 002c 6FF00304 		mvn	r4, #3
 2701 0030 EDE7     		b	.L271
 2702              	.L282:
 2703 0032 0546     		mov	r5, r0
 721:Middlewares/Third_Party/FreeRTOS/Source/CMSIS_RTOS_V2/cmsis_os2.c **** 
 2704              		.loc 1 721 0
 2705 0034 FFF7FEFF 		bl	xTaskGetCurrentTaskHandle
 2706              	.LVL199:
 2707 0038 0646     		mov	r6, r0
 2708              	.LVL200:
 723:Middlewares/Third_Party/FreeRTOS/Source/CMSIS_RTOS_V2/cmsis_os2.c ****       rflags = cflags;
 2709              		.loc 1 723 0
 2710 003a 01AB     		add	r3, sp, #4
 2711 003c 0022     		movs	r2, #0
 2712 003e 1146     		mov	r1, r2
 2713 0040 FFF7FEFF 		bl	xTaskGenericNotify
 2714              	.LVL201:
 2715 0044 0128     		cmp	r0, #1
 2716 0046 02D0     		beq	.L283
 732:Middlewares/Third_Party/FreeRTOS/Source/CMSIS_RTOS_V2/cmsis_os2.c ****     }
 2717              		.loc 1 732 0
 2718 0048 4FF0FF34 		mov	r4, #-1
 2719 004c DFE7     		b	.L271
 2720              	.L283:
 724:Middlewares/Third_Party/FreeRTOS/Source/CMSIS_RTOS_V2/cmsis_os2.c ****       cflags &= ~flags;
 2721              		.loc 1 724 0
 2722 004e 019C     		ldr	r4, [sp, #4]
 2723              	.LVL202:
 725:Middlewares/Third_Party/FreeRTOS/Source/CMSIS_RTOS_V2/cmsis_os2.c **** 
 2724              		.loc 1 725 0
 2725 0050 24EA0501 		bic	r1, r4, r5
 2726 0054 0191     		str	r1, [sp, #4]
 727:Middlewares/Third_Party/FreeRTOS/Source/CMSIS_RTOS_V2/cmsis_os2.c ****         rflags = (uint32_t)osError;
 2727              		.loc 1 727 0
 2728 0056 0023     		movs	r3, #0
 2729 0058 0322     		movs	r2, #3
 2730 005a 3046     		mov	r0, r6
 2731 005c FFF7FEFF 		bl	xTaskGenericNotify
 2732              	.LVL203:
 2733 0060 0128     		cmp	r0, #1
 2734 0062 D4D0     		beq	.L271
 728:Middlewares/Third_Party/FreeRTOS/Source/CMSIS_RTOS_V2/cmsis_os2.c ****       }
ARM GAS  /tmp/ccZrYRqG.s 			page 78


 2735              		.loc 1 728 0
 2736 0064 4FF0FF34 		mov	r4, #-1
 2737              	.LVL204:
 737:Middlewares/Third_Party/FreeRTOS/Source/CMSIS_RTOS_V2/cmsis_os2.c **** }
 2738              		.loc 1 737 0
 2739 0068 D1E7     		b	.L271
 2740              	.LVL205:
 2741              	.L276:
 715:Middlewares/Third_Party/FreeRTOS/Source/CMSIS_RTOS_V2/cmsis_os2.c ****   }
 2742              		.loc 1 715 0
 2743 006a 6FF00504 		mvn	r4, #5
 2744 006e CEE7     		b	.L271
 2745              	.L285:
 2746              		.align	2
 2747              	.L284:
 2748 0070 00000000 		.word	.LANCHOR0
 2749              		.cfi_endproc
 2750              	.LFE133:
 2752              		.section	.text.osThreadFlagsGet,"ax",%progbits
 2753              		.align	1
 2754              		.global	osThreadFlagsGet
 2755              		.syntax unified
 2756              		.thumb
 2757              		.thumb_func
 2758              		.fpu fpv4-sp-d16
 2760              	osThreadFlagsGet:
 2761              	.LFB134:
 740:Middlewares/Third_Party/FreeRTOS/Source/CMSIS_RTOS_V2/cmsis_os2.c ****   TaskHandle_t hTask;
 2762              		.loc 1 740 0
 2763              		.cfi_startproc
 2764              		@ args = 0, pretend = 0, frame = 8
 2765              		@ frame_needed = 0, uses_anonymous_args = 0
 2766 0000 00B5     		push	{lr}
 2767              	.LCFI37:
 2768              		.cfi_def_cfa_offset 4
 2769              		.cfi_offset 14, -4
 2770 0002 83B0     		sub	sp, sp, #12
 2771              	.LCFI38:
 2772              		.cfi_def_cfa_offset 16
 2773              	.LBB468:
 2774              	.LBB469:
 209:Drivers/CMSIS/Include/cmsis_gcc.h ****   return(result);
 2775              		.loc 2 209 0
 2776              		.syntax unified
 2777              	@ 209 "Drivers/CMSIS/Include/cmsis_gcc.h" 1
 2778 0004 EFF30583 		MRS r3, ipsr
 2779              	@ 0 "" 2
 2780              		.thumb
 2781              		.syntax unified
 2782              	.LBE469:
 2783              	.LBE468:
 744:Middlewares/Third_Party/FreeRTOS/Source/CMSIS_RTOS_V2/cmsis_os2.c ****     rflags = (uint32_t)osErrorISR;
 2784              		.loc 1 744 0
 2785 0008 B3B9     		cbnz	r3, .L287
 2786              	.LBB470:
 2787              	.LBB471:
 386:Drivers/CMSIS/Include/cmsis_gcc.h ****   return(result);
ARM GAS  /tmp/ccZrYRqG.s 			page 79


 2788              		.loc 2 386 0
 2789              		.syntax unified
 2790              	@ 386 "Drivers/CMSIS/Include/cmsis_gcc.h" 1
 2791 000a EFF31083 		MRS r3, primask
 2792              	@ 0 "" 2
 2793              		.thumb
 2794              		.syntax unified
 2795              	.LBE471:
 2796              	.LBE470:
 744:Middlewares/Third_Party/FreeRTOS/Source/CMSIS_RTOS_V2/cmsis_os2.c ****     rflags = (uint32_t)osErrorISR;
 2797              		.loc 1 744 0
 2798 000e 13B9     		cbnz	r3, .L288
 2799              	.LBB472:
 2800              	.LBB473:
 2801              		.loc 2 465 0
 2802              		.syntax unified
 2803              	@ 465 "Drivers/CMSIS/Include/cmsis_gcc.h" 1
 2804 0010 EFF31183 		MRS r3, basepri
 2805              	@ 0 "" 2
 2806              		.thumb
 2807              		.syntax unified
 2808              	.LBE473:
 2809              	.LBE472:
 744:Middlewares/Third_Party/FreeRTOS/Source/CMSIS_RTOS_V2/cmsis_os2.c ****     rflags = (uint32_t)osErrorISR;
 2810              		.loc 1 744 0
 2811 0014 1BB1     		cbz	r3, .L289
 2812              	.L288:
 744:Middlewares/Third_Party/FreeRTOS/Source/CMSIS_RTOS_V2/cmsis_os2.c ****     rflags = (uint32_t)osErrorISR;
 2813              		.loc 1 744 0 is_stmt 0 discriminator 4
 2814 0016 0C4B     		ldr	r3, .L292
 2815 0018 1B68     		ldr	r3, [r3]
 2816 001a 022B     		cmp	r3, #2
 2817 001c 0CD0     		beq	.L287
 2818              	.L289:
 748:Middlewares/Third_Party/FreeRTOS/Source/CMSIS_RTOS_V2/cmsis_os2.c **** 
 2819              		.loc 1 748 0 is_stmt 1
 2820 001e FFF7FEFF 		bl	xTaskGetCurrentTaskHandle
 2821              	.LVL206:
 750:Middlewares/Third_Party/FreeRTOS/Source/CMSIS_RTOS_V2/cmsis_os2.c ****       rflags = (uint32_t)osError;
 2822              		.loc 1 750 0
 2823 0022 01AB     		add	r3, sp, #4
 2824 0024 0022     		movs	r2, #0
 2825 0026 1146     		mov	r1, r2
 2826 0028 FFF7FEFF 		bl	xTaskGenericNotify
 2827              	.LVL207:
 2828 002c 0128     		cmp	r0, #1
 2829 002e 06D0     		beq	.L290
 751:Middlewares/Third_Party/FreeRTOS/Source/CMSIS_RTOS_V2/cmsis_os2.c ****     }
 2830              		.loc 1 751 0
 2831 0030 4FF0FF33 		mov	r3, #-1
 2832 0034 0193     		str	r3, [sp, #4]
 2833 0036 02E0     		b	.L290
 2834              	.L287:
 745:Middlewares/Third_Party/FreeRTOS/Source/CMSIS_RTOS_V2/cmsis_os2.c ****   }
 2835              		.loc 1 745 0
 2836 0038 6FF00503 		mvn	r3, #5
 2837 003c 0193     		str	r3, [sp, #4]
ARM GAS  /tmp/ccZrYRqG.s 			page 80


 2838              	.L290:
 756:Middlewares/Third_Party/FreeRTOS/Source/CMSIS_RTOS_V2/cmsis_os2.c **** 
 2839              		.loc 1 756 0
 2840 003e 0198     		ldr	r0, [sp, #4]
 2841 0040 03B0     		add	sp, sp, #12
 2842              	.LCFI39:
 2843              		.cfi_def_cfa_offset 4
 2844              		@ sp needed
 2845 0042 5DF804FB 		ldr	pc, [sp], #4
 2846              	.L293:
 2847 0046 00BF     		.align	2
 2848              	.L292:
 2849 0048 00000000 		.word	.LANCHOR0
 2850              		.cfi_endproc
 2851              	.LFE134:
 2853              		.section	.text.osThreadFlagsWait,"ax",%progbits
 2854              		.align	1
 2855              		.global	osThreadFlagsWait
 2856              		.syntax unified
 2857              		.thumb
 2858              		.thumb_func
 2859              		.fpu fpv4-sp-d16
 2861              	osThreadFlagsWait:
 2862              	.LFB135:
 758:Middlewares/Third_Party/FreeRTOS/Source/CMSIS_RTOS_V2/cmsis_os2.c ****   uint32_t rflags, nval;
 2863              		.loc 1 758 0
 2864              		.cfi_startproc
 2865              		@ args = 0, pretend = 0, frame = 8
 2866              		@ frame_needed = 0, uses_anonymous_args = 0
 2867              	.LVL208:
 2868 0000 2DE9F04F 		push	{r4, r5, r6, r7, r8, r9, r10, fp, lr}
 2869              	.LCFI40:
 2870              		.cfi_def_cfa_offset 36
 2871              		.cfi_offset 4, -36
 2872              		.cfi_offset 5, -32
 2873              		.cfi_offset 6, -28
 2874              		.cfi_offset 7, -24
 2875              		.cfi_offset 8, -20
 2876              		.cfi_offset 9, -16
 2877              		.cfi_offset 10, -12
 2878              		.cfi_offset 11, -8
 2879              		.cfi_offset 14, -4
 2880 0004 83B0     		sub	sp, sp, #12
 2881              	.LCFI41:
 2882              		.cfi_def_cfa_offset 48
 2883              	.LBB474:
 2884              	.LBB475:
 209:Drivers/CMSIS/Include/cmsis_gcc.h ****   return(result);
 2885              		.loc 2 209 0
 2886              		.syntax unified
 2887              	@ 209 "Drivers/CMSIS/Include/cmsis_gcc.h" 1
 2888 0006 EFF30584 		MRS r4, ipsr
 2889              	@ 0 "" 2
 2890              		.thumb
 2891              		.syntax unified
 2892              	.LBE475:
 2893              	.LBE474:
ARM GAS  /tmp/ccZrYRqG.s 			page 81


 764:Middlewares/Third_Party/FreeRTOS/Source/CMSIS_RTOS_V2/cmsis_os2.c ****     rflags = (uint32_t)osErrorISR;
 2894              		.loc 1 764 0
 2895 000a 2CB1     		cbz	r4, .L313
 765:Middlewares/Third_Party/FreeRTOS/Source/CMSIS_RTOS_V2/cmsis_os2.c ****   }
 2896              		.loc 1 765 0
 2897 000c 6FF00504 		mvn	r4, #5
 2898              	.LVL209:
 2899              	.L294:
 831:Middlewares/Third_Party/FreeRTOS/Source/CMSIS_RTOS_V2/cmsis_os2.c **** 
 2900              		.loc 1 831 0
 2901 0010 2046     		mov	r0, r4
 2902 0012 03B0     		add	sp, sp, #12
 2903              	.LCFI42:
 2904              		.cfi_remember_state
 2905              		.cfi_def_cfa_offset 36
 2906              		@ sp needed
 2907 0014 BDE8F08F 		pop	{r4, r5, r6, r7, r8, r9, r10, fp, pc}
 2908              	.LVL210:
 2909              	.L313:
 2910              	.LCFI43:
 2911              		.cfi_restore_state
 2912              	.LBB476:
 2913              	.LBB477:
 386:Drivers/CMSIS/Include/cmsis_gcc.h ****   return(result);
 2914              		.loc 2 386 0
 2915              		.syntax unified
 2916              	@ 386 "Drivers/CMSIS/Include/cmsis_gcc.h" 1
 2917 0018 EFF31083 		MRS r3, primask
 2918              	@ 0 "" 2
 2919              		.thumb
 2920              		.syntax unified
 2921              	.LBE477:
 2922              	.LBE476:
 764:Middlewares/Third_Party/FreeRTOS/Source/CMSIS_RTOS_V2/cmsis_os2.c ****     rflags = (uint32_t)osErrorISR;
 2923              		.loc 1 764 0
 2924 001c 13B9     		cbnz	r3, .L296
 2925              	.LBB478:
 2926              	.LBB479:
 2927              		.loc 2 465 0
 2928              		.syntax unified
 2929              	@ 465 "Drivers/CMSIS/Include/cmsis_gcc.h" 1
 2930 001e EFF31183 		MRS r3, basepri
 2931              	@ 0 "" 2
 2932              		.thumb
 2933              		.syntax unified
 2934              	.LBE479:
 2935              	.LBE478:
 764:Middlewares/Third_Party/FreeRTOS/Source/CMSIS_RTOS_V2/cmsis_os2.c ****     rflags = (uint32_t)osErrorISR;
 2936              		.loc 1 764 0
 2937 0022 1BB1     		cbz	r3, .L297
 2938              	.L296:
 764:Middlewares/Third_Party/FreeRTOS/Source/CMSIS_RTOS_V2/cmsis_os2.c ****     rflags = (uint32_t)osErrorISR;
 2939              		.loc 1 764 0 is_stmt 0 discriminator 4
 2940 0024 254B     		ldr	r3, .L316
 2941 0026 1B68     		ldr	r3, [r3]
 2942 0028 022B     		cmp	r3, #2
 2943 002a 3ED0     		beq	.L305
ARM GAS  /tmp/ccZrYRqG.s 			page 82


 2944              	.L297:
 767:Middlewares/Third_Party/FreeRTOS/Source/CMSIS_RTOS_V2/cmsis_os2.c ****     rflags = (uint32_t)osErrorParameter;
 2945              		.loc 1 767 0 is_stmt 1
 2946 002c 0028     		cmp	r0, #0
 2947 002e 3FDB     		blt	.L306
 771:Middlewares/Third_Party/FreeRTOS/Source/CMSIS_RTOS_V2/cmsis_os2.c ****       clear = 0U;
 2948              		.loc 1 771 0
 2949 0030 11F0020F 		tst	r1, #2
 2950 0034 08D0     		beq	.L307
 772:Middlewares/Third_Party/FreeRTOS/Source/CMSIS_RTOS_V2/cmsis_os2.c ****     } else {
 2951              		.loc 1 772 0
 2952 0036 A046     		mov	r8, r4
 2953              	.L298:
 2954 0038 1746     		mov	r7, r2
 2955 003a 8A46     		mov	r10, r1
 2956 003c 8146     		mov	r9, r0
 2957              	.LVL211:
 780:Middlewares/Third_Party/FreeRTOS/Source/CMSIS_RTOS_V2/cmsis_os2.c ****     do {
 2958              		.loc 1 780 0
 2959 003e FFF7FEFF 		bl	xTaskGetTickCount
 2960              	.LVL212:
 2961 0042 8346     		mov	fp, r0
 2962              	.LVL213:
 778:Middlewares/Third_Party/FreeRTOS/Source/CMSIS_RTOS_V2/cmsis_os2.c **** 
 2963              		.loc 1 778 0
 2964 0044 3E46     		mov	r6, r7
 2965 0046 22E0     		b	.L303
 2966              	.LVL214:
 2967              	.L307:
 774:Middlewares/Third_Party/FreeRTOS/Source/CMSIS_RTOS_V2/cmsis_os2.c ****     }
 2968              		.loc 1 774 0
 2969 0048 8046     		mov	r8, r0
 2970 004a F5E7     		b	.L298
 2971              	.LVL215:
 2972              	.L315:
 785:Middlewares/Third_Party/FreeRTOS/Source/CMSIS_RTOS_V2/cmsis_os2.c ****         rflags |= nval;
 2973              		.loc 1 785 0
 2974 004c 04EA0904 		and	r4, r4, r9
 2975              	.LVL216:
 786:Middlewares/Third_Party/FreeRTOS/Source/CMSIS_RTOS_V2/cmsis_os2.c **** 
 2976              		.loc 1 786 0
 2977 0050 019B     		ldr	r3, [sp, #4]
 2978 0052 1C43     		orrs	r4, r4, r3
 2979              	.LVL217:
 788:Middlewares/Third_Party/FreeRTOS/Source/CMSIS_RTOS_V2/cmsis_os2.c ****           if ((flags & rflags) == flags) {
 2980              		.loc 1 788 0
 2981 0054 1AF0010F 		tst	r10, #1
 2982 0058 0BD0     		beq	.L300
 789:Middlewares/Third_Party/FreeRTOS/Source/CMSIS_RTOS_V2/cmsis_os2.c ****             break;
 2983              		.loc 1 789 0
 2984 005a 39EA0403 		bics	r3, r9, r4
 2985 005e D7D0     		beq	.L294
 792:Middlewares/Third_Party/FreeRTOS/Source/CMSIS_RTOS_V2/cmsis_os2.c ****               rflags = (uint32_t)osErrorResource;
 2986              		.loc 1 792 0
 2987 0060 4FB3     		cbz	r7, .L314
 2988              	.L301:
 810:Middlewares/Third_Party/FreeRTOS/Source/CMSIS_RTOS_V2/cmsis_os2.c **** 
ARM GAS  /tmp/ccZrYRqG.s 			page 83


 2989              		.loc 1 810 0
 2990 0062 FFF7FEFF 		bl	xTaskGetTickCount
 2991              	.LVL218:
 2992 0066 A0EB0B00 		sub	r0, r0, fp
 2993              	.LVL219:
 812:Middlewares/Third_Party/FreeRTOS/Source/CMSIS_RTOS_V2/cmsis_os2.c ****           tout  = 0;
 2994              		.loc 1 812 0
 2995 006a 8642     		cmp	r6, r0
 2996 006c 09D3     		bcc	.L310
 815:Middlewares/Third_Party/FreeRTOS/Source/CMSIS_RTOS_V2/cmsis_os2.c ****         }
 2997              		.loc 1 815 0
 2998 006e 361A     		subs	r6, r6, r0
 2999              	.LVL220:
 3000 0070 0BE0     		b	.L302
 3001              	.LVL221:
 3002              	.L300:
 799:Middlewares/Third_Party/FreeRTOS/Source/CMSIS_RTOS_V2/cmsis_os2.c ****             break;
 3003              		.loc 1 799 0
 3004 0072 19EA040F 		tst	r9, r4
 3005 0076 CBD1     		bne	.L294
 802:Middlewares/Third_Party/FreeRTOS/Source/CMSIS_RTOS_V2/cmsis_os2.c ****               rflags = (uint32_t)osErrorResource;
 3006              		.loc 1 802 0
 3007 0078 002F     		cmp	r7, #0
 3008 007a F2D1     		bne	.L301
 803:Middlewares/Third_Party/FreeRTOS/Source/CMSIS_RTOS_V2/cmsis_os2.c ****               break;
 3009              		.loc 1 803 0
 3010 007c 6FF00204 		mvn	r4, #2
 3011              	.LVL222:
 830:Middlewares/Third_Party/FreeRTOS/Source/CMSIS_RTOS_V2/cmsis_os2.c **** }
 3012              		.loc 1 830 0
 3013 0080 C6E7     		b	.L294
 3014              	.LVL223:
 3015              	.L310:
 813:Middlewares/Third_Party/FreeRTOS/Source/CMSIS_RTOS_V2/cmsis_os2.c ****         } else {
 3016              		.loc 1 813 0
 3017 0082 0026     		movs	r6, #0
 3018              	.LVL224:
 3019 0084 01E0     		b	.L302
 3020              	.LVL225:
 3021              	.L311:
 822:Middlewares/Third_Party/FreeRTOS/Source/CMSIS_RTOS_V2/cmsis_os2.c ****         }
 3022              		.loc 1 822 0
 3023 0086 6FF00104 		mvn	r4, #1
 3024              	.LVL226:
 3025              	.L302:
 826:Middlewares/Third_Party/FreeRTOS/Source/CMSIS_RTOS_V2/cmsis_os2.c ****   }
 3026              		.loc 1 826 0
 3027 008a 002D     		cmp	r5, #0
 3028 008c C0D0     		beq	.L294
 3029              	.LVL227:
 3030              	.L303:
 782:Middlewares/Third_Party/FreeRTOS/Source/CMSIS_RTOS_V2/cmsis_os2.c **** 
 3031              		.loc 1 782 0
 3032 008e 3346     		mov	r3, r6
 3033 0090 01AA     		add	r2, sp, #4
 3034 0092 4146     		mov	r1, r8
 3035 0094 0020     		movs	r0, #0
ARM GAS  /tmp/ccZrYRqG.s 			page 84


 3036 0096 FFF7FEFF 		bl	xTaskNotifyWait
 3037              	.LVL228:
 3038 009a 0546     		mov	r5, r0
 3039              	.LVL229:
 784:Middlewares/Third_Party/FreeRTOS/Source/CMSIS_RTOS_V2/cmsis_os2.c ****         rflags &= flags;
 3040              		.loc 1 784 0
 3041 009c 0128     		cmp	r0, #1
 3042 009e D5D0     		beq	.L315
 819:Middlewares/Third_Party/FreeRTOS/Source/CMSIS_RTOS_V2/cmsis_os2.c ****           rflags = (uint32_t)osErrorResource;
 3043              		.loc 1 819 0
 3044 00a0 002F     		cmp	r7, #0
 3045 00a2 F0D1     		bne	.L311
 820:Middlewares/Third_Party/FreeRTOS/Source/CMSIS_RTOS_V2/cmsis_os2.c ****         } else {
 3046              		.loc 1 820 0
 3047 00a4 6FF00204 		mvn	r4, #2
 3048              	.LVL230:
 3049 00a8 EFE7     		b	.L302
 3050              	.LVL231:
 3051              	.L305:
 765:Middlewares/Third_Party/FreeRTOS/Source/CMSIS_RTOS_V2/cmsis_os2.c ****   }
 3052              		.loc 1 765 0
 3053 00aa 6FF00504 		mvn	r4, #5
 3054 00ae AFE7     		b	.L294
 3055              	.L306:
 768:Middlewares/Third_Party/FreeRTOS/Source/CMSIS_RTOS_V2/cmsis_os2.c ****   }
 3056              		.loc 1 768 0
 3057 00b0 6FF00304 		mvn	r4, #3
 3058 00b4 ACE7     		b	.L294
 3059              	.LVL232:
 3060              	.L314:
 793:Middlewares/Third_Party/FreeRTOS/Source/CMSIS_RTOS_V2/cmsis_os2.c ****               break;
 3061              		.loc 1 793 0
 3062 00b6 6FF00204 		mvn	r4, #2
 3063              	.LVL233:
 3064 00ba A9E7     		b	.L294
 3065              	.L317:
 3066              		.align	2
 3067              	.L316:
 3068 00bc 00000000 		.word	.LANCHOR0
 3069              		.cfi_endproc
 3070              	.LFE135:
 3072              		.section	.text.osDelay,"ax",%progbits
 3073              		.align	1
 3074              		.global	osDelay
 3075              		.syntax unified
 3076              		.thumb
 3077              		.thumb_func
 3078              		.fpu fpv4-sp-d16
 3080              	osDelay:
 3081              	.LFB136:
 833:Middlewares/Third_Party/FreeRTOS/Source/CMSIS_RTOS_V2/cmsis_os2.c ****   osStatus_t stat;
 3082              		.loc 1 833 0
 3083              		.cfi_startproc
 3084              		@ args = 0, pretend = 0, frame = 0
 3085              		@ frame_needed = 0, uses_anonymous_args = 0
 3086              	.LVL234:
 3087 0000 08B5     		push	{r3, lr}
ARM GAS  /tmp/ccZrYRqG.s 			page 85


 3088              	.LCFI44:
 3089              		.cfi_def_cfa_offset 8
 3090              		.cfi_offset 3, -8
 3091              		.cfi_offset 14, -4
 3092              	.LBB480:
 3093              	.LBB481:
 209:Drivers/CMSIS/Include/cmsis_gcc.h ****   return(result);
 3094              		.loc 2 209 0
 3095              		.syntax unified
 3096              	@ 209 "Drivers/CMSIS/Include/cmsis_gcc.h" 1
 3097 0002 EFF30583 		MRS r3, ipsr
 3098              	@ 0 "" 2
 3099              		.thumb
 3100              		.syntax unified
 3101              	.LBE481:
 3102              	.LBE480:
 836:Middlewares/Third_Party/FreeRTOS/Source/CMSIS_RTOS_V2/cmsis_os2.c ****     stat = osErrorISR;
 3103              		.loc 1 836 0
 3104 0006 83B9     		cbnz	r3, .L322
 3105              	.LBB482:
 3106              	.LBB483:
 386:Drivers/CMSIS/Include/cmsis_gcc.h ****   return(result);
 3107              		.loc 2 386 0
 3108              		.syntax unified
 3109              	@ 386 "Drivers/CMSIS/Include/cmsis_gcc.h" 1
 3110 0008 EFF31083 		MRS r3, primask
 3111              	@ 0 "" 2
 3112              		.thumb
 3113              		.syntax unified
 3114              	.LBE483:
 3115              	.LBE482:
 836:Middlewares/Third_Party/FreeRTOS/Source/CMSIS_RTOS_V2/cmsis_os2.c ****     stat = osErrorISR;
 3116              		.loc 1 836 0
 3117 000c 13B9     		cbnz	r3, .L320
 3118              	.LBB484:
 3119              	.LBB485:
 3120              		.loc 2 465 0
 3121              		.syntax unified
 3122              	@ 465 "Drivers/CMSIS/Include/cmsis_gcc.h" 1
 3123 000e EFF31183 		MRS r3, basepri
 3124              	@ 0 "" 2
 3125              		.thumb
 3126              		.syntax unified
 3127              	.LBE485:
 3128              	.LBE484:
 836:Middlewares/Third_Party/FreeRTOS/Source/CMSIS_RTOS_V2/cmsis_os2.c ****     stat = osErrorISR;
 3129              		.loc 1 836 0
 3130 0012 1BB1     		cbz	r3, .L321
 3131              	.L320:
 836:Middlewares/Third_Party/FreeRTOS/Source/CMSIS_RTOS_V2/cmsis_os2.c ****     stat = osErrorISR;
 3132              		.loc 1 836 0 is_stmt 0 discriminator 4
 3133 0014 084B     		ldr	r3, .L327
 3134 0016 1B68     		ldr	r3, [r3]
 3135 0018 022B     		cmp	r3, #2
 3136 001a 09D0     		beq	.L323
 3137              	.L321:
 3138              	.LVL235:
ARM GAS  /tmp/ccZrYRqG.s 			page 86


 842:Middlewares/Third_Party/FreeRTOS/Source/CMSIS_RTOS_V2/cmsis_os2.c ****       vTaskDelay(ticks);
 3139              		.loc 1 842 0 is_stmt 1
 3140 001c 08B9     		cbnz	r0, .L326
 840:Middlewares/Third_Party/FreeRTOS/Source/CMSIS_RTOS_V2/cmsis_os2.c **** 
 3141              		.loc 1 840 0
 3142 001e 0020     		movs	r0, #0
 3143              	.LVL236:
 848:Middlewares/Third_Party/FreeRTOS/Source/CMSIS_RTOS_V2/cmsis_os2.c **** 
 3144              		.loc 1 848 0
 3145 0020 08BD     		pop	{r3, pc}
 3146              	.LVL237:
 3147              	.L326:
 843:Middlewares/Third_Party/FreeRTOS/Source/CMSIS_RTOS_V2/cmsis_os2.c ****     }
 3148              		.loc 1 843 0
 3149 0022 FFF7FEFF 		bl	vTaskDelay
 3150              	.LVL238:
 840:Middlewares/Third_Party/FreeRTOS/Source/CMSIS_RTOS_V2/cmsis_os2.c **** 
 3151              		.loc 1 840 0
 3152 0026 0020     		movs	r0, #0
 3153 0028 08BD     		pop	{r3, pc}
 3154              	.LVL239:
 3155              	.L322:
 837:Middlewares/Third_Party/FreeRTOS/Source/CMSIS_RTOS_V2/cmsis_os2.c ****   }
 3156              		.loc 1 837 0
 3157 002a 6FF00500 		mvn	r0, #5
 3158              	.LVL240:
 3159 002e 08BD     		pop	{r3, pc}
 3160              	.LVL241:
 3161              	.L323:
 3162 0030 6FF00500 		mvn	r0, #5
 3163              	.LVL242:
 3164 0034 08BD     		pop	{r3, pc}
 3165              	.L328:
 3166 0036 00BF     		.align	2
 3167              	.L327:
 3168 0038 00000000 		.word	.LANCHOR0
 3169              		.cfi_endproc
 3170              	.LFE136:
 3172              		.section	.text.osDelayUntil,"ax",%progbits
 3173              		.align	1
 3174              		.global	osDelayUntil
 3175              		.syntax unified
 3176              		.thumb
 3177              		.thumb_func
 3178              		.fpu fpv4-sp-d16
 3180              	osDelayUntil:
 3181              	.LFB137:
 850:Middlewares/Third_Party/FreeRTOS/Source/CMSIS_RTOS_V2/cmsis_os2.c ****   TickType_t tcnt, delay;
 3182              		.loc 1 850 0
 3183              		.cfi_startproc
 3184              		@ args = 0, pretend = 0, frame = 8
 3185              		@ frame_needed = 0, uses_anonymous_args = 0
 3186              	.LVL243:
 3187              	.LBB486:
 3188              	.LBB487:
 209:Drivers/CMSIS/Include/cmsis_gcc.h ****   return(result);
 3189              		.loc 2 209 0
ARM GAS  /tmp/ccZrYRqG.s 			page 87


 3190              		.syntax unified
 3191              	@ 209 "Drivers/CMSIS/Include/cmsis_gcc.h" 1
 3192 0000 EFF30583 		MRS r3, ipsr
 3193              	@ 0 "" 2
 3194              		.thumb
 3195              		.syntax unified
 3196              	.LBE487:
 3197              	.LBE486:
 854:Middlewares/Third_Party/FreeRTOS/Source/CMSIS_RTOS_V2/cmsis_os2.c ****     stat = osErrorISR;
 3198              		.loc 1 854 0
 3199 0004 C3B9     		cbnz	r3, .L333
 3200              	.LBB488:
 3201              	.LBB489:
 386:Drivers/CMSIS/Include/cmsis_gcc.h ****   return(result);
 3202              		.loc 2 386 0
 3203              		.syntax unified
 3204              	@ 386 "Drivers/CMSIS/Include/cmsis_gcc.h" 1
 3205 0006 EFF31083 		MRS r3, primask
 3206              	@ 0 "" 2
 3207              		.thumb
 3208              		.syntax unified
 3209              	.LBE489:
 3210              	.LBE488:
 854:Middlewares/Third_Party/FreeRTOS/Source/CMSIS_RTOS_V2/cmsis_os2.c ****     stat = osErrorISR;
 3211              		.loc 1 854 0
 3212 000a 13B9     		cbnz	r3, .L331
 3213              	.LBB490:
 3214              	.LBB491:
 3215              		.loc 2 465 0
 3216              		.syntax unified
 3217              	@ 465 "Drivers/CMSIS/Include/cmsis_gcc.h" 1
 3218 000c EFF31183 		MRS r3, basepri
 3219              	@ 0 "" 2
 3220              		.thumb
 3221              		.syntax unified
 3222              	.LBE491:
 3223              	.LBE490:
 854:Middlewares/Third_Party/FreeRTOS/Source/CMSIS_RTOS_V2/cmsis_os2.c ****     stat = osErrorISR;
 3224              		.loc 1 854 0
 3225 0010 1BB1     		cbz	r3, .L332
 3226              	.L331:
 854:Middlewares/Third_Party/FreeRTOS/Source/CMSIS_RTOS_V2/cmsis_os2.c ****     stat = osErrorISR;
 3227              		.loc 1 854 0 is_stmt 0 discriminator 4
 3228 0012 0E4B     		ldr	r3, .L339
 3229 0014 1B68     		ldr	r3, [r3]
 3230 0016 022B     		cmp	r3, #2
 3231 0018 11D0     		beq	.L334
 3232              	.L332:
 850:Middlewares/Third_Party/FreeRTOS/Source/CMSIS_RTOS_V2/cmsis_os2.c ****   TickType_t tcnt, delay;
 3233              		.loc 1 850 0 is_stmt 1
 3234 001a 10B5     		push	{r4, lr}
 3235              	.LCFI45:
 3236              		.cfi_def_cfa_offset 8
 3237              		.cfi_offset 4, -8
 3238              		.cfi_offset 14, -4
 3239 001c 82B0     		sub	sp, sp, #8
 3240              	.LCFI46:
ARM GAS  /tmp/ccZrYRqG.s 			page 88


 3241              		.cfi_def_cfa_offset 16
 3242 001e 0446     		mov	r4, r0
 3243              	.LVL244:
 859:Middlewares/Third_Party/FreeRTOS/Source/CMSIS_RTOS_V2/cmsis_os2.c **** 
 3244              		.loc 1 859 0
 3245 0020 FFF7FEFF 		bl	xTaskGetTickCount
 3246              	.LVL245:
 3247 0024 0190     		str	r0, [sp, #4]
 862:Middlewares/Third_Party/FreeRTOS/Source/CMSIS_RTOS_V2/cmsis_os2.c **** 
 3248              		.loc 1 862 0
 3249 0026 211A     		subs	r1, r4, r0
 3250              	.LVL246:
 865:Middlewares/Third_Party/FreeRTOS/Source/CMSIS_RTOS_V2/cmsis_os2.c ****       vTaskDelayUntil (&tcnt, delay);
 3251              		.loc 1 865 0
 3252 0028 0029     		cmp	r1, #0
 3253 002a 0BDD     		ble	.L335
 866:Middlewares/Third_Party/FreeRTOS/Source/CMSIS_RTOS_V2/cmsis_os2.c ****     }
 3254              		.loc 1 866 0
 3255 002c 01A8     		add	r0, sp, #4
 3256 002e FFF7FEFF 		bl	vTaskDelayUntil
 3257              	.LVL247:
 858:Middlewares/Third_Party/FreeRTOS/Source/CMSIS_RTOS_V2/cmsis_os2.c ****     tcnt = xTaskGetTickCount();
 3258              		.loc 1 858 0
 3259 0032 0020     		movs	r0, #0
 3260              	.LVL248:
 3261              	.L329:
 876:Middlewares/Third_Party/FreeRTOS/Source/CMSIS_RTOS_V2/cmsis_os2.c **** 
 3262              		.loc 1 876 0
 3263 0034 02B0     		add	sp, sp, #8
 3264              	.LCFI47:
 3265              		.cfi_def_cfa_offset 8
 3266              		@ sp needed
 3267 0036 10BD     		pop	{r4, pc}
 3268              	.LVL249:
 3269              	.L333:
 3270              	.LCFI48:
 3271              		.cfi_def_cfa_offset 0
 3272              		.cfi_restore 4
 3273              		.cfi_restore 14
 855:Middlewares/Third_Party/FreeRTOS/Source/CMSIS_RTOS_V2/cmsis_os2.c ****   }
 3274              		.loc 1 855 0
 3275 0038 6FF00500 		mvn	r0, #5
 3276              	.LVL250:
 3277 003c 7047     		bx	lr
 3278              	.LVL251:
 3279              	.L334:
 3280 003e 6FF00500 		mvn	r0, #5
 3281              	.LVL252:
 3282 0042 7047     		bx	lr
 3283              	.LVL253:
 3284              	.L335:
 3285              	.LCFI49:
 3286              		.cfi_def_cfa_offset 16
 3287              		.cfi_offset 4, -8
 3288              		.cfi_offset 14, -4
 871:Middlewares/Third_Party/FreeRTOS/Source/CMSIS_RTOS_V2/cmsis_os2.c ****     }
 3289              		.loc 1 871 0
ARM GAS  /tmp/ccZrYRqG.s 			page 89


 3290 0044 6FF00300 		mvn	r0, #3
 3291              	.LVL254:
 875:Middlewares/Third_Party/FreeRTOS/Source/CMSIS_RTOS_V2/cmsis_os2.c **** }
 3292              		.loc 1 875 0
 3293 0048 F4E7     		b	.L329
 3294              	.L340:
 3295 004a 00BF     		.align	2
 3296              	.L339:
 3297 004c 00000000 		.word	.LANCHOR0
 3298              		.cfi_endproc
 3299              	.LFE137:
 3301              		.section	.text.osTimerNew,"ax",%progbits
 3302              		.align	1
 3303              		.global	osTimerNew
 3304              		.syntax unified
 3305              		.thumb
 3306              		.thumb_func
 3307              		.fpu fpv4-sp-d16
 3309              	osTimerNew:
 3310              	.LFB139:
 887:Middlewares/Third_Party/FreeRTOS/Source/CMSIS_RTOS_V2/cmsis_os2.c ****   }
 888:Middlewares/Third_Party/FreeRTOS/Source/CMSIS_RTOS_V2/cmsis_os2.c **** }
 889:Middlewares/Third_Party/FreeRTOS/Source/CMSIS_RTOS_V2/cmsis_os2.c **** 
 890:Middlewares/Third_Party/FreeRTOS/Source/CMSIS_RTOS_V2/cmsis_os2.c **** osTimerId_t osTimerNew (osTimerFunc_t func, osTimerType_t type, void *argument, const osTimerAttr_t
 3311              		.loc 1 890 0
 3312              		.cfi_startproc
 3313              		@ args = 0, pretend = 0, frame = 0
 3314              		@ frame_needed = 0, uses_anonymous_args = 0
 3315              	.LVL255:
 3316 0000 F0B5     		push	{r4, r5, r6, r7, lr}
 3317              	.LCFI50:
 3318              		.cfi_def_cfa_offset 20
 3319              		.cfi_offset 4, -20
 3320              		.cfi_offset 5, -16
 3321              		.cfi_offset 6, -12
 3322              		.cfi_offset 7, -8
 3323              		.cfi_offset 14, -4
 3324 0002 83B0     		sub	sp, sp, #12
 3325              	.LCFI51:
 3326              		.cfi_def_cfa_offset 32
 3327              	.LVL256:
 3328              	.LBB492:
 3329              	.LBB493:
 209:Drivers/CMSIS/Include/cmsis_gcc.h ****   return(result);
 3330              		.loc 2 209 0
 3331              		.syntax unified
 3332              	@ 209 "Drivers/CMSIS/Include/cmsis_gcc.h" 1
 3333 0004 EFF30585 		MRS r5, ipsr
 3334              	@ 0 "" 2
 3335              		.thumb
 3336              		.syntax unified
 3337              	.LBE493:
 3338              	.LBE492:
 891:Middlewares/Third_Party/FreeRTOS/Source/CMSIS_RTOS_V2/cmsis_os2.c ****   const char *name;
 892:Middlewares/Third_Party/FreeRTOS/Source/CMSIS_RTOS_V2/cmsis_os2.c ****   TimerHandle_t hTimer;
 893:Middlewares/Third_Party/FreeRTOS/Source/CMSIS_RTOS_V2/cmsis_os2.c ****   TimerCallback_t *callb;
 894:Middlewares/Third_Party/FreeRTOS/Source/CMSIS_RTOS_V2/cmsis_os2.c ****   UBaseType_t reload;
ARM GAS  /tmp/ccZrYRqG.s 			page 90


 895:Middlewares/Third_Party/FreeRTOS/Source/CMSIS_RTOS_V2/cmsis_os2.c ****   int32_t mem;
 896:Middlewares/Third_Party/FreeRTOS/Source/CMSIS_RTOS_V2/cmsis_os2.c **** 
 897:Middlewares/Third_Party/FreeRTOS/Source/CMSIS_RTOS_V2/cmsis_os2.c ****   hTimer = NULL;
 898:Middlewares/Third_Party/FreeRTOS/Source/CMSIS_RTOS_V2/cmsis_os2.c **** 
 899:Middlewares/Third_Party/FreeRTOS/Source/CMSIS_RTOS_V2/cmsis_os2.c ****   if (!IS_IRQ() && (func != NULL)) {
 3339              		.loc 1 899 0
 3340 0008 002D     		cmp	r5, #0
 3341 000a 43D1     		bne	.L350
 3342              	.LBB494:
 3343              	.LBB495:
 386:Drivers/CMSIS/Include/cmsis_gcc.h ****   return(result);
 3344              		.loc 2 386 0
 3345              		.syntax unified
 3346              	@ 386 "Drivers/CMSIS/Include/cmsis_gcc.h" 1
 3347 000c EFF31084 		MRS r4, primask
 3348              	@ 0 "" 2
 3349              		.thumb
 3350              		.syntax unified
 3351              	.LBE495:
 3352              	.LBE494:
 3353              		.loc 1 899 0
 3354 0010 14B9     		cbnz	r4, .L343
 3355              	.LBB496:
 3356              	.LBB497:
 3357              		.loc 2 465 0
 3358              		.syntax unified
 3359              	@ 465 "Drivers/CMSIS/Include/cmsis_gcc.h" 1
 3360 0012 EFF31184 		MRS r4, basepri
 3361              	@ 0 "" 2
 3362              		.thumb
 3363              		.syntax unified
 3364              	.LBE497:
 3365              	.LBE496:
 3366              		.loc 1 899 0
 3367 0016 1CB1     		cbz	r4, .L344
 3368              	.L343:
 3369              		.loc 1 899 0 is_stmt 0 discriminator 5
 3370 0018 234C     		ldr	r4, .L363
 3371 001a 2468     		ldr	r4, [r4]
 3372 001c 022C     		cmp	r4, #2
 3373 001e 3BD0     		beq	.L351
 3374              	.L344:
 3375              		.loc 1 899 0 discriminator 6
 3376 0020 0028     		cmp	r0, #0
 3377 0022 3BD0     		beq	.L352
 3378 0024 1C46     		mov	r4, r3
 3379 0026 1746     		mov	r7, r2
 3380 0028 0E46     		mov	r6, r1
 3381 002a 0546     		mov	r5, r0
 900:Middlewares/Third_Party/FreeRTOS/Source/CMSIS_RTOS_V2/cmsis_os2.c ****     /* Allocate memory to store callback function and argument */
 901:Middlewares/Third_Party/FreeRTOS/Source/CMSIS_RTOS_V2/cmsis_os2.c ****     callb = pvPortMalloc (sizeof(TimerCallback_t));
 3382              		.loc 1 901 0 is_stmt 1
 3383 002c 0820     		movs	r0, #8
 3384              	.LVL257:
 3385 002e FFF7FEFF 		bl	pvPortMalloc
 3386              	.LVL258:
 902:Middlewares/Third_Party/FreeRTOS/Source/CMSIS_RTOS_V2/cmsis_os2.c **** 
ARM GAS  /tmp/ccZrYRqG.s 			page 91


 903:Middlewares/Third_Party/FreeRTOS/Source/CMSIS_RTOS_V2/cmsis_os2.c ****     if (callb != NULL) {
 3387              		.loc 1 903 0
 3388 0032 0346     		mov	r3, r0
 3389 0034 0028     		cmp	r0, #0
 3390 0036 33D0     		beq	.L353
 904:Middlewares/Third_Party/FreeRTOS/Source/CMSIS_RTOS_V2/cmsis_os2.c ****       callb->func = func;
 3391              		.loc 1 904 0
 3392 0038 0560     		str	r5, [r0]
 905:Middlewares/Third_Party/FreeRTOS/Source/CMSIS_RTOS_V2/cmsis_os2.c ****       callb->arg  = argument;
 3393              		.loc 1 905 0
 3394 003a 4760     		str	r7, [r0, #4]
 906:Middlewares/Third_Party/FreeRTOS/Source/CMSIS_RTOS_V2/cmsis_os2.c **** 
 907:Middlewares/Third_Party/FreeRTOS/Source/CMSIS_RTOS_V2/cmsis_os2.c ****       if (type == osTimerOnce) {
 3395              		.loc 1 907 0
 3396 003c A6B9     		cbnz	r6, .L354
 908:Middlewares/Third_Party/FreeRTOS/Source/CMSIS_RTOS_V2/cmsis_os2.c ****         reload = pdFALSE;
 3397              		.loc 1 908 0
 3398 003e 0022     		movs	r2, #0
 3399              	.L345:
 3400              	.LVL259:
 909:Middlewares/Third_Party/FreeRTOS/Source/CMSIS_RTOS_V2/cmsis_os2.c ****       } else {
 910:Middlewares/Third_Party/FreeRTOS/Source/CMSIS_RTOS_V2/cmsis_os2.c ****         reload = pdTRUE;
 911:Middlewares/Third_Party/FreeRTOS/Source/CMSIS_RTOS_V2/cmsis_os2.c ****       }
 912:Middlewares/Third_Party/FreeRTOS/Source/CMSIS_RTOS_V2/cmsis_os2.c **** 
 913:Middlewares/Third_Party/FreeRTOS/Source/CMSIS_RTOS_V2/cmsis_os2.c ****       mem  = -1;
 914:Middlewares/Third_Party/FreeRTOS/Source/CMSIS_RTOS_V2/cmsis_os2.c ****       name = NULL;
 915:Middlewares/Third_Party/FreeRTOS/Source/CMSIS_RTOS_V2/cmsis_os2.c **** 
 916:Middlewares/Third_Party/FreeRTOS/Source/CMSIS_RTOS_V2/cmsis_os2.c ****       if (attr != NULL) {
 3401              		.loc 1 916 0
 3402 0040 CCB1     		cbz	r4, .L355
 917:Middlewares/Third_Party/FreeRTOS/Source/CMSIS_RTOS_V2/cmsis_os2.c ****         if (attr->name != NULL) {
 3403              		.loc 1 917 0
 3404 0042 2068     		ldr	r0, [r4]
 3405              	.LVL260:
 918:Middlewares/Third_Party/FreeRTOS/Source/CMSIS_RTOS_V2/cmsis_os2.c ****           name = attr->name;
 919:Middlewares/Third_Party/FreeRTOS/Source/CMSIS_RTOS_V2/cmsis_os2.c ****         }
 920:Middlewares/Third_Party/FreeRTOS/Source/CMSIS_RTOS_V2/cmsis_os2.c **** 
 921:Middlewares/Third_Party/FreeRTOS/Source/CMSIS_RTOS_V2/cmsis_os2.c ****         if ((attr->cb_mem != NULL) && (attr->cb_size >= sizeof(StaticTimer_t))) {
 3406              		.loc 1 921 0
 3407 0044 A168     		ldr	r1, [r4, #8]
 3408 0046 11B1     		cbz	r1, .L348
 3409              		.loc 1 921 0 is_stmt 0 discriminator 1
 3410 0048 E568     		ldr	r5, [r4, #12]
 3411              	.LVL261:
 3412 004a 2B2D     		cmp	r5, #43
 3413 004c 16D8     		bhi	.L356
 3414              	.L348:
 922:Middlewares/Third_Party/FreeRTOS/Source/CMSIS_RTOS_V2/cmsis_os2.c ****           mem = 1;
 923:Middlewares/Third_Party/FreeRTOS/Source/CMSIS_RTOS_V2/cmsis_os2.c ****         }
 924:Middlewares/Third_Party/FreeRTOS/Source/CMSIS_RTOS_V2/cmsis_os2.c ****         else {
 925:Middlewares/Third_Party/FreeRTOS/Source/CMSIS_RTOS_V2/cmsis_os2.c ****           if ((attr->cb_mem == NULL) && (attr->cb_size == 0U)) {
 3415              		.loc 1 925 0 is_stmt 1
 3416 004e 69B1     		cbz	r1, .L361
 913:Middlewares/Third_Party/FreeRTOS/Source/CMSIS_RTOS_V2/cmsis_os2.c ****       name = NULL;
 3417              		.loc 1 913 0
 3418 0050 4FF0FF31 		mov	r1, #-1
 3419              	.LVL262:
ARM GAS  /tmp/ccZrYRqG.s 			page 92


 3420              	.L346:
 926:Middlewares/Third_Party/FreeRTOS/Source/CMSIS_RTOS_V2/cmsis_os2.c ****             mem = 0;
 927:Middlewares/Third_Party/FreeRTOS/Source/CMSIS_RTOS_V2/cmsis_os2.c ****           }
 928:Middlewares/Third_Party/FreeRTOS/Source/CMSIS_RTOS_V2/cmsis_os2.c ****         }
 929:Middlewares/Third_Party/FreeRTOS/Source/CMSIS_RTOS_V2/cmsis_os2.c ****       }
 930:Middlewares/Third_Party/FreeRTOS/Source/CMSIS_RTOS_V2/cmsis_os2.c ****       else {
 931:Middlewares/Third_Party/FreeRTOS/Source/CMSIS_RTOS_V2/cmsis_os2.c ****         mem = 0;
 932:Middlewares/Third_Party/FreeRTOS/Source/CMSIS_RTOS_V2/cmsis_os2.c ****       }
 933:Middlewares/Third_Party/FreeRTOS/Source/CMSIS_RTOS_V2/cmsis_os2.c **** 
 934:Middlewares/Third_Party/FreeRTOS/Source/CMSIS_RTOS_V2/cmsis_os2.c ****       if (mem == 1) {
 3421              		.loc 1 934 0
 3422 0054 0129     		cmp	r1, #1
 3423 0056 15D0     		beq	.L362
 935:Middlewares/Third_Party/FreeRTOS/Source/CMSIS_RTOS_V2/cmsis_os2.c ****         hTimer = xTimerCreateStatic (name, 1, reload, callb, TimerCallback, (StaticTimer_t *)attr->
 936:Middlewares/Third_Party/FreeRTOS/Source/CMSIS_RTOS_V2/cmsis_os2.c ****       }
 937:Middlewares/Third_Party/FreeRTOS/Source/CMSIS_RTOS_V2/cmsis_os2.c ****       else {
 938:Middlewares/Third_Party/FreeRTOS/Source/CMSIS_RTOS_V2/cmsis_os2.c ****         if (mem == 0) {
 3424              		.loc 1 938 0
 3425 0058 21BB     		cbnz	r1, .L359
 939:Middlewares/Third_Party/FreeRTOS/Source/CMSIS_RTOS_V2/cmsis_os2.c ****           hTimer = xTimerCreate (name, 1, reload, callb, TimerCallback);
 3426              		.loc 1 939 0
 3427 005a 1449     		ldr	r1, .L363+4
 3428              	.LVL263:
 3429 005c 0091     		str	r1, [sp]
 3430              	.LVL264:
 3431 005e 0121     		movs	r1, #1
 3432 0060 FFF7FEFF 		bl	xTimerCreate
 3433              	.LVL265:
 3434              	.L342:
 940:Middlewares/Third_Party/FreeRTOS/Source/CMSIS_RTOS_V2/cmsis_os2.c ****         }
 941:Middlewares/Third_Party/FreeRTOS/Source/CMSIS_RTOS_V2/cmsis_os2.c ****       }
 942:Middlewares/Third_Party/FreeRTOS/Source/CMSIS_RTOS_V2/cmsis_os2.c ****     }
 943:Middlewares/Third_Party/FreeRTOS/Source/CMSIS_RTOS_V2/cmsis_os2.c ****   }
 944:Middlewares/Third_Party/FreeRTOS/Source/CMSIS_RTOS_V2/cmsis_os2.c **** 
 945:Middlewares/Third_Party/FreeRTOS/Source/CMSIS_RTOS_V2/cmsis_os2.c ****   return ((osTimerId_t)hTimer);
 946:Middlewares/Third_Party/FreeRTOS/Source/CMSIS_RTOS_V2/cmsis_os2.c **** }
 3435              		.loc 1 946 0
 3436 0064 03B0     		add	sp, sp, #12
 3437              	.LCFI52:
 3438              		.cfi_remember_state
 3439              		.cfi_def_cfa_offset 20
 3440              		@ sp needed
 3441 0066 F0BD     		pop	{r4, r5, r6, r7, pc}
 3442              	.LVL266:
 3443              	.L354:
 3444              	.LCFI53:
 3445              		.cfi_restore_state
 910:Middlewares/Third_Party/FreeRTOS/Source/CMSIS_RTOS_V2/cmsis_os2.c ****       }
 3446              		.loc 1 910 0
 3447 0068 0122     		movs	r2, #1
 3448 006a E9E7     		b	.L345
 3449              	.LVL267:
 3450              	.L361:
 925:Middlewares/Third_Party/FreeRTOS/Source/CMSIS_RTOS_V2/cmsis_os2.c ****             mem = 0;
 3451              		.loc 1 925 0 discriminator 1
 3452 006c E168     		ldr	r1, [r4, #12]
 3453 006e 39B1     		cbz	r1, .L358
ARM GAS  /tmp/ccZrYRqG.s 			page 93


 913:Middlewares/Third_Party/FreeRTOS/Source/CMSIS_RTOS_V2/cmsis_os2.c ****       name = NULL;
 3454              		.loc 1 913 0
 3455 0070 4FF0FF31 		mov	r1, #-1
 3456 0074 EEE7     		b	.L346
 3457              	.LVL268:
 3458              	.L355:
 931:Middlewares/Third_Party/FreeRTOS/Source/CMSIS_RTOS_V2/cmsis_os2.c ****       }
 3459              		.loc 1 931 0
 3460 0076 0021     		movs	r1, #0
 914:Middlewares/Third_Party/FreeRTOS/Source/CMSIS_RTOS_V2/cmsis_os2.c **** 
 3461              		.loc 1 914 0
 3462 0078 0846     		mov	r0, r1
 3463              	.LVL269:
 3464 007a EBE7     		b	.L346
 3465              	.LVL270:
 3466              	.L356:
 922:Middlewares/Third_Party/FreeRTOS/Source/CMSIS_RTOS_V2/cmsis_os2.c ****         }
 3467              		.loc 1 922 0
 3468 007c 0121     		movs	r1, #1
 3469 007e E9E7     		b	.L346
 3470              	.L358:
 926:Middlewares/Third_Party/FreeRTOS/Source/CMSIS_RTOS_V2/cmsis_os2.c ****           }
 3471              		.loc 1 926 0
 3472 0080 0021     		movs	r1, #0
 3473 0082 E7E7     		b	.L346
 3474              	.LVL271:
 3475              	.L362:
 935:Middlewares/Third_Party/FreeRTOS/Source/CMSIS_RTOS_V2/cmsis_os2.c ****       }
 3476              		.loc 1 935 0
 3477 0084 A168     		ldr	r1, [r4, #8]
 3478              	.LVL272:
 3479 0086 0191     		str	r1, [sp, #4]
 3480              	.LVL273:
 3481 0088 0849     		ldr	r1, .L363+4
 3482 008a 0091     		str	r1, [sp]
 3483 008c 0121     		movs	r1, #1
 3484 008e FFF7FEFF 		bl	xTimerCreateStatic
 3485              	.LVL274:
 3486 0092 E7E7     		b	.L342
 3487              	.LVL275:
 3488              	.L350:
 897:Middlewares/Third_Party/FreeRTOS/Source/CMSIS_RTOS_V2/cmsis_os2.c **** 
 3489              		.loc 1 897 0
 3490 0094 0020     		movs	r0, #0
 3491              	.LVL276:
 3492 0096 E5E7     		b	.L342
 3493              	.LVL277:
 3494              	.L351:
 3495 0098 0020     		movs	r0, #0
 3496              	.LVL278:
 3497 009a E3E7     		b	.L342
 3498              	.LVL279:
 3499              	.L352:
 3500 009c 0020     		movs	r0, #0
 3501              	.LVL280:
 3502 009e E1E7     		b	.L342
 3503              	.LVL281:
ARM GAS  /tmp/ccZrYRqG.s 			page 94


 3504              	.L353:
 3505 00a0 0020     		movs	r0, #0
 3506              	.LVL282:
 3507 00a2 DFE7     		b	.L342
 3508              	.LVL283:
 3509              	.L359:
 3510 00a4 0020     		movs	r0, #0
 3511              	.LVL284:
 3512 00a6 DDE7     		b	.L342
 3513              	.L364:
 3514              		.align	2
 3515              	.L363:
 3516 00a8 00000000 		.word	.LANCHOR0
 3517 00ac 00000000 		.word	TimerCallback
 3518              		.cfi_endproc
 3519              	.LFE139:
 3521              		.section	.text.osTimerGetName,"ax",%progbits
 3522              		.align	1
 3523              		.global	osTimerGetName
 3524              		.syntax unified
 3525              		.thumb
 3526              		.thumb_func
 3527              		.fpu fpv4-sp-d16
 3529              	osTimerGetName:
 3530              	.LFB140:
 947:Middlewares/Third_Party/FreeRTOS/Source/CMSIS_RTOS_V2/cmsis_os2.c **** 
 948:Middlewares/Third_Party/FreeRTOS/Source/CMSIS_RTOS_V2/cmsis_os2.c **** const char *osTimerGetName (osTimerId_t timer_id) {
 3531              		.loc 1 948 0
 3532              		.cfi_startproc
 3533              		@ args = 0, pretend = 0, frame = 0
 3534              		@ frame_needed = 0, uses_anonymous_args = 0
 3535              	.LVL285:
 3536 0000 08B5     		push	{r3, lr}
 3537              	.LCFI54:
 3538              		.cfi_def_cfa_offset 8
 3539              		.cfi_offset 3, -8
 3540              		.cfi_offset 14, -4
 3541              	.LVL286:
 3542              	.LBB498:
 3543              	.LBB499:
 209:Drivers/CMSIS/Include/cmsis_gcc.h ****   return(result);
 3544              		.loc 2 209 0
 3545              		.syntax unified
 3546              	@ 209 "Drivers/CMSIS/Include/cmsis_gcc.h" 1
 3547 0002 EFF30583 		MRS r3, ipsr
 3548              	@ 0 "" 2
 3549              		.thumb
 3550              		.syntax unified
 3551              	.LBE499:
 3552              	.LBE498:
 949:Middlewares/Third_Party/FreeRTOS/Source/CMSIS_RTOS_V2/cmsis_os2.c ****   TimerHandle_t hTimer = (TimerHandle_t)timer_id;
 950:Middlewares/Third_Party/FreeRTOS/Source/CMSIS_RTOS_V2/cmsis_os2.c ****   const char *p;
 951:Middlewares/Third_Party/FreeRTOS/Source/CMSIS_RTOS_V2/cmsis_os2.c **** 
 952:Middlewares/Third_Party/FreeRTOS/Source/CMSIS_RTOS_V2/cmsis_os2.c ****   if (IS_IRQ() || (hTimer == NULL)) {
 3553              		.loc 1 952 0
 3554 0006 6BB9     		cbnz	r3, .L369
 3555              	.LBB500:
ARM GAS  /tmp/ccZrYRqG.s 			page 95


 3556              	.LBB501:
 386:Drivers/CMSIS/Include/cmsis_gcc.h ****   return(result);
 3557              		.loc 2 386 0
 3558              		.syntax unified
 3559              	@ 386 "Drivers/CMSIS/Include/cmsis_gcc.h" 1
 3560 0008 EFF31083 		MRS r3, primask
 3561              	@ 0 "" 2
 3562              		.thumb
 3563              		.syntax unified
 3564              	.LBE501:
 3565              	.LBE500:
 3566              		.loc 1 952 0
 3567 000c 13B9     		cbnz	r3, .L367
 3568              	.LBB502:
 3569              	.LBB503:
 3570              		.loc 2 465 0
 3571              		.syntax unified
 3572              	@ 465 "Drivers/CMSIS/Include/cmsis_gcc.h" 1
 3573 000e EFF31183 		MRS r3, basepri
 3574              	@ 0 "" 2
 3575              		.thumb
 3576              		.syntax unified
 3577              	.LBE503:
 3578              	.LBE502:
 3579              		.loc 1 952 0
 3580 0012 1BB1     		cbz	r3, .L368
 3581              	.L367:
 3582              		.loc 1 952 0 is_stmt 0 discriminator 4
 3583 0014 064B     		ldr	r3, .L373
 3584 0016 1B68     		ldr	r3, [r3]
 3585 0018 022B     		cmp	r3, #2
 3586 001a 05D0     		beq	.L370
 3587              	.L368:
 3588              		.loc 1 952 0 discriminator 6
 3589 001c 30B1     		cbz	r0, .L371
 953:Middlewares/Third_Party/FreeRTOS/Source/CMSIS_RTOS_V2/cmsis_os2.c ****     p = NULL;
 954:Middlewares/Third_Party/FreeRTOS/Source/CMSIS_RTOS_V2/cmsis_os2.c ****   } else {
 955:Middlewares/Third_Party/FreeRTOS/Source/CMSIS_RTOS_V2/cmsis_os2.c ****     p = pcTimerGetName (hTimer);
 3590              		.loc 1 955 0 is_stmt 1
 3591 001e FFF7FEFF 		bl	pcTimerGetName
 3592              	.LVL287:
 3593 0022 08BD     		pop	{r3, pc}
 3594              	.LVL288:
 3595              	.L369:
 953:Middlewares/Third_Party/FreeRTOS/Source/CMSIS_RTOS_V2/cmsis_os2.c ****     p = NULL;
 3596              		.loc 1 953 0
 3597 0024 0020     		movs	r0, #0
 3598              	.LVL289:
 3599 0026 08BD     		pop	{r3, pc}
 3600              	.LVL290:
 3601              	.L370:
 3602 0028 0020     		movs	r0, #0
 3603              	.LVL291:
 3604 002a 08BD     		pop	{r3, pc}
 3605              	.LVL292:
 3606              	.L371:
 3607 002c 0020     		movs	r0, #0
ARM GAS  /tmp/ccZrYRqG.s 			page 96


 3608              	.LVL293:
 956:Middlewares/Third_Party/FreeRTOS/Source/CMSIS_RTOS_V2/cmsis_os2.c ****   }
 957:Middlewares/Third_Party/FreeRTOS/Source/CMSIS_RTOS_V2/cmsis_os2.c **** 
 958:Middlewares/Third_Party/FreeRTOS/Source/CMSIS_RTOS_V2/cmsis_os2.c ****   return (p);
 959:Middlewares/Third_Party/FreeRTOS/Source/CMSIS_RTOS_V2/cmsis_os2.c **** }
 3609              		.loc 1 959 0
 3610 002e 08BD     		pop	{r3, pc}
 3611              	.L374:
 3612              		.align	2
 3613              	.L373:
 3614 0030 00000000 		.word	.LANCHOR0
 3615              		.cfi_endproc
 3616              	.LFE140:
 3618              		.section	.text.osTimerStart,"ax",%progbits
 3619              		.align	1
 3620              		.global	osTimerStart
 3621              		.syntax unified
 3622              		.thumb
 3623              		.thumb_func
 3624              		.fpu fpv4-sp-d16
 3626              	osTimerStart:
 3627              	.LFB141:
 960:Middlewares/Third_Party/FreeRTOS/Source/CMSIS_RTOS_V2/cmsis_os2.c **** 
 961:Middlewares/Third_Party/FreeRTOS/Source/CMSIS_RTOS_V2/cmsis_os2.c **** osStatus_t osTimerStart (osTimerId_t timer_id, uint32_t ticks) {
 3628              		.loc 1 961 0
 3629              		.cfi_startproc
 3630              		@ args = 0, pretend = 0, frame = 0
 3631              		@ frame_needed = 0, uses_anonymous_args = 0
 3632              	.LVL294:
 3633              	.LBB504:
 3634              	.LBB505:
 209:Drivers/CMSIS/Include/cmsis_gcc.h ****   return(result);
 3635              		.loc 2 209 0
 3636              		.syntax unified
 3637              	@ 209 "Drivers/CMSIS/Include/cmsis_gcc.h" 1
 3638 0000 EFF30583 		MRS r3, ipsr
 3639              	@ 0 "" 2
 3640              		.thumb
 3641              		.syntax unified
 3642              	.LBE505:
 3643              	.LBE504:
 962:Middlewares/Third_Party/FreeRTOS/Source/CMSIS_RTOS_V2/cmsis_os2.c ****   TimerHandle_t hTimer = (TimerHandle_t)timer_id;
 963:Middlewares/Third_Party/FreeRTOS/Source/CMSIS_RTOS_V2/cmsis_os2.c ****   osStatus_t stat;
 964:Middlewares/Third_Party/FreeRTOS/Source/CMSIS_RTOS_V2/cmsis_os2.c **** 
 965:Middlewares/Third_Party/FreeRTOS/Source/CMSIS_RTOS_V2/cmsis_os2.c ****   if (IS_IRQ()) {
 3644              		.loc 1 965 0
 3645 0004 C3B9     		cbnz	r3, .L379
 3646              	.LBB506:
 3647              	.LBB507:
 386:Drivers/CMSIS/Include/cmsis_gcc.h ****   return(result);
 3648              		.loc 2 386 0
 3649              		.syntax unified
 3650              	@ 386 "Drivers/CMSIS/Include/cmsis_gcc.h" 1
 3651 0006 EFF31083 		MRS r3, primask
 3652              	@ 0 "" 2
 3653              		.thumb
 3654              		.syntax unified
ARM GAS  /tmp/ccZrYRqG.s 			page 97


 3655              	.LBE507:
 3656              	.LBE506:
 3657              		.loc 1 965 0
 3658 000a 13B9     		cbnz	r3, .L377
 3659              	.LBB508:
 3660              	.LBB509:
 3661              		.loc 2 465 0
 3662              		.syntax unified
 3663              	@ 465 "Drivers/CMSIS/Include/cmsis_gcc.h" 1
 3664 000c EFF31183 		MRS r3, basepri
 3665              	@ 0 "" 2
 3666              		.thumb
 3667              		.syntax unified
 3668              	.LBE509:
 3669              	.LBE508:
 3670              		.loc 1 965 0
 3671 0010 1BB1     		cbz	r3, .L378
 3672              	.L377:
 3673              		.loc 1 965 0 is_stmt 0 discriminator 4
 3674 0012 0F4B     		ldr	r3, .L387
 3675 0014 1B68     		ldr	r3, [r3]
 3676 0016 022B     		cmp	r3, #2
 3677 0018 11D0     		beq	.L380
 3678              	.L378:
 966:Middlewares/Third_Party/FreeRTOS/Source/CMSIS_RTOS_V2/cmsis_os2.c ****     stat = osErrorISR;
 967:Middlewares/Third_Party/FreeRTOS/Source/CMSIS_RTOS_V2/cmsis_os2.c ****   }
 968:Middlewares/Third_Party/FreeRTOS/Source/CMSIS_RTOS_V2/cmsis_os2.c ****   else if (hTimer == NULL) {
 3679              		.loc 1 968 0 is_stmt 1
 3680 001a 98B1     		cbz	r0, .L381
 961:Middlewares/Third_Party/FreeRTOS/Source/CMSIS_RTOS_V2/cmsis_os2.c ****   TimerHandle_t hTimer = (TimerHandle_t)timer_id;
 3681              		.loc 1 961 0
 3682 001c 00B5     		push	{lr}
 3683              	.LCFI55:
 3684              		.cfi_def_cfa_offset 4
 3685              		.cfi_offset 14, -4
 3686 001e 83B0     		sub	sp, sp, #12
 3687              	.LCFI56:
 3688              		.cfi_def_cfa_offset 16
 3689 0020 0A46     		mov	r2, r1
 969:Middlewares/Third_Party/FreeRTOS/Source/CMSIS_RTOS_V2/cmsis_os2.c ****     stat = osErrorParameter;
 970:Middlewares/Third_Party/FreeRTOS/Source/CMSIS_RTOS_V2/cmsis_os2.c ****   }
 971:Middlewares/Third_Party/FreeRTOS/Source/CMSIS_RTOS_V2/cmsis_os2.c ****   else {
 972:Middlewares/Third_Party/FreeRTOS/Source/CMSIS_RTOS_V2/cmsis_os2.c ****     if (xTimerChangePeriod (hTimer, ticks, 0) == pdPASS) {
 3690              		.loc 1 972 0
 3691 0022 0023     		movs	r3, #0
 3692 0024 0093     		str	r3, [sp]
 3693 0026 0421     		movs	r1, #4
 3694              	.LVL295:
 3695 0028 FFF7FEFF 		bl	xTimerGenericCommand
 3696              	.LVL296:
 3697 002c 0128     		cmp	r0, #1
 3698 002e 0CD1     		bne	.L382
 973:Middlewares/Third_Party/FreeRTOS/Source/CMSIS_RTOS_V2/cmsis_os2.c ****       stat = osOK;
 3699              		.loc 1 973 0
 3700 0030 0020     		movs	r0, #0
 3701              	.L375:
 974:Middlewares/Third_Party/FreeRTOS/Source/CMSIS_RTOS_V2/cmsis_os2.c ****     } else {
ARM GAS  /tmp/ccZrYRqG.s 			page 98


 975:Middlewares/Third_Party/FreeRTOS/Source/CMSIS_RTOS_V2/cmsis_os2.c ****       stat = osErrorResource;
 976:Middlewares/Third_Party/FreeRTOS/Source/CMSIS_RTOS_V2/cmsis_os2.c ****     }
 977:Middlewares/Third_Party/FreeRTOS/Source/CMSIS_RTOS_V2/cmsis_os2.c ****   }
 978:Middlewares/Third_Party/FreeRTOS/Source/CMSIS_RTOS_V2/cmsis_os2.c **** 
 979:Middlewares/Third_Party/FreeRTOS/Source/CMSIS_RTOS_V2/cmsis_os2.c ****   return (stat);
 980:Middlewares/Third_Party/FreeRTOS/Source/CMSIS_RTOS_V2/cmsis_os2.c **** }
 3702              		.loc 1 980 0
 3703 0032 03B0     		add	sp, sp, #12
 3704              	.LCFI57:
 3705              		.cfi_def_cfa_offset 4
 3706              		@ sp needed
 3707 0034 5DF804FB 		ldr	pc, [sp], #4
 3708              	.LVL297:
 3709              	.L379:
 3710              	.LCFI58:
 3711              		.cfi_def_cfa_offset 0
 3712              		.cfi_restore 14
 966:Middlewares/Third_Party/FreeRTOS/Source/CMSIS_RTOS_V2/cmsis_os2.c ****   }
 3713              		.loc 1 966 0
 3714 0038 6FF00500 		mvn	r0, #5
 3715              	.LVL298:
 3716 003c 7047     		bx	lr
 3717              	.LVL299:
 3718              	.L380:
 3719 003e 6FF00500 		mvn	r0, #5
 3720              	.LVL300:
 3721 0042 7047     		bx	lr
 3722              	.LVL301:
 3723              	.L381:
 969:Middlewares/Third_Party/FreeRTOS/Source/CMSIS_RTOS_V2/cmsis_os2.c ****   }
 3724              		.loc 1 969 0
 3725 0044 6FF00300 		mvn	r0, #3
 3726              	.LVL302:
 3727 0048 7047     		bx	lr
 3728              	.LVL303:
 3729              	.L382:
 3730              	.LCFI59:
 3731              		.cfi_def_cfa_offset 16
 3732              		.cfi_offset 14, -4
 975:Middlewares/Third_Party/FreeRTOS/Source/CMSIS_RTOS_V2/cmsis_os2.c ****     }
 3733              		.loc 1 975 0
 3734 004a 6FF00200 		mvn	r0, #2
 3735              	.LVL304:
 979:Middlewares/Third_Party/FreeRTOS/Source/CMSIS_RTOS_V2/cmsis_os2.c **** }
 3736              		.loc 1 979 0
 3737 004e F0E7     		b	.L375
 3738              	.L388:
 3739              		.align	2
 3740              	.L387:
 3741 0050 00000000 		.word	.LANCHOR0
 3742              		.cfi_endproc
 3743              	.LFE141:
 3745              		.section	.text.osTimerStop,"ax",%progbits
 3746              		.align	1
 3747              		.global	osTimerStop
 3748              		.syntax unified
 3749              		.thumb
ARM GAS  /tmp/ccZrYRqG.s 			page 99


 3750              		.thumb_func
 3751              		.fpu fpv4-sp-d16
 3753              	osTimerStop:
 3754              	.LFB142:
 981:Middlewares/Third_Party/FreeRTOS/Source/CMSIS_RTOS_V2/cmsis_os2.c **** 
 982:Middlewares/Third_Party/FreeRTOS/Source/CMSIS_RTOS_V2/cmsis_os2.c **** osStatus_t osTimerStop (osTimerId_t timer_id) {
 3755              		.loc 1 982 0
 3756              		.cfi_startproc
 3757              		@ args = 0, pretend = 0, frame = 0
 3758              		@ frame_needed = 0, uses_anonymous_args = 0
 3759              	.LVL305:
 3760              	.LBB510:
 3761              	.LBB511:
 209:Drivers/CMSIS/Include/cmsis_gcc.h ****   return(result);
 3762              		.loc 2 209 0
 3763              		.syntax unified
 3764              	@ 209 "Drivers/CMSIS/Include/cmsis_gcc.h" 1
 3765 0000 EFF30583 		MRS r3, ipsr
 3766              	@ 0 "" 2
 3767              		.thumb
 3768              		.syntax unified
 3769              	.LBE511:
 3770              	.LBE510:
 983:Middlewares/Third_Party/FreeRTOS/Source/CMSIS_RTOS_V2/cmsis_os2.c ****   TimerHandle_t hTimer = (TimerHandle_t)timer_id;
 984:Middlewares/Third_Party/FreeRTOS/Source/CMSIS_RTOS_V2/cmsis_os2.c ****   osStatus_t stat;
 985:Middlewares/Third_Party/FreeRTOS/Source/CMSIS_RTOS_V2/cmsis_os2.c **** 
 986:Middlewares/Third_Party/FreeRTOS/Source/CMSIS_RTOS_V2/cmsis_os2.c ****   if (IS_IRQ()) {
 3771              		.loc 1 986 0
 3772 0004 E3B9     		cbnz	r3, .L393
 3773              	.LBB512:
 3774              	.LBB513:
 386:Drivers/CMSIS/Include/cmsis_gcc.h ****   return(result);
 3775              		.loc 2 386 0
 3776              		.syntax unified
 3777              	@ 386 "Drivers/CMSIS/Include/cmsis_gcc.h" 1
 3778 0006 EFF31083 		MRS r3, primask
 3779              	@ 0 "" 2
 3780              		.thumb
 3781              		.syntax unified
 3782              	.LBE513:
 3783              	.LBE512:
 3784              		.loc 1 986 0
 3785 000a 13B9     		cbnz	r3, .L391
 3786              	.LBB514:
 3787              	.LBB515:
 3788              		.loc 2 465 0
 3789              		.syntax unified
 3790              	@ 465 "Drivers/CMSIS/Include/cmsis_gcc.h" 1
 3791 000c EFF31183 		MRS r3, basepri
 3792              	@ 0 "" 2
 3793              		.thumb
 3794              		.syntax unified
 3795              	.LBE515:
 3796              	.LBE514:
 3797              		.loc 1 986 0
 3798 0010 1BB1     		cbz	r3, .L392
 3799              	.L391:
ARM GAS  /tmp/ccZrYRqG.s 			page 100


 3800              		.loc 1 986 0 is_stmt 0 discriminator 4
 3801 0012 134B     		ldr	r3, .L402
 3802 0014 1B68     		ldr	r3, [r3]
 3803 0016 022B     		cmp	r3, #2
 3804 0018 15D0     		beq	.L394
 3805              	.L392:
 987:Middlewares/Third_Party/FreeRTOS/Source/CMSIS_RTOS_V2/cmsis_os2.c ****     stat = osErrorISR;
 988:Middlewares/Third_Party/FreeRTOS/Source/CMSIS_RTOS_V2/cmsis_os2.c ****   }
 989:Middlewares/Third_Party/FreeRTOS/Source/CMSIS_RTOS_V2/cmsis_os2.c ****   else if (hTimer == NULL) {
 3806              		.loc 1 989 0 is_stmt 1
 3807 001a B8B1     		cbz	r0, .L395
 982:Middlewares/Third_Party/FreeRTOS/Source/CMSIS_RTOS_V2/cmsis_os2.c ****   TimerHandle_t hTimer = (TimerHandle_t)timer_id;
 3808              		.loc 1 982 0
 3809 001c 10B5     		push	{r4, lr}
 3810              	.LCFI60:
 3811              		.cfi_def_cfa_offset 8
 3812              		.cfi_offset 4, -8
 3813              		.cfi_offset 14, -4
 3814 001e 82B0     		sub	sp, sp, #8
 3815              	.LCFI61:
 3816              		.cfi_def_cfa_offset 16
 3817 0020 0446     		mov	r4, r0
 990:Middlewares/Third_Party/FreeRTOS/Source/CMSIS_RTOS_V2/cmsis_os2.c ****     stat = osErrorParameter;
 991:Middlewares/Third_Party/FreeRTOS/Source/CMSIS_RTOS_V2/cmsis_os2.c ****   }
 992:Middlewares/Third_Party/FreeRTOS/Source/CMSIS_RTOS_V2/cmsis_os2.c ****   else {
 993:Middlewares/Third_Party/FreeRTOS/Source/CMSIS_RTOS_V2/cmsis_os2.c ****     if (xTimerIsTimerActive (hTimer) == pdFALSE) {
 3818              		.loc 1 993 0
 3819 0022 FFF7FEFF 		bl	xTimerIsTimerActive
 3820              	.LVL306:
 3821 0026 A0B1     		cbz	r0, .L396
 994:Middlewares/Third_Party/FreeRTOS/Source/CMSIS_RTOS_V2/cmsis_os2.c ****       stat = osErrorResource;
 995:Middlewares/Third_Party/FreeRTOS/Source/CMSIS_RTOS_V2/cmsis_os2.c ****     }
 996:Middlewares/Third_Party/FreeRTOS/Source/CMSIS_RTOS_V2/cmsis_os2.c ****     else {
 997:Middlewares/Third_Party/FreeRTOS/Source/CMSIS_RTOS_V2/cmsis_os2.c ****       if (xTimerStop (hTimer, 0) == pdPASS) {
 3822              		.loc 1 997 0
 3823 0028 0022     		movs	r2, #0
 3824 002a 0092     		str	r2, [sp]
 3825 002c 1346     		mov	r3, r2
 3826 002e 0321     		movs	r1, #3
 3827 0030 2046     		mov	r0, r4
 3828 0032 FFF7FEFF 		bl	xTimerGenericCommand
 3829              	.LVL307:
 3830 0036 0128     		cmp	r0, #1
 3831 0038 0ED1     		bne	.L397
 998:Middlewares/Third_Party/FreeRTOS/Source/CMSIS_RTOS_V2/cmsis_os2.c ****         stat = osOK;
 3832              		.loc 1 998 0
 3833 003a 0020     		movs	r0, #0
 3834              	.L389:
 999:Middlewares/Third_Party/FreeRTOS/Source/CMSIS_RTOS_V2/cmsis_os2.c ****       } else {
1000:Middlewares/Third_Party/FreeRTOS/Source/CMSIS_RTOS_V2/cmsis_os2.c ****         stat = osError;
1001:Middlewares/Third_Party/FreeRTOS/Source/CMSIS_RTOS_V2/cmsis_os2.c ****       }
1002:Middlewares/Third_Party/FreeRTOS/Source/CMSIS_RTOS_V2/cmsis_os2.c ****     }
1003:Middlewares/Third_Party/FreeRTOS/Source/CMSIS_RTOS_V2/cmsis_os2.c ****   }
1004:Middlewares/Third_Party/FreeRTOS/Source/CMSIS_RTOS_V2/cmsis_os2.c **** 
1005:Middlewares/Third_Party/FreeRTOS/Source/CMSIS_RTOS_V2/cmsis_os2.c ****   return (stat);
1006:Middlewares/Third_Party/FreeRTOS/Source/CMSIS_RTOS_V2/cmsis_os2.c **** }
 3835              		.loc 1 1006 0
ARM GAS  /tmp/ccZrYRqG.s 			page 101


 3836 003c 02B0     		add	sp, sp, #8
 3837              	.LCFI62:
 3838              		.cfi_def_cfa_offset 8
 3839              		@ sp needed
 3840 003e 10BD     		pop	{r4, pc}
 3841              	.LVL308:
 3842              	.L393:
 3843              	.LCFI63:
 3844              		.cfi_def_cfa_offset 0
 3845              		.cfi_restore 4
 3846              		.cfi_restore 14
 987:Middlewares/Third_Party/FreeRTOS/Source/CMSIS_RTOS_V2/cmsis_os2.c ****   }
 3847              		.loc 1 987 0
 3848 0040 6FF00500 		mvn	r0, #5
 3849              	.LVL309:
 3850 0044 7047     		bx	lr
 3851              	.LVL310:
 3852              	.L394:
 3853 0046 6FF00500 		mvn	r0, #5
 3854              	.LVL311:
 3855 004a 7047     		bx	lr
 3856              	.LVL312:
 3857              	.L395:
 990:Middlewares/Third_Party/FreeRTOS/Source/CMSIS_RTOS_V2/cmsis_os2.c ****   }
 3858              		.loc 1 990 0
 3859 004c 6FF00300 		mvn	r0, #3
 3860              	.LVL313:
 3861 0050 7047     		bx	lr
 3862              	.LVL314:
 3863              	.L396:
 3864              	.LCFI64:
 3865              		.cfi_def_cfa_offset 16
 3866              		.cfi_offset 4, -8
 3867              		.cfi_offset 14, -4
 994:Middlewares/Third_Party/FreeRTOS/Source/CMSIS_RTOS_V2/cmsis_os2.c ****     }
 3868              		.loc 1 994 0
 3869 0052 6FF00200 		mvn	r0, #2
 3870 0056 F1E7     		b	.L389
 3871              	.L397:
1000:Middlewares/Third_Party/FreeRTOS/Source/CMSIS_RTOS_V2/cmsis_os2.c ****       }
 3872              		.loc 1 1000 0
 3873 0058 4FF0FF30 		mov	r0, #-1
 3874              	.LVL315:
1005:Middlewares/Third_Party/FreeRTOS/Source/CMSIS_RTOS_V2/cmsis_os2.c **** }
 3875              		.loc 1 1005 0
 3876 005c EEE7     		b	.L389
 3877              	.L403:
 3878 005e 00BF     		.align	2
 3879              	.L402:
 3880 0060 00000000 		.word	.LANCHOR0
 3881              		.cfi_endproc
 3882              	.LFE142:
 3884              		.section	.text.osTimerIsRunning,"ax",%progbits
 3885              		.align	1
 3886              		.global	osTimerIsRunning
 3887              		.syntax unified
 3888              		.thumb
ARM GAS  /tmp/ccZrYRqG.s 			page 102


 3889              		.thumb_func
 3890              		.fpu fpv4-sp-d16
 3892              	osTimerIsRunning:
 3893              	.LFB143:
1007:Middlewares/Third_Party/FreeRTOS/Source/CMSIS_RTOS_V2/cmsis_os2.c **** 
1008:Middlewares/Third_Party/FreeRTOS/Source/CMSIS_RTOS_V2/cmsis_os2.c **** uint32_t osTimerIsRunning (osTimerId_t timer_id) {
 3894              		.loc 1 1008 0
 3895              		.cfi_startproc
 3896              		@ args = 0, pretend = 0, frame = 0
 3897              		@ frame_needed = 0, uses_anonymous_args = 0
 3898              	.LVL316:
 3899 0000 08B5     		push	{r3, lr}
 3900              	.LCFI65:
 3901              		.cfi_def_cfa_offset 8
 3902              		.cfi_offset 3, -8
 3903              		.cfi_offset 14, -4
 3904 0002 0346     		mov	r3, r0
 3905              	.LVL317:
 3906              	.LBB516:
 3907              	.LBB517:
 209:Drivers/CMSIS/Include/cmsis_gcc.h ****   return(result);
 3908              		.loc 2 209 0
 3909              		.syntax unified
 3910              	@ 209 "Drivers/CMSIS/Include/cmsis_gcc.h" 1
 3911 0004 EFF30580 		MRS r0, ipsr
 3912              	@ 0 "" 2
 3913              	.LVL318:
 3914              		.thumb
 3915              		.syntax unified
 3916              	.LBE517:
 3917              	.LBE516:
1009:Middlewares/Third_Party/FreeRTOS/Source/CMSIS_RTOS_V2/cmsis_os2.c ****   TimerHandle_t hTimer = (TimerHandle_t)timer_id;
1010:Middlewares/Third_Party/FreeRTOS/Source/CMSIS_RTOS_V2/cmsis_os2.c ****   uint32_t running;
1011:Middlewares/Third_Party/FreeRTOS/Source/CMSIS_RTOS_V2/cmsis_os2.c **** 
1012:Middlewares/Third_Party/FreeRTOS/Source/CMSIS_RTOS_V2/cmsis_os2.c ****   if (IS_IRQ() || (hTimer == NULL)) {
 3918              		.loc 1 1012 0
 3919 0008 70B9     		cbnz	r0, .L408
 3920              	.LBB518:
 3921              	.LBB519:
 386:Drivers/CMSIS/Include/cmsis_gcc.h ****   return(result);
 3922              		.loc 2 386 0
 3923              		.syntax unified
 3924              	@ 386 "Drivers/CMSIS/Include/cmsis_gcc.h" 1
 3925 000a EFF31082 		MRS r2, primask
 3926              	@ 0 "" 2
 3927              		.thumb
 3928              		.syntax unified
 3929              	.LBE519:
 3930              	.LBE518:
 3931              		.loc 1 1012 0
 3932 000e 12B9     		cbnz	r2, .L406
 3933              	.LBB520:
 3934              	.LBB521:
 3935              		.loc 2 465 0
 3936              		.syntax unified
 3937              	@ 465 "Drivers/CMSIS/Include/cmsis_gcc.h" 1
 3938 0010 EFF31182 		MRS r2, basepri
ARM GAS  /tmp/ccZrYRqG.s 			page 103


 3939              	@ 0 "" 2
 3940              		.thumb
 3941              		.syntax unified
 3942              	.LBE521:
 3943              	.LBE520:
 3944              		.loc 1 1012 0
 3945 0014 1AB1     		cbz	r2, .L407
 3946              	.L406:
 3947              		.loc 1 1012 0 is_stmt 0 discriminator 4
 3948 0016 054A     		ldr	r2, .L410
 3949 0018 1268     		ldr	r2, [r2]
 3950 001a 022A     		cmp	r2, #2
 3951 001c 05D0     		beq	.L404
 3952              	.L407:
 3953              		.loc 1 1012 0 discriminator 6
 3954 001e 23B1     		cbz	r3, .L404
 3955 0020 1846     		mov	r0, r3
1013:Middlewares/Third_Party/FreeRTOS/Source/CMSIS_RTOS_V2/cmsis_os2.c ****     running = 0U;
1014:Middlewares/Third_Party/FreeRTOS/Source/CMSIS_RTOS_V2/cmsis_os2.c ****   } else {
1015:Middlewares/Third_Party/FreeRTOS/Source/CMSIS_RTOS_V2/cmsis_os2.c ****     running = (uint32_t)xTimerIsTimerActive (hTimer);
 3956              		.loc 1 1015 0 is_stmt 1
 3957 0022 FFF7FEFF 		bl	xTimerIsTimerActive
 3958              	.LVL319:
 3959 0026 08BD     		pop	{r3, pc}
 3960              	.LVL320:
 3961              	.L408:
1013:Middlewares/Third_Party/FreeRTOS/Source/CMSIS_RTOS_V2/cmsis_os2.c ****     running = 0U;
 3962              		.loc 1 1013 0
 3963 0028 0020     		movs	r0, #0
 3964              	.LVL321:
 3965              	.L404:
1016:Middlewares/Third_Party/FreeRTOS/Source/CMSIS_RTOS_V2/cmsis_os2.c ****   }
1017:Middlewares/Third_Party/FreeRTOS/Source/CMSIS_RTOS_V2/cmsis_os2.c **** 
1018:Middlewares/Third_Party/FreeRTOS/Source/CMSIS_RTOS_V2/cmsis_os2.c ****   return (running);
1019:Middlewares/Third_Party/FreeRTOS/Source/CMSIS_RTOS_V2/cmsis_os2.c **** }
 3966              		.loc 1 1019 0
 3967 002a 08BD     		pop	{r3, pc}
 3968              	.LVL322:
 3969              	.L411:
 3970              		.align	2
 3971              	.L410:
 3972 002c 00000000 		.word	.LANCHOR0
 3973              		.cfi_endproc
 3974              	.LFE143:
 3976              		.section	.text.osTimerDelete,"ax",%progbits
 3977              		.align	1
 3978              		.global	osTimerDelete
 3979              		.syntax unified
 3980              		.thumb
 3981              		.thumb_func
 3982              		.fpu fpv4-sp-d16
 3984              	osTimerDelete:
 3985              	.LFB144:
1020:Middlewares/Third_Party/FreeRTOS/Source/CMSIS_RTOS_V2/cmsis_os2.c **** 
1021:Middlewares/Third_Party/FreeRTOS/Source/CMSIS_RTOS_V2/cmsis_os2.c **** osStatus_t osTimerDelete (osTimerId_t timer_id) {
 3986              		.loc 1 1021 0
 3987              		.cfi_startproc
ARM GAS  /tmp/ccZrYRqG.s 			page 104


 3988              		@ args = 0, pretend = 0, frame = 0
 3989              		@ frame_needed = 0, uses_anonymous_args = 0
 3990              	.LVL323:
 3991              	.LBB522:
 3992              	.LBB523:
 209:Drivers/CMSIS/Include/cmsis_gcc.h ****   return(result);
 3993              		.loc 2 209 0
 3994              		.syntax unified
 3995              	@ 209 "Drivers/CMSIS/Include/cmsis_gcc.h" 1
 3996 0000 EFF30583 		MRS r3, ipsr
 3997              	@ 0 "" 2
 3998              		.thumb
 3999              		.syntax unified
 4000              	.LBE523:
 4001              	.LBE522:
1022:Middlewares/Third_Party/FreeRTOS/Source/CMSIS_RTOS_V2/cmsis_os2.c ****   TimerHandle_t hTimer = (TimerHandle_t)timer_id;
1023:Middlewares/Third_Party/FreeRTOS/Source/CMSIS_RTOS_V2/cmsis_os2.c ****   osStatus_t stat;
1024:Middlewares/Third_Party/FreeRTOS/Source/CMSIS_RTOS_V2/cmsis_os2.c **** #ifndef USE_FreeRTOS_HEAP_1
1025:Middlewares/Third_Party/FreeRTOS/Source/CMSIS_RTOS_V2/cmsis_os2.c ****   TimerCallback_t *callb;
1026:Middlewares/Third_Party/FreeRTOS/Source/CMSIS_RTOS_V2/cmsis_os2.c **** 
1027:Middlewares/Third_Party/FreeRTOS/Source/CMSIS_RTOS_V2/cmsis_os2.c ****   if (IS_IRQ()) {
 4002              		.loc 1 1027 0
 4003 0004 FBB9     		cbnz	r3, .L416
 4004              	.LBB524:
 4005              	.LBB525:
 386:Drivers/CMSIS/Include/cmsis_gcc.h ****   return(result);
 4006              		.loc 2 386 0
 4007              		.syntax unified
 4008              	@ 386 "Drivers/CMSIS/Include/cmsis_gcc.h" 1
 4009 0006 EFF31083 		MRS r3, primask
 4010              	@ 0 "" 2
 4011              		.thumb
 4012              		.syntax unified
 4013              	.LBE525:
 4014              	.LBE524:
 4015              		.loc 1 1027 0
 4016 000a 13B9     		cbnz	r3, .L414
 4017              	.LBB526:
 4018              	.LBB527:
 4019              		.loc 2 465 0
 4020              		.syntax unified
 4021              	@ 465 "Drivers/CMSIS/Include/cmsis_gcc.h" 1
 4022 000c EFF31183 		MRS r3, basepri
 4023              	@ 0 "" 2
 4024              		.thumb
 4025              		.syntax unified
 4026              	.LBE527:
 4027              	.LBE526:
 4028              		.loc 1 1027 0
 4029 0010 1BB1     		cbz	r3, .L415
 4030              	.L414:
 4031              		.loc 1 1027 0 is_stmt 0 discriminator 4
 4032 0012 134B     		ldr	r3, .L424
 4033 0014 1B68     		ldr	r3, [r3]
 4034 0016 022B     		cmp	r3, #2
 4035 0018 18D0     		beq	.L417
 4036              	.L415:
ARM GAS  /tmp/ccZrYRqG.s 			page 105


1028:Middlewares/Third_Party/FreeRTOS/Source/CMSIS_RTOS_V2/cmsis_os2.c ****     stat = osErrorISR;
1029:Middlewares/Third_Party/FreeRTOS/Source/CMSIS_RTOS_V2/cmsis_os2.c ****   }
1030:Middlewares/Third_Party/FreeRTOS/Source/CMSIS_RTOS_V2/cmsis_os2.c ****   else if (hTimer == NULL) {
 4037              		.loc 1 1030 0 is_stmt 1
 4038 001a D0B1     		cbz	r0, .L418
1021:Middlewares/Third_Party/FreeRTOS/Source/CMSIS_RTOS_V2/cmsis_os2.c ****   TimerHandle_t hTimer = (TimerHandle_t)timer_id;
 4039              		.loc 1 1021 0
 4040 001c 30B5     		push	{r4, r5, lr}
 4041              	.LCFI66:
 4042              		.cfi_def_cfa_offset 12
 4043              		.cfi_offset 4, -12
 4044              		.cfi_offset 5, -8
 4045              		.cfi_offset 14, -4
 4046 001e 83B0     		sub	sp, sp, #12
 4047              	.LCFI67:
 4048              		.cfi_def_cfa_offset 24
 4049 0020 0446     		mov	r4, r0
1031:Middlewares/Third_Party/FreeRTOS/Source/CMSIS_RTOS_V2/cmsis_os2.c ****     stat = osErrorParameter;
1032:Middlewares/Third_Party/FreeRTOS/Source/CMSIS_RTOS_V2/cmsis_os2.c ****   }
1033:Middlewares/Third_Party/FreeRTOS/Source/CMSIS_RTOS_V2/cmsis_os2.c ****   else {
1034:Middlewares/Third_Party/FreeRTOS/Source/CMSIS_RTOS_V2/cmsis_os2.c ****     callb = (TimerCallback_t *)pvTimerGetTimerID (hTimer);
 4050              		.loc 1 1034 0
 4051 0022 FFF7FEFF 		bl	pvTimerGetTimerID
 4052              	.LVL324:
 4053 0026 0546     		mov	r5, r0
 4054              	.LVL325:
1035:Middlewares/Third_Party/FreeRTOS/Source/CMSIS_RTOS_V2/cmsis_os2.c **** 
1036:Middlewares/Third_Party/FreeRTOS/Source/CMSIS_RTOS_V2/cmsis_os2.c ****     if (xTimerDelete (hTimer, 0) == pdPASS) {
 4055              		.loc 1 1036 0
 4056 0028 0022     		movs	r2, #0
 4057 002a 0092     		str	r2, [sp]
 4058 002c 1346     		mov	r3, r2
 4059 002e 0521     		movs	r1, #5
 4060 0030 2046     		mov	r0, r4
 4061              	.LVL326:
 4062 0032 FFF7FEFF 		bl	xTimerGenericCommand
 4063              	.LVL327:
 4064 0036 0128     		cmp	r0, #1
 4065 0038 0ED1     		bne	.L419
1037:Middlewares/Third_Party/FreeRTOS/Source/CMSIS_RTOS_V2/cmsis_os2.c ****       vPortFree (callb);
 4066              		.loc 1 1037 0
 4067 003a 2846     		mov	r0, r5
 4068 003c FFF7FEFF 		bl	vPortFree
 4069              	.LVL328:
1038:Middlewares/Third_Party/FreeRTOS/Source/CMSIS_RTOS_V2/cmsis_os2.c ****       stat = osOK;
 4070              		.loc 1 1038 0
 4071 0040 0020     		movs	r0, #0
 4072              	.LVL329:
 4073              	.L412:
1039:Middlewares/Third_Party/FreeRTOS/Source/CMSIS_RTOS_V2/cmsis_os2.c ****     } else {
1040:Middlewares/Third_Party/FreeRTOS/Source/CMSIS_RTOS_V2/cmsis_os2.c ****       stat = osErrorResource;
1041:Middlewares/Third_Party/FreeRTOS/Source/CMSIS_RTOS_V2/cmsis_os2.c ****     }
1042:Middlewares/Third_Party/FreeRTOS/Source/CMSIS_RTOS_V2/cmsis_os2.c ****   }
1043:Middlewares/Third_Party/FreeRTOS/Source/CMSIS_RTOS_V2/cmsis_os2.c **** #else
1044:Middlewares/Third_Party/FreeRTOS/Source/CMSIS_RTOS_V2/cmsis_os2.c ****   stat = osError;
1045:Middlewares/Third_Party/FreeRTOS/Source/CMSIS_RTOS_V2/cmsis_os2.c **** #endif
1046:Middlewares/Third_Party/FreeRTOS/Source/CMSIS_RTOS_V2/cmsis_os2.c **** 
ARM GAS  /tmp/ccZrYRqG.s 			page 106


1047:Middlewares/Third_Party/FreeRTOS/Source/CMSIS_RTOS_V2/cmsis_os2.c ****   return (stat);
1048:Middlewares/Third_Party/FreeRTOS/Source/CMSIS_RTOS_V2/cmsis_os2.c **** }
 4074              		.loc 1 1048 0
 4075 0042 03B0     		add	sp, sp, #12
 4076              	.LCFI68:
 4077              		.cfi_def_cfa_offset 12
 4078              		@ sp needed
 4079 0044 30BD     		pop	{r4, r5, pc}
 4080              	.LVL330:
 4081              	.L416:
 4082              	.LCFI69:
 4083              		.cfi_def_cfa_offset 0
 4084              		.cfi_restore 4
 4085              		.cfi_restore 5
 4086              		.cfi_restore 14
1028:Middlewares/Third_Party/FreeRTOS/Source/CMSIS_RTOS_V2/cmsis_os2.c ****   }
 4087              		.loc 1 1028 0
 4088 0046 6FF00500 		mvn	r0, #5
 4089              	.LVL331:
 4090 004a 7047     		bx	lr
 4091              	.LVL332:
 4092              	.L417:
 4093 004c 6FF00500 		mvn	r0, #5
 4094              	.LVL333:
 4095 0050 7047     		bx	lr
 4096              	.LVL334:
 4097              	.L418:
1031:Middlewares/Third_Party/FreeRTOS/Source/CMSIS_RTOS_V2/cmsis_os2.c ****   }
 4098              		.loc 1 1031 0
 4099 0052 6FF00300 		mvn	r0, #3
 4100              	.LVL335:
 4101 0056 7047     		bx	lr
 4102              	.LVL336:
 4103              	.L419:
 4104              	.LCFI70:
 4105              		.cfi_def_cfa_offset 24
 4106              		.cfi_offset 4, -12
 4107              		.cfi_offset 5, -8
 4108              		.cfi_offset 14, -4
1040:Middlewares/Third_Party/FreeRTOS/Source/CMSIS_RTOS_V2/cmsis_os2.c ****     }
 4109              		.loc 1 1040 0
 4110 0058 6FF00200 		mvn	r0, #2
 4111              	.LVL337:
1047:Middlewares/Third_Party/FreeRTOS/Source/CMSIS_RTOS_V2/cmsis_os2.c **** }
 4112              		.loc 1 1047 0
 4113 005c F1E7     		b	.L412
 4114              	.L425:
 4115 005e 00BF     		.align	2
 4116              	.L424:
 4117 0060 00000000 		.word	.LANCHOR0
 4118              		.cfi_endproc
 4119              	.LFE144:
 4121              		.section	.text.osEventFlagsNew,"ax",%progbits
 4122              		.align	1
 4123              		.global	osEventFlagsNew
 4124              		.syntax unified
 4125              		.thumb
ARM GAS  /tmp/ccZrYRqG.s 			page 107


 4126              		.thumb_func
 4127              		.fpu fpv4-sp-d16
 4129              	osEventFlagsNew:
 4130              	.LFB145:
1049:Middlewares/Third_Party/FreeRTOS/Source/CMSIS_RTOS_V2/cmsis_os2.c **** 
1050:Middlewares/Third_Party/FreeRTOS/Source/CMSIS_RTOS_V2/cmsis_os2.c **** /*---------------------------------------------------------------------------*/
1051:Middlewares/Third_Party/FreeRTOS/Source/CMSIS_RTOS_V2/cmsis_os2.c **** 
1052:Middlewares/Third_Party/FreeRTOS/Source/CMSIS_RTOS_V2/cmsis_os2.c **** osEventFlagsId_t osEventFlagsNew (const osEventFlagsAttr_t *attr) {
 4131              		.loc 1 1052 0
 4132              		.cfi_startproc
 4133              		@ args = 0, pretend = 0, frame = 0
 4134              		@ frame_needed = 0, uses_anonymous_args = 0
 4135              	.LVL338:
 4136 0000 08B5     		push	{r3, lr}
 4137              	.LCFI71:
 4138              		.cfi_def_cfa_offset 8
 4139              		.cfi_offset 3, -8
 4140              		.cfi_offset 14, -4
 4141              	.LVL339:
 4142              	.LBB528:
 4143              	.LBB529:
 209:Drivers/CMSIS/Include/cmsis_gcc.h ****   return(result);
 4144              		.loc 2 209 0
 4145              		.syntax unified
 4146              	@ 209 "Drivers/CMSIS/Include/cmsis_gcc.h" 1
 4147 0002 EFF30583 		MRS r3, ipsr
 4148              	@ 0 "" 2
 4149              		.thumb
 4150              		.syntax unified
 4151              	.LBE529:
 4152              	.LBE528:
1053:Middlewares/Third_Party/FreeRTOS/Source/CMSIS_RTOS_V2/cmsis_os2.c ****   EventGroupHandle_t hEventGroup;
1054:Middlewares/Third_Party/FreeRTOS/Source/CMSIS_RTOS_V2/cmsis_os2.c ****   int32_t mem;
1055:Middlewares/Third_Party/FreeRTOS/Source/CMSIS_RTOS_V2/cmsis_os2.c **** 
1056:Middlewares/Third_Party/FreeRTOS/Source/CMSIS_RTOS_V2/cmsis_os2.c ****   hEventGroup = NULL;
1057:Middlewares/Third_Party/FreeRTOS/Source/CMSIS_RTOS_V2/cmsis_os2.c **** 
1058:Middlewares/Third_Party/FreeRTOS/Source/CMSIS_RTOS_V2/cmsis_os2.c ****   if (!IS_IRQ()) {
 4153              		.loc 1 1058 0
 4154 0006 3BBB     		cbnz	r3, .L433
 4155              	.LBB530:
 4156              	.LBB531:
 386:Drivers/CMSIS/Include/cmsis_gcc.h ****   return(result);
 4157              		.loc 2 386 0
 4158              		.syntax unified
 4159              	@ 386 "Drivers/CMSIS/Include/cmsis_gcc.h" 1
 4160 0008 EFF31083 		MRS r3, primask
 4161              	@ 0 "" 2
 4162              		.thumb
 4163              		.syntax unified
 4164              	.LBE531:
 4165              	.LBE530:
 4166              		.loc 1 1058 0
 4167 000c 13B9     		cbnz	r3, .L428
 4168              	.LBB532:
 4169              	.LBB533:
 4170              		.loc 2 465 0
 4171              		.syntax unified
ARM GAS  /tmp/ccZrYRqG.s 			page 108


 4172              	@ 465 "Drivers/CMSIS/Include/cmsis_gcc.h" 1
 4173 000e EFF31183 		MRS r3, basepri
 4174              	@ 0 "" 2
 4175              		.thumb
 4176              		.syntax unified
 4177              	.LBE533:
 4178              	.LBE532:
 4179              		.loc 1 1058 0
 4180 0012 1BB1     		cbz	r3, .L429
 4181              	.L428:
 4182              		.loc 1 1058 0 is_stmt 0 discriminator 4
 4183 0014 134B     		ldr	r3, .L443
 4184 0016 1B68     		ldr	r3, [r3]
 4185 0018 022B     		cmp	r3, #2
 4186 001a 1FD0     		beq	.L434
 4187              	.L429:
 4188              	.LVL340:
1059:Middlewares/Third_Party/FreeRTOS/Source/CMSIS_RTOS_V2/cmsis_os2.c ****     mem = -1;
1060:Middlewares/Third_Party/FreeRTOS/Source/CMSIS_RTOS_V2/cmsis_os2.c **** 
1061:Middlewares/Third_Party/FreeRTOS/Source/CMSIS_RTOS_V2/cmsis_os2.c ****     if (attr != NULL) {
 4189              		.loc 1 1061 0 is_stmt 1
 4190 001c 90B1     		cbz	r0, .L435
1062:Middlewares/Third_Party/FreeRTOS/Source/CMSIS_RTOS_V2/cmsis_os2.c ****       if ((attr->cb_mem != NULL) && (attr->cb_size >= sizeof(StaticEventGroup_t))) {
 4191              		.loc 1 1062 0
 4192 001e 8368     		ldr	r3, [r0, #8]
 4193 0020 13B1     		cbz	r3, .L431
 4194              		.loc 1 1062 0 is_stmt 0 discriminator 1
 4195 0022 C268     		ldr	r2, [r0, #12]
 4196 0024 1F2A     		cmp	r2, #31
 4197 0026 0FD8     		bhi	.L436
 4198              	.L431:
1063:Middlewares/Third_Party/FreeRTOS/Source/CMSIS_RTOS_V2/cmsis_os2.c ****         mem = 1;
1064:Middlewares/Third_Party/FreeRTOS/Source/CMSIS_RTOS_V2/cmsis_os2.c ****       }
1065:Middlewares/Third_Party/FreeRTOS/Source/CMSIS_RTOS_V2/cmsis_os2.c ****       else {
1066:Middlewares/Third_Party/FreeRTOS/Source/CMSIS_RTOS_V2/cmsis_os2.c ****         if ((attr->cb_mem == NULL) && (attr->cb_size == 0U)) {
 4199              		.loc 1 1066 0 is_stmt 1
 4200 0028 3BB1     		cbz	r3, .L441
1059:Middlewares/Third_Party/FreeRTOS/Source/CMSIS_RTOS_V2/cmsis_os2.c **** 
 4201              		.loc 1 1059 0
 4202 002a 4FF0FF33 		mov	r3, #-1
 4203              	.L430:
 4204              	.LVL341:
1067:Middlewares/Third_Party/FreeRTOS/Source/CMSIS_RTOS_V2/cmsis_os2.c ****           mem = 0;
1068:Middlewares/Third_Party/FreeRTOS/Source/CMSIS_RTOS_V2/cmsis_os2.c ****         }
1069:Middlewares/Third_Party/FreeRTOS/Source/CMSIS_RTOS_V2/cmsis_os2.c ****       }
1070:Middlewares/Third_Party/FreeRTOS/Source/CMSIS_RTOS_V2/cmsis_os2.c ****     }
1071:Middlewares/Third_Party/FreeRTOS/Source/CMSIS_RTOS_V2/cmsis_os2.c ****     else {
1072:Middlewares/Third_Party/FreeRTOS/Source/CMSIS_RTOS_V2/cmsis_os2.c ****       mem = 0;
1073:Middlewares/Third_Party/FreeRTOS/Source/CMSIS_RTOS_V2/cmsis_os2.c ****     }
1074:Middlewares/Third_Party/FreeRTOS/Source/CMSIS_RTOS_V2/cmsis_os2.c **** 
1075:Middlewares/Third_Party/FreeRTOS/Source/CMSIS_RTOS_V2/cmsis_os2.c ****     if (mem == 1) {
 4205              		.loc 1 1075 0
 4206 002e 012B     		cmp	r3, #1
 4207 0030 0ED0     		beq	.L442
1076:Middlewares/Third_Party/FreeRTOS/Source/CMSIS_RTOS_V2/cmsis_os2.c ****       hEventGroup = xEventGroupCreateStatic (attr->cb_mem);
1077:Middlewares/Third_Party/FreeRTOS/Source/CMSIS_RTOS_V2/cmsis_os2.c ****     }
1078:Middlewares/Third_Party/FreeRTOS/Source/CMSIS_RTOS_V2/cmsis_os2.c ****     else {
ARM GAS  /tmp/ccZrYRqG.s 			page 109


1079:Middlewares/Third_Party/FreeRTOS/Source/CMSIS_RTOS_V2/cmsis_os2.c ****       if (mem == 0) {
 4208              		.loc 1 1079 0
 4209 0032 ABB9     		cbnz	r3, .L439
1080:Middlewares/Third_Party/FreeRTOS/Source/CMSIS_RTOS_V2/cmsis_os2.c ****         hEventGroup = xEventGroupCreate();
 4210              		.loc 1 1080 0
 4211 0034 FFF7FEFF 		bl	xEventGroupCreate
 4212              	.LVL342:
 4213 0038 08BD     		pop	{r3, pc}
 4214              	.LVL343:
 4215              	.L441:
1066:Middlewares/Third_Party/FreeRTOS/Source/CMSIS_RTOS_V2/cmsis_os2.c ****           mem = 0;
 4216              		.loc 1 1066 0 discriminator 1
 4217 003a C368     		ldr	r3, [r0, #12]
 4218 003c 33B1     		cbz	r3, .L438
1059:Middlewares/Third_Party/FreeRTOS/Source/CMSIS_RTOS_V2/cmsis_os2.c **** 
 4219              		.loc 1 1059 0
 4220 003e 4FF0FF33 		mov	r3, #-1
 4221 0042 F4E7     		b	.L430
 4222              	.L435:
1072:Middlewares/Third_Party/FreeRTOS/Source/CMSIS_RTOS_V2/cmsis_os2.c ****     }
 4223              		.loc 1 1072 0
 4224 0044 0023     		movs	r3, #0
 4225 0046 F2E7     		b	.L430
 4226              	.L436:
1063:Middlewares/Third_Party/FreeRTOS/Source/CMSIS_RTOS_V2/cmsis_os2.c ****       }
 4227              		.loc 1 1063 0
 4228 0048 0123     		movs	r3, #1
 4229 004a F0E7     		b	.L430
 4230              	.L438:
1067:Middlewares/Third_Party/FreeRTOS/Source/CMSIS_RTOS_V2/cmsis_os2.c ****         }
 4231              		.loc 1 1067 0
 4232 004c 0023     		movs	r3, #0
 4233 004e EEE7     		b	.L430
 4234              	.LVL344:
 4235              	.L442:
1076:Middlewares/Third_Party/FreeRTOS/Source/CMSIS_RTOS_V2/cmsis_os2.c ****     }
 4236              		.loc 1 1076 0
 4237 0050 8068     		ldr	r0, [r0, #8]
 4238              	.LVL345:
 4239 0052 FFF7FEFF 		bl	xEventGroupCreateStatic
 4240              	.LVL346:
 4241 0056 08BD     		pop	{r3, pc}
 4242              	.LVL347:
 4243              	.L433:
1056:Middlewares/Third_Party/FreeRTOS/Source/CMSIS_RTOS_V2/cmsis_os2.c **** 
 4244              		.loc 1 1056 0
 4245 0058 0020     		movs	r0, #0
 4246              	.LVL348:
 4247 005a 08BD     		pop	{r3, pc}
 4248              	.LVL349:
 4249              	.L434:
 4250 005c 0020     		movs	r0, #0
 4251              	.LVL350:
 4252 005e 08BD     		pop	{r3, pc}
 4253              	.LVL351:
 4254              	.L439:
 4255 0060 0020     		movs	r0, #0
ARM GAS  /tmp/ccZrYRqG.s 			page 110


 4256              	.LVL352:
1081:Middlewares/Third_Party/FreeRTOS/Source/CMSIS_RTOS_V2/cmsis_os2.c ****       }
1082:Middlewares/Third_Party/FreeRTOS/Source/CMSIS_RTOS_V2/cmsis_os2.c ****     }
1083:Middlewares/Third_Party/FreeRTOS/Source/CMSIS_RTOS_V2/cmsis_os2.c ****   }
1084:Middlewares/Third_Party/FreeRTOS/Source/CMSIS_RTOS_V2/cmsis_os2.c **** 
1085:Middlewares/Third_Party/FreeRTOS/Source/CMSIS_RTOS_V2/cmsis_os2.c ****   return ((osEventFlagsId_t)hEventGroup);
1086:Middlewares/Third_Party/FreeRTOS/Source/CMSIS_RTOS_V2/cmsis_os2.c **** }
 4257              		.loc 1 1086 0
 4258 0062 08BD     		pop	{r3, pc}
 4259              	.LVL353:
 4260              	.L444:
 4261              		.align	2
 4262              	.L443:
 4263 0064 00000000 		.word	.LANCHOR0
 4264              		.cfi_endproc
 4265              	.LFE145:
 4267              		.section	.text.osEventFlagsSet,"ax",%progbits
 4268              		.align	1
 4269              		.global	osEventFlagsSet
 4270              		.syntax unified
 4271              		.thumb
 4272              		.thumb_func
 4273              		.fpu fpv4-sp-d16
 4275              	osEventFlagsSet:
 4276              	.LFB146:
1087:Middlewares/Third_Party/FreeRTOS/Source/CMSIS_RTOS_V2/cmsis_os2.c **** 
1088:Middlewares/Third_Party/FreeRTOS/Source/CMSIS_RTOS_V2/cmsis_os2.c **** uint32_t osEventFlagsSet (osEventFlagsId_t ef_id, uint32_t flags) {
 4277              		.loc 1 1088 0
 4278              		.cfi_startproc
 4279              		@ args = 0, pretend = 0, frame = 8
 4280              		@ frame_needed = 0, uses_anonymous_args = 0
 4281              	.LVL354:
1089:Middlewares/Third_Party/FreeRTOS/Source/CMSIS_RTOS_V2/cmsis_os2.c ****   EventGroupHandle_t hEventGroup = (EventGroupHandle_t)ef_id;
1090:Middlewares/Third_Party/FreeRTOS/Source/CMSIS_RTOS_V2/cmsis_os2.c ****   uint32_t rflags;
1091:Middlewares/Third_Party/FreeRTOS/Source/CMSIS_RTOS_V2/cmsis_os2.c ****   BaseType_t yield;
1092:Middlewares/Third_Party/FreeRTOS/Source/CMSIS_RTOS_V2/cmsis_os2.c **** 
1093:Middlewares/Third_Party/FreeRTOS/Source/CMSIS_RTOS_V2/cmsis_os2.c ****   if ((hEventGroup == NULL) || ((flags & EVENT_FLAGS_INVALID_BITS) != 0U)) {
 4282              		.loc 1 1093 0
 4283 0000 88B3     		cbz	r0, .L450
 4284              		.loc 1 1093 0 is_stmt 0 discriminator 1
 4285 0002 11F07F4F 		tst	r1, #-16777216
 4286 0006 02D0     		beq	.L458
1094:Middlewares/Third_Party/FreeRTOS/Source/CMSIS_RTOS_V2/cmsis_os2.c ****     rflags = (uint32_t)osErrorParameter;
 4287              		.loc 1 1094 0 is_stmt 1
 4288 0008 6FF00300 		mvn	r0, #3
 4289              	.LVL355:
 4290 000c 7047     		bx	lr
 4291              	.LVL356:
 4292              	.L458:
1088:Middlewares/Third_Party/FreeRTOS/Source/CMSIS_RTOS_V2/cmsis_os2.c ****   EventGroupHandle_t hEventGroup = (EventGroupHandle_t)ef_id;
 4293              		.loc 1 1088 0
 4294 000e 10B5     		push	{r4, lr}
 4295              	.LCFI72:
 4296              		.cfi_def_cfa_offset 8
 4297              		.cfi_offset 4, -8
 4298              		.cfi_offset 14, -4
 4299 0010 82B0     		sub	sp, sp, #8
ARM GAS  /tmp/ccZrYRqG.s 			page 111


 4300              	.LCFI73:
 4301              		.cfi_def_cfa_offset 16
 4302 0012 0C46     		mov	r4, r1
 4303              	.LBB534:
 4304              	.LBB535:
 209:Drivers/CMSIS/Include/cmsis_gcc.h ****   return(result);
 4305              		.loc 2 209 0
 4306              		.syntax unified
 4307              	@ 209 "Drivers/CMSIS/Include/cmsis_gcc.h" 1
 4308 0014 EFF30583 		MRS r3, ipsr
 4309              	@ 0 "" 2
 4310              		.thumb
 4311              		.syntax unified
 4312              	.LBE535:
 4313              	.LBE534:
1095:Middlewares/Third_Party/FreeRTOS/Source/CMSIS_RTOS_V2/cmsis_os2.c ****   }
1096:Middlewares/Third_Party/FreeRTOS/Source/CMSIS_RTOS_V2/cmsis_os2.c ****   else if (IS_IRQ()) {
 4314              		.loc 1 1096 0
 4315 0018 73B9     		cbnz	r3, .L447
 4316              	.LBB536:
 4317              	.LBB537:
 386:Drivers/CMSIS/Include/cmsis_gcc.h ****   return(result);
 4318              		.loc 2 386 0
 4319              		.syntax unified
 4320              	@ 386 "Drivers/CMSIS/Include/cmsis_gcc.h" 1
 4321 001a EFF31083 		MRS r3, primask
 4322              	@ 0 "" 2
 4323              		.thumb
 4324              		.syntax unified
 4325              	.LBE537:
 4326              	.LBE536:
 4327              		.loc 1 1096 0
 4328 001e 13B9     		cbnz	r3, .L448
 4329              	.LBB538:
 4330              	.LBB539:
 4331              		.loc 2 465 0
 4332              		.syntax unified
 4333              	@ 465 "Drivers/CMSIS/Include/cmsis_gcc.h" 1
 4334 0020 EFF31183 		MRS r3, basepri
 4335              	@ 0 "" 2
 4336              		.thumb
 4337              		.syntax unified
 4338              	.LBE539:
 4339              	.LBE538:
 4340              		.loc 1 1096 0
 4341 0024 1BB1     		cbz	r3, .L449
 4342              	.L448:
 4343              		.loc 1 1096 0 is_stmt 0 discriminator 4
 4344 0026 124B     		ldr	r3, .L460
 4345 0028 1B68     		ldr	r3, [r3]
 4346 002a 022B     		cmp	r3, #2
 4347 002c 04D0     		beq	.L447
 4348              	.L449:
1097:Middlewares/Third_Party/FreeRTOS/Source/CMSIS_RTOS_V2/cmsis_os2.c ****     yield = pdFALSE;
1098:Middlewares/Third_Party/FreeRTOS/Source/CMSIS_RTOS_V2/cmsis_os2.c **** 
1099:Middlewares/Third_Party/FreeRTOS/Source/CMSIS_RTOS_V2/cmsis_os2.c ****     if (xEventGroupSetBitsFromISR (hEventGroup, (EventBits_t)flags, &yield) == pdFAIL) {
1100:Middlewares/Third_Party/FreeRTOS/Source/CMSIS_RTOS_V2/cmsis_os2.c ****       rflags = (uint32_t)osErrorResource;
ARM GAS  /tmp/ccZrYRqG.s 			page 112


1101:Middlewares/Third_Party/FreeRTOS/Source/CMSIS_RTOS_V2/cmsis_os2.c ****     } else {
1102:Middlewares/Third_Party/FreeRTOS/Source/CMSIS_RTOS_V2/cmsis_os2.c ****       rflags = flags;
1103:Middlewares/Third_Party/FreeRTOS/Source/CMSIS_RTOS_V2/cmsis_os2.c ****       portYIELD_FROM_ISR (yield);
1104:Middlewares/Third_Party/FreeRTOS/Source/CMSIS_RTOS_V2/cmsis_os2.c ****     }
1105:Middlewares/Third_Party/FreeRTOS/Source/CMSIS_RTOS_V2/cmsis_os2.c ****   }
1106:Middlewares/Third_Party/FreeRTOS/Source/CMSIS_RTOS_V2/cmsis_os2.c ****   else {
1107:Middlewares/Third_Party/FreeRTOS/Source/CMSIS_RTOS_V2/cmsis_os2.c ****     rflags = xEventGroupSetBits (hEventGroup, (EventBits_t)flags);
 4349              		.loc 1 1107 0 is_stmt 1
 4350 002e 2146     		mov	r1, r4
 4351              	.LVL357:
 4352 0030 FFF7FEFF 		bl	xEventGroupSetBits
 4353              	.LVL358:
 4354              	.L445:
1108:Middlewares/Third_Party/FreeRTOS/Source/CMSIS_RTOS_V2/cmsis_os2.c ****   }
1109:Middlewares/Third_Party/FreeRTOS/Source/CMSIS_RTOS_V2/cmsis_os2.c **** 
1110:Middlewares/Third_Party/FreeRTOS/Source/CMSIS_RTOS_V2/cmsis_os2.c ****   return (rflags);
1111:Middlewares/Third_Party/FreeRTOS/Source/CMSIS_RTOS_V2/cmsis_os2.c **** }
 4355              		.loc 1 1111 0
 4356 0034 02B0     		add	sp, sp, #8
 4357              	.LCFI74:
 4358              		.cfi_remember_state
 4359              		.cfi_def_cfa_offset 8
 4360              		@ sp needed
 4361 0036 10BD     		pop	{r4, pc}
 4362              	.LVL359:
 4363              	.L447:
 4364              	.LCFI75:
 4365              		.cfi_restore_state
1097:Middlewares/Third_Party/FreeRTOS/Source/CMSIS_RTOS_V2/cmsis_os2.c ****     yield = pdFALSE;
 4366              		.loc 1 1097 0
 4367 0038 02AA     		add	r2, sp, #8
 4368 003a 0023     		movs	r3, #0
 4369 003c 42F8043D 		str	r3, [r2, #-4]!
1099:Middlewares/Third_Party/FreeRTOS/Source/CMSIS_RTOS_V2/cmsis_os2.c ****       rflags = (uint32_t)osErrorResource;
 4370              		.loc 1 1099 0
 4371 0040 2146     		mov	r1, r4
 4372              	.LVL360:
 4373 0042 FFF7FEFF 		bl	xEventGroupSetBitsFromISR
 4374              	.LVL361:
 4375 0046 10B9     		cbnz	r0, .L459
1100:Middlewares/Third_Party/FreeRTOS/Source/CMSIS_RTOS_V2/cmsis_os2.c ****     } else {
 4376              		.loc 1 1100 0
 4377 0048 6FF00200 		mvn	r0, #2
 4378 004c F2E7     		b	.L445
 4379              	.L459:
 4380              	.LVL362:
1103:Middlewares/Third_Party/FreeRTOS/Source/CMSIS_RTOS_V2/cmsis_os2.c ****     }
 4381              		.loc 1 1103 0
 4382 004e 019B     		ldr	r3, [sp, #4]
 4383 0050 63B1     		cbz	r3, .L453
1103:Middlewares/Third_Party/FreeRTOS/Source/CMSIS_RTOS_V2/cmsis_os2.c ****     }
 4384              		.loc 1 1103 0 is_stmt 0 discriminator 1
 4385 0052 4FF08052 		mov	r2, #268435456
 4386 0056 074B     		ldr	r3, .L460+4
 4387 0058 1A60     		str	r2, [r3]
 4388              		.syntax unified
 4389              	@ 1103 "Middlewares/Third_Party/FreeRTOS/Source/CMSIS_RTOS_V2/cmsis_os2.c" 1
ARM GAS  /tmp/ccZrYRqG.s 			page 113


 4390 005a BFF34F8F 		dsb
 4391              	@ 0 "" 2
 4392              	@ 1103 "Middlewares/Third_Party/FreeRTOS/Source/CMSIS_RTOS_V2/cmsis_os2.c" 1
 4393 005e BFF36F8F 		isb
 4394              	@ 0 "" 2
1102:Middlewares/Third_Party/FreeRTOS/Source/CMSIS_RTOS_V2/cmsis_os2.c ****       portYIELD_FROM_ISR (yield);
 4395              		.loc 1 1102 0 is_stmt 1 discriminator 1
 4396              		.thumb
 4397              		.syntax unified
 4398 0062 2046     		mov	r0, r4
 4399 0064 E6E7     		b	.L445
 4400              	.LVL363:
 4401              	.L450:
 4402              	.LCFI76:
 4403              		.cfi_def_cfa_offset 0
 4404              		.cfi_restore 4
 4405              		.cfi_restore 14
1094:Middlewares/Third_Party/FreeRTOS/Source/CMSIS_RTOS_V2/cmsis_os2.c ****   }
 4406              		.loc 1 1094 0
 4407 0066 6FF00300 		mvn	r0, #3
 4408              	.LVL364:
 4409 006a 7047     		bx	lr
 4410              	.LVL365:
 4411              	.L453:
 4412              	.LCFI77:
 4413              		.cfi_def_cfa_offset 16
 4414              		.cfi_offset 4, -8
 4415              		.cfi_offset 14, -4
1102:Middlewares/Third_Party/FreeRTOS/Source/CMSIS_RTOS_V2/cmsis_os2.c ****       portYIELD_FROM_ISR (yield);
 4416              		.loc 1 1102 0
 4417 006c 2046     		mov	r0, r4
 4418              	.LVL366:
1110:Middlewares/Third_Party/FreeRTOS/Source/CMSIS_RTOS_V2/cmsis_os2.c **** }
 4419              		.loc 1 1110 0
 4420 006e E1E7     		b	.L445
 4421              	.L461:
 4422              		.align	2
 4423              	.L460:
 4424 0070 00000000 		.word	.LANCHOR0
 4425 0074 04ED00E0 		.word	-536810236
 4426              		.cfi_endproc
 4427              	.LFE146:
 4429              		.section	.text.osEventFlagsClear,"ax",%progbits
 4430              		.align	1
 4431              		.global	osEventFlagsClear
 4432              		.syntax unified
 4433              		.thumb
 4434              		.thumb_func
 4435              		.fpu fpv4-sp-d16
 4437              	osEventFlagsClear:
 4438              	.LFB147:
1112:Middlewares/Third_Party/FreeRTOS/Source/CMSIS_RTOS_V2/cmsis_os2.c **** 
1113:Middlewares/Third_Party/FreeRTOS/Source/CMSIS_RTOS_V2/cmsis_os2.c **** uint32_t osEventFlagsClear (osEventFlagsId_t ef_id, uint32_t flags) {
 4439              		.loc 1 1113 0
 4440              		.cfi_startproc
 4441              		@ args = 0, pretend = 0, frame = 0
 4442              		@ frame_needed = 0, uses_anonymous_args = 0
ARM GAS  /tmp/ccZrYRqG.s 			page 114


 4443              	.LVL367:
 4444 0000 70B5     		push	{r4, r5, r6, lr}
 4445              	.LCFI78:
 4446              		.cfi_def_cfa_offset 16
 4447              		.cfi_offset 4, -16
 4448              		.cfi_offset 5, -12
 4449              		.cfi_offset 6, -8
 4450              		.cfi_offset 14, -4
 4451              	.LVL368:
1114:Middlewares/Third_Party/FreeRTOS/Source/CMSIS_RTOS_V2/cmsis_os2.c ****   EventGroupHandle_t hEventGroup = (EventGroupHandle_t)ef_id;
1115:Middlewares/Third_Party/FreeRTOS/Source/CMSIS_RTOS_V2/cmsis_os2.c ****   uint32_t rflags;
1116:Middlewares/Third_Party/FreeRTOS/Source/CMSIS_RTOS_V2/cmsis_os2.c **** 
1117:Middlewares/Third_Party/FreeRTOS/Source/CMSIS_RTOS_V2/cmsis_os2.c ****   if ((hEventGroup == NULL) || ((flags & EVENT_FLAGS_INVALID_BITS) != 0U)) {
 4452              		.loc 1 1117 0
 4453 0002 40B3     		cbz	r0, .L467
 4454 0004 0646     		mov	r6, r0
 4455              		.loc 1 1117 0 is_stmt 0 discriminator 1
 4456 0006 11F07F4F 		tst	r1, #-16777216
 4457 000a 03D0     		beq	.L471
1118:Middlewares/Third_Party/FreeRTOS/Source/CMSIS_RTOS_V2/cmsis_os2.c ****     rflags = (uint32_t)osErrorParameter;
 4458              		.loc 1 1118 0 is_stmt 1
 4459 000c 6FF00305 		mvn	r5, #3
 4460              	.LVL369:
 4461              	.L462:
1119:Middlewares/Third_Party/FreeRTOS/Source/CMSIS_RTOS_V2/cmsis_os2.c ****   }
1120:Middlewares/Third_Party/FreeRTOS/Source/CMSIS_RTOS_V2/cmsis_os2.c ****   else if (IS_IRQ()) {
1121:Middlewares/Third_Party/FreeRTOS/Source/CMSIS_RTOS_V2/cmsis_os2.c ****     rflags = xEventGroupGetBitsFromISR (hEventGroup);
1122:Middlewares/Third_Party/FreeRTOS/Source/CMSIS_RTOS_V2/cmsis_os2.c **** 
1123:Middlewares/Third_Party/FreeRTOS/Source/CMSIS_RTOS_V2/cmsis_os2.c ****     if (xEventGroupClearBitsFromISR (hEventGroup, (EventBits_t)flags) == pdFAIL) {
1124:Middlewares/Third_Party/FreeRTOS/Source/CMSIS_RTOS_V2/cmsis_os2.c ****       rflags = (uint32_t)osErrorResource;
1125:Middlewares/Third_Party/FreeRTOS/Source/CMSIS_RTOS_V2/cmsis_os2.c ****     }
1126:Middlewares/Third_Party/FreeRTOS/Source/CMSIS_RTOS_V2/cmsis_os2.c ****   }
1127:Middlewares/Third_Party/FreeRTOS/Source/CMSIS_RTOS_V2/cmsis_os2.c ****   else {
1128:Middlewares/Third_Party/FreeRTOS/Source/CMSIS_RTOS_V2/cmsis_os2.c ****     rflags = xEventGroupClearBits (hEventGroup, (EventBits_t)flags);
1129:Middlewares/Third_Party/FreeRTOS/Source/CMSIS_RTOS_V2/cmsis_os2.c ****   }
1130:Middlewares/Third_Party/FreeRTOS/Source/CMSIS_RTOS_V2/cmsis_os2.c **** 
1131:Middlewares/Third_Party/FreeRTOS/Source/CMSIS_RTOS_V2/cmsis_os2.c ****   return (rflags);
1132:Middlewares/Third_Party/FreeRTOS/Source/CMSIS_RTOS_V2/cmsis_os2.c **** }
 4462              		.loc 1 1132 0
 4463 0010 2846     		mov	r0, r5
 4464 0012 70BD     		pop	{r4, r5, r6, pc}
 4465              	.LVL370:
 4466              	.L471:
 4467 0014 0C46     		mov	r4, r1
 4468              	.LBB540:
 4469              	.LBB541:
 209:Drivers/CMSIS/Include/cmsis_gcc.h ****   return(result);
 4470              		.loc 2 209 0
 4471              		.syntax unified
 4472              	@ 209 "Drivers/CMSIS/Include/cmsis_gcc.h" 1
 4473 0016 EFF30583 		MRS r3, ipsr
 4474              	@ 0 "" 2
 4475              		.thumb
 4476              		.syntax unified
 4477              	.LBE541:
 4478              	.LBE540:
1120:Middlewares/Third_Party/FreeRTOS/Source/CMSIS_RTOS_V2/cmsis_os2.c ****     rflags = xEventGroupGetBitsFromISR (hEventGroup);
ARM GAS  /tmp/ccZrYRqG.s 			page 115


 4479              		.loc 1 1120 0
 4480 001a 7BB9     		cbnz	r3, .L464
 4481              	.LBB542:
 4482              	.LBB543:
 386:Drivers/CMSIS/Include/cmsis_gcc.h ****   return(result);
 4483              		.loc 2 386 0
 4484              		.syntax unified
 4485              	@ 386 "Drivers/CMSIS/Include/cmsis_gcc.h" 1
 4486 001c EFF31083 		MRS r3, primask
 4487              	@ 0 "" 2
 4488              		.thumb
 4489              		.syntax unified
 4490              	.LBE543:
 4491              	.LBE542:
1120:Middlewares/Third_Party/FreeRTOS/Source/CMSIS_RTOS_V2/cmsis_os2.c ****     rflags = xEventGroupGetBitsFromISR (hEventGroup);
 4492              		.loc 1 1120 0
 4493 0020 13B9     		cbnz	r3, .L465
 4494              	.LBB544:
 4495              	.LBB545:
 4496              		.loc 2 465 0
 4497              		.syntax unified
 4498              	@ 465 "Drivers/CMSIS/Include/cmsis_gcc.h" 1
 4499 0022 EFF31183 		MRS r3, basepri
 4500              	@ 0 "" 2
 4501              		.thumb
 4502              		.syntax unified
 4503              	.LBE545:
 4504              	.LBE544:
1120:Middlewares/Third_Party/FreeRTOS/Source/CMSIS_RTOS_V2/cmsis_os2.c ****     rflags = xEventGroupGetBitsFromISR (hEventGroup);
 4505              		.loc 1 1120 0
 4506 0026 1BB1     		cbz	r3, .L466
 4507              	.L465:
1120:Middlewares/Third_Party/FreeRTOS/Source/CMSIS_RTOS_V2/cmsis_os2.c ****     rflags = xEventGroupGetBitsFromISR (hEventGroup);
 4508              		.loc 1 1120 0 is_stmt 0 discriminator 4
 4509 0028 0C4B     		ldr	r3, .L472
 4510 002a 1B68     		ldr	r3, [r3]
 4511 002c 022B     		cmp	r3, #2
 4512 002e 05D0     		beq	.L464
 4513              	.L466:
1128:Middlewares/Third_Party/FreeRTOS/Source/CMSIS_RTOS_V2/cmsis_os2.c ****   }
 4514              		.loc 1 1128 0 is_stmt 1
 4515 0030 2146     		mov	r1, r4
 4516              	.LVL371:
 4517 0032 3046     		mov	r0, r6
 4518              	.LVL372:
 4519 0034 FFF7FEFF 		bl	xEventGroupClearBits
 4520              	.LVL373:
 4521 0038 0546     		mov	r5, r0
 4522              	.LVL374:
 4523 003a E9E7     		b	.L462
 4524              	.LVL375:
 4525              	.L464:
1121:Middlewares/Third_Party/FreeRTOS/Source/CMSIS_RTOS_V2/cmsis_os2.c **** 
 4526              		.loc 1 1121 0
 4527 003c 3046     		mov	r0, r6
 4528              	.LVL376:
 4529 003e FFF7FEFF 		bl	xEventGroupGetBitsFromISR
ARM GAS  /tmp/ccZrYRqG.s 			page 116


 4530              	.LVL377:
 4531 0042 0546     		mov	r5, r0
 4532              	.LVL378:
1123:Middlewares/Third_Party/FreeRTOS/Source/CMSIS_RTOS_V2/cmsis_os2.c ****       rflags = (uint32_t)osErrorResource;
 4533              		.loc 1 1123 0
 4534 0044 2146     		mov	r1, r4
 4535 0046 3046     		mov	r0, r6
 4536              	.LVL379:
 4537 0048 FFF7FEFF 		bl	xEventGroupClearBitsFromISR
 4538              	.LVL380:
 4539 004c 0028     		cmp	r0, #0
 4540 004e DFD1     		bne	.L462
1124:Middlewares/Third_Party/FreeRTOS/Source/CMSIS_RTOS_V2/cmsis_os2.c ****     }
 4541              		.loc 1 1124 0
 4542 0050 6FF00205 		mvn	r5, #2
 4543              	.LVL381:
1131:Middlewares/Third_Party/FreeRTOS/Source/CMSIS_RTOS_V2/cmsis_os2.c **** }
 4544              		.loc 1 1131 0
 4545 0054 DCE7     		b	.L462
 4546              	.LVL382:
 4547              	.L467:
1118:Middlewares/Third_Party/FreeRTOS/Source/CMSIS_RTOS_V2/cmsis_os2.c ****   }
 4548              		.loc 1 1118 0
 4549 0056 6FF00305 		mvn	r5, #3
 4550 005a D9E7     		b	.L462
 4551              	.L473:
 4552              		.align	2
 4553              	.L472:
 4554 005c 00000000 		.word	.LANCHOR0
 4555              		.cfi_endproc
 4556              	.LFE147:
 4558              		.section	.text.osEventFlagsGet,"ax",%progbits
 4559              		.align	1
 4560              		.global	osEventFlagsGet
 4561              		.syntax unified
 4562              		.thumb
 4563              		.thumb_func
 4564              		.fpu fpv4-sp-d16
 4566              	osEventFlagsGet:
 4567              	.LFB148:
1133:Middlewares/Third_Party/FreeRTOS/Source/CMSIS_RTOS_V2/cmsis_os2.c **** 
1134:Middlewares/Third_Party/FreeRTOS/Source/CMSIS_RTOS_V2/cmsis_os2.c **** uint32_t osEventFlagsGet (osEventFlagsId_t ef_id) {
 4568              		.loc 1 1134 0
 4569              		.cfi_startproc
 4570              		@ args = 0, pretend = 0, frame = 0
 4571              		@ frame_needed = 0, uses_anonymous_args = 0
 4572              	.LVL383:
1135:Middlewares/Third_Party/FreeRTOS/Source/CMSIS_RTOS_V2/cmsis_os2.c ****   EventGroupHandle_t hEventGroup = (EventGroupHandle_t)ef_id;
1136:Middlewares/Third_Party/FreeRTOS/Source/CMSIS_RTOS_V2/cmsis_os2.c ****   uint32_t rflags;
1137:Middlewares/Third_Party/FreeRTOS/Source/CMSIS_RTOS_V2/cmsis_os2.c **** 
1138:Middlewares/Third_Party/FreeRTOS/Source/CMSIS_RTOS_V2/cmsis_os2.c ****   if (ef_id == NULL) {
 4573              		.loc 1 1138 0
 4574 0000 A0B1     		cbz	r0, .L479
1134:Middlewares/Third_Party/FreeRTOS/Source/CMSIS_RTOS_V2/cmsis_os2.c ****   EventGroupHandle_t hEventGroup = (EventGroupHandle_t)ef_id;
 4575              		.loc 1 1134 0
 4576 0002 08B5     		push	{r3, lr}
 4577              	.LCFI79:
ARM GAS  /tmp/ccZrYRqG.s 			page 117


 4578              		.cfi_def_cfa_offset 8
 4579              		.cfi_offset 3, -8
 4580              		.cfi_offset 14, -4
 4581              	.LBB546:
 4582              	.LBB547:
 209:Drivers/CMSIS/Include/cmsis_gcc.h ****   return(result);
 4583              		.loc 2 209 0
 4584              		.syntax unified
 4585              	@ 209 "Drivers/CMSIS/Include/cmsis_gcc.h" 1
 4586 0004 EFF30583 		MRS r3, ipsr
 4587              	@ 0 "" 2
 4588              		.thumb
 4589              		.syntax unified
 4590              	.LBE547:
 4591              	.LBE546:
1139:Middlewares/Third_Party/FreeRTOS/Source/CMSIS_RTOS_V2/cmsis_os2.c ****     rflags = 0U;
1140:Middlewares/Third_Party/FreeRTOS/Source/CMSIS_RTOS_V2/cmsis_os2.c ****   }
1141:Middlewares/Third_Party/FreeRTOS/Source/CMSIS_RTOS_V2/cmsis_os2.c ****   else if (IS_IRQ()) {
 4592              		.loc 1 1141 0
 4593 0008 6BB9     		cbnz	r3, .L476
 4594              	.LBB548:
 4595              	.LBB549:
 386:Drivers/CMSIS/Include/cmsis_gcc.h ****   return(result);
 4596              		.loc 2 386 0
 4597              		.syntax unified
 4598              	@ 386 "Drivers/CMSIS/Include/cmsis_gcc.h" 1
 4599 000a EFF31083 		MRS r3, primask
 4600              	@ 0 "" 2
 4601              		.thumb
 4602              		.syntax unified
 4603              	.LBE549:
 4604              	.LBE548:
 4605              		.loc 1 1141 0
 4606 000e 13B9     		cbnz	r3, .L477
 4607              	.LBB550:
 4608              	.LBB551:
 4609              		.loc 2 465 0
 4610              		.syntax unified
 4611              	@ 465 "Drivers/CMSIS/Include/cmsis_gcc.h" 1
 4612 0010 EFF31183 		MRS r3, basepri
 4613              	@ 0 "" 2
 4614              		.thumb
 4615              		.syntax unified
 4616              	.LBE551:
 4617              	.LBE550:
 4618              		.loc 1 1141 0
 4619 0014 1BB1     		cbz	r3, .L478
 4620              	.L477:
 4621              		.loc 1 1141 0 is_stmt 0 discriminator 4
 4622 0016 064B     		ldr	r3, .L484
 4623 0018 1B68     		ldr	r3, [r3]
 4624 001a 022B     		cmp	r3, #2
 4625 001c 03D0     		beq	.L476
 4626              	.L478:
1142:Middlewares/Third_Party/FreeRTOS/Source/CMSIS_RTOS_V2/cmsis_os2.c ****     rflags = xEventGroupGetBitsFromISR (hEventGroup);
1143:Middlewares/Third_Party/FreeRTOS/Source/CMSIS_RTOS_V2/cmsis_os2.c ****   }
1144:Middlewares/Third_Party/FreeRTOS/Source/CMSIS_RTOS_V2/cmsis_os2.c ****   else {
ARM GAS  /tmp/ccZrYRqG.s 			page 118


1145:Middlewares/Third_Party/FreeRTOS/Source/CMSIS_RTOS_V2/cmsis_os2.c ****     rflags = xEventGroupGetBits (hEventGroup);
 4627              		.loc 1 1145 0 is_stmt 1
 4628 001e 0021     		movs	r1, #0
 4629 0020 FFF7FEFF 		bl	xEventGroupClearBits
 4630              	.LVL384:
 4631 0024 08BD     		pop	{r3, pc}
 4632              	.LVL385:
 4633              	.L476:
1142:Middlewares/Third_Party/FreeRTOS/Source/CMSIS_RTOS_V2/cmsis_os2.c ****     rflags = xEventGroupGetBitsFromISR (hEventGroup);
 4634              		.loc 1 1142 0
 4635 0026 FFF7FEFF 		bl	xEventGroupGetBitsFromISR
 4636              	.LVL386:
 4637 002a 08BD     		pop	{r3, pc}
 4638              	.LVL387:
 4639              	.L479:
 4640              	.LCFI80:
 4641              		.cfi_def_cfa_offset 0
 4642              		.cfi_restore 3
 4643              		.cfi_restore 14
1139:Middlewares/Third_Party/FreeRTOS/Source/CMSIS_RTOS_V2/cmsis_os2.c ****   }
 4644              		.loc 1 1139 0
 4645 002c 0020     		movs	r0, #0
 4646              	.LVL388:
1146:Middlewares/Third_Party/FreeRTOS/Source/CMSIS_RTOS_V2/cmsis_os2.c ****   }
1147:Middlewares/Third_Party/FreeRTOS/Source/CMSIS_RTOS_V2/cmsis_os2.c **** 
1148:Middlewares/Third_Party/FreeRTOS/Source/CMSIS_RTOS_V2/cmsis_os2.c ****   return (rflags);
 4647              		.loc 1 1148 0
 4648 002e 7047     		bx	lr
 4649              	.L485:
 4650              		.align	2
 4651              	.L484:
 4652 0030 00000000 		.word	.LANCHOR0
 4653              		.cfi_endproc
 4654              	.LFE148:
 4656              		.section	.text.osEventFlagsWait,"ax",%progbits
 4657              		.align	1
 4658              		.global	osEventFlagsWait
 4659              		.syntax unified
 4660              		.thumb
 4661              		.thumb_func
 4662              		.fpu fpv4-sp-d16
 4664              	osEventFlagsWait:
 4665              	.LFB149:
1149:Middlewares/Third_Party/FreeRTOS/Source/CMSIS_RTOS_V2/cmsis_os2.c **** }
1150:Middlewares/Third_Party/FreeRTOS/Source/CMSIS_RTOS_V2/cmsis_os2.c **** 
1151:Middlewares/Third_Party/FreeRTOS/Source/CMSIS_RTOS_V2/cmsis_os2.c **** uint32_t osEventFlagsWait (osEventFlagsId_t ef_id, uint32_t flags, uint32_t options, uint32_t timeo
 4666              		.loc 1 1151 0
 4667              		.cfi_startproc
 4668              		@ args = 0, pretend = 0, frame = 0
 4669              		@ frame_needed = 0, uses_anonymous_args = 0
 4670              	.LVL389:
1152:Middlewares/Third_Party/FreeRTOS/Source/CMSIS_RTOS_V2/cmsis_os2.c ****   EventGroupHandle_t hEventGroup = (EventGroupHandle_t)ef_id;
1153:Middlewares/Third_Party/FreeRTOS/Source/CMSIS_RTOS_V2/cmsis_os2.c ****   BaseType_t wait_all;
1154:Middlewares/Third_Party/FreeRTOS/Source/CMSIS_RTOS_V2/cmsis_os2.c ****   BaseType_t exit_clr;
1155:Middlewares/Third_Party/FreeRTOS/Source/CMSIS_RTOS_V2/cmsis_os2.c ****   uint32_t rflags;
1156:Middlewares/Third_Party/FreeRTOS/Source/CMSIS_RTOS_V2/cmsis_os2.c **** 
1157:Middlewares/Third_Party/FreeRTOS/Source/CMSIS_RTOS_V2/cmsis_os2.c ****   if ((hEventGroup == NULL) || ((flags & EVENT_FLAGS_INVALID_BITS) != 0U)) {
ARM GAS  /tmp/ccZrYRqG.s 			page 119


 4671              		.loc 1 1157 0
 4672 0000 0028     		cmp	r0, #0
 4673 0002 39D0     		beq	.L493
1151:Middlewares/Third_Party/FreeRTOS/Source/CMSIS_RTOS_V2/cmsis_os2.c ****   EventGroupHandle_t hEventGroup = (EventGroupHandle_t)ef_id;
 4674              		.loc 1 1151 0 discriminator 1
 4675 0004 F0B5     		push	{r4, r5, r6, r7, lr}
 4676              	.LCFI81:
 4677              		.cfi_def_cfa_offset 20
 4678              		.cfi_offset 4, -20
 4679              		.cfi_offset 5, -16
 4680              		.cfi_offset 6, -12
 4681              		.cfi_offset 7, -8
 4682              		.cfi_offset 14, -4
 4683 0006 83B0     		sub	sp, sp, #12
 4684              	.LCFI82:
 4685              		.cfi_def_cfa_offset 32
 4686 0008 0446     		mov	r4, r0
 4687              		.loc 1 1157 0 discriminator 1
 4688 000a 11F07F4F 		tst	r1, #-16777216
 4689 000e 03D0     		beq	.L505
1158:Middlewares/Third_Party/FreeRTOS/Source/CMSIS_RTOS_V2/cmsis_os2.c ****     rflags = (uint32_t)osErrorParameter;
 4690              		.loc 1 1158 0
 4691 0010 6FF00300 		mvn	r0, #3
 4692              	.LVL390:
 4693              	.L486:
1159:Middlewares/Third_Party/FreeRTOS/Source/CMSIS_RTOS_V2/cmsis_os2.c ****   }
1160:Middlewares/Third_Party/FreeRTOS/Source/CMSIS_RTOS_V2/cmsis_os2.c ****   else if (IS_IRQ()) {
1161:Middlewares/Third_Party/FreeRTOS/Source/CMSIS_RTOS_V2/cmsis_os2.c ****     rflags = (uint32_t)osErrorISR;
1162:Middlewares/Third_Party/FreeRTOS/Source/CMSIS_RTOS_V2/cmsis_os2.c ****   }
1163:Middlewares/Third_Party/FreeRTOS/Source/CMSIS_RTOS_V2/cmsis_os2.c ****   else {
1164:Middlewares/Third_Party/FreeRTOS/Source/CMSIS_RTOS_V2/cmsis_os2.c ****     if (options & osFlagsWaitAll) {
1165:Middlewares/Third_Party/FreeRTOS/Source/CMSIS_RTOS_V2/cmsis_os2.c ****       wait_all = pdTRUE;
1166:Middlewares/Third_Party/FreeRTOS/Source/CMSIS_RTOS_V2/cmsis_os2.c ****     } else {
1167:Middlewares/Third_Party/FreeRTOS/Source/CMSIS_RTOS_V2/cmsis_os2.c ****       wait_all = pdFAIL;
1168:Middlewares/Third_Party/FreeRTOS/Source/CMSIS_RTOS_V2/cmsis_os2.c ****     }
1169:Middlewares/Third_Party/FreeRTOS/Source/CMSIS_RTOS_V2/cmsis_os2.c **** 
1170:Middlewares/Third_Party/FreeRTOS/Source/CMSIS_RTOS_V2/cmsis_os2.c ****     if (options & osFlagsNoClear) {
1171:Middlewares/Third_Party/FreeRTOS/Source/CMSIS_RTOS_V2/cmsis_os2.c ****       exit_clr = pdFAIL;
1172:Middlewares/Third_Party/FreeRTOS/Source/CMSIS_RTOS_V2/cmsis_os2.c ****     } else {
1173:Middlewares/Third_Party/FreeRTOS/Source/CMSIS_RTOS_V2/cmsis_os2.c ****       exit_clr = pdTRUE;
1174:Middlewares/Third_Party/FreeRTOS/Source/CMSIS_RTOS_V2/cmsis_os2.c ****     }
1175:Middlewares/Third_Party/FreeRTOS/Source/CMSIS_RTOS_V2/cmsis_os2.c **** 
1176:Middlewares/Third_Party/FreeRTOS/Source/CMSIS_RTOS_V2/cmsis_os2.c ****     rflags = xEventGroupWaitBits (hEventGroup, (EventBits_t)flags, exit_clr, wait_all, (TickType_t)
1177:Middlewares/Third_Party/FreeRTOS/Source/CMSIS_RTOS_V2/cmsis_os2.c **** 
1178:Middlewares/Third_Party/FreeRTOS/Source/CMSIS_RTOS_V2/cmsis_os2.c ****     if (options & osFlagsWaitAll) {
1179:Middlewares/Third_Party/FreeRTOS/Source/CMSIS_RTOS_V2/cmsis_os2.c ****       if (flags != rflags) {
1180:Middlewares/Third_Party/FreeRTOS/Source/CMSIS_RTOS_V2/cmsis_os2.c ****         if (timeout > 0U) {
1181:Middlewares/Third_Party/FreeRTOS/Source/CMSIS_RTOS_V2/cmsis_os2.c ****           rflags = (uint32_t)osErrorTimeout;
1182:Middlewares/Third_Party/FreeRTOS/Source/CMSIS_RTOS_V2/cmsis_os2.c ****         } else {
1183:Middlewares/Third_Party/FreeRTOS/Source/CMSIS_RTOS_V2/cmsis_os2.c ****           rflags = (uint32_t)osErrorResource;
1184:Middlewares/Third_Party/FreeRTOS/Source/CMSIS_RTOS_V2/cmsis_os2.c ****         }
1185:Middlewares/Third_Party/FreeRTOS/Source/CMSIS_RTOS_V2/cmsis_os2.c ****       }
1186:Middlewares/Third_Party/FreeRTOS/Source/CMSIS_RTOS_V2/cmsis_os2.c ****     }
1187:Middlewares/Third_Party/FreeRTOS/Source/CMSIS_RTOS_V2/cmsis_os2.c ****     else {
1188:Middlewares/Third_Party/FreeRTOS/Source/CMSIS_RTOS_V2/cmsis_os2.c ****       if ((flags & rflags) == 0U) {
1189:Middlewares/Third_Party/FreeRTOS/Source/CMSIS_RTOS_V2/cmsis_os2.c ****         if (timeout > 0U) {
1190:Middlewares/Third_Party/FreeRTOS/Source/CMSIS_RTOS_V2/cmsis_os2.c ****           rflags = (uint32_t)osErrorTimeout;
ARM GAS  /tmp/ccZrYRqG.s 			page 120


1191:Middlewares/Third_Party/FreeRTOS/Source/CMSIS_RTOS_V2/cmsis_os2.c ****         } else {
1192:Middlewares/Third_Party/FreeRTOS/Source/CMSIS_RTOS_V2/cmsis_os2.c ****           rflags = (uint32_t)osErrorResource;
1193:Middlewares/Third_Party/FreeRTOS/Source/CMSIS_RTOS_V2/cmsis_os2.c ****         }
1194:Middlewares/Third_Party/FreeRTOS/Source/CMSIS_RTOS_V2/cmsis_os2.c ****       }
1195:Middlewares/Third_Party/FreeRTOS/Source/CMSIS_RTOS_V2/cmsis_os2.c ****     }
1196:Middlewares/Third_Party/FreeRTOS/Source/CMSIS_RTOS_V2/cmsis_os2.c ****   }
1197:Middlewares/Third_Party/FreeRTOS/Source/CMSIS_RTOS_V2/cmsis_os2.c **** 
1198:Middlewares/Third_Party/FreeRTOS/Source/CMSIS_RTOS_V2/cmsis_os2.c ****   return (rflags);
1199:Middlewares/Third_Party/FreeRTOS/Source/CMSIS_RTOS_V2/cmsis_os2.c **** }
 4694              		.loc 1 1199 0
 4695 0014 03B0     		add	sp, sp, #12
 4696              	.LCFI83:
 4697              		.cfi_remember_state
 4698              		.cfi_def_cfa_offset 20
 4699              		@ sp needed
 4700 0016 F0BD     		pop	{r4, r5, r6, r7, pc}
 4701              	.LVL391:
 4702              	.L505:
 4703              	.LCFI84:
 4704              		.cfi_restore_state
 4705              	.LBB552:
 4706              	.LBB553:
 209:Drivers/CMSIS/Include/cmsis_gcc.h ****   return(result);
 4707              		.loc 2 209 0
 4708              		.syntax unified
 4709              	@ 209 "Drivers/CMSIS/Include/cmsis_gcc.h" 1
 4710 0018 EFF30580 		MRS r0, ipsr
 4711              	@ 0 "" 2
 4712              	.LVL392:
 4713              		.thumb
 4714              		.syntax unified
 4715              	.LBE553:
 4716              	.LBE552:
1160:Middlewares/Third_Party/FreeRTOS/Source/CMSIS_RTOS_V2/cmsis_os2.c ****     rflags = (uint32_t)osErrorISR;
 4717              		.loc 1 1160 0
 4718 001c 10B1     		cbz	r0, .L506
1161:Middlewares/Third_Party/FreeRTOS/Source/CMSIS_RTOS_V2/cmsis_os2.c ****   }
 4719              		.loc 1 1161 0
 4720 001e 6FF00500 		mvn	r0, #5
 4721 0022 F7E7     		b	.L486
 4722              	.L506:
 4723              	.LBB554:
 4724              	.LBB555:
 386:Drivers/CMSIS/Include/cmsis_gcc.h ****   return(result);
 4725              		.loc 2 386 0
 4726              		.syntax unified
 4727              	@ 386 "Drivers/CMSIS/Include/cmsis_gcc.h" 1
 4728 0024 EFF31080 		MRS r0, primask
 4729              	@ 0 "" 2
 4730              		.thumb
 4731              		.syntax unified
 4732              	.LBE555:
 4733              	.LBE554:
1160:Middlewares/Third_Party/FreeRTOS/Source/CMSIS_RTOS_V2/cmsis_os2.c ****     rflags = (uint32_t)osErrorISR;
 4734              		.loc 1 1160 0
 4735 0028 10B9     		cbnz	r0, .L488
 4736              	.LBB556:
ARM GAS  /tmp/ccZrYRqG.s 			page 121


 4737              	.LBB557:
 4738              		.loc 2 465 0
 4739              		.syntax unified
 4740              	@ 465 "Drivers/CMSIS/Include/cmsis_gcc.h" 1
 4741 002a EFF31180 		MRS r0, basepri
 4742              	@ 0 "" 2
 4743              		.thumb
 4744              		.syntax unified
 4745              	.LBE557:
 4746              	.LBE556:
1160:Middlewares/Third_Party/FreeRTOS/Source/CMSIS_RTOS_V2/cmsis_os2.c ****     rflags = (uint32_t)osErrorISR;
 4747              		.loc 1 1160 0
 4748 002e 18B1     		cbz	r0, .L489
 4749              	.L488:
1160:Middlewares/Third_Party/FreeRTOS/Source/CMSIS_RTOS_V2/cmsis_os2.c ****     rflags = (uint32_t)osErrorISR;
 4750              		.loc 1 1160 0 is_stmt 0 discriminator 4
 4751 0030 1748     		ldr	r0, .L507
 4752 0032 0068     		ldr	r0, [r0]
 4753 0034 0228     		cmp	r0, #2
 4754 0036 22D0     		beq	.L496
 4755              	.L489:
1164:Middlewares/Third_Party/FreeRTOS/Source/CMSIS_RTOS_V2/cmsis_os2.c ****       wait_all = pdTRUE;
 4756              		.loc 1 1164 0 is_stmt 1
 4757 0038 12F00106 		ands	r6, r2, #1
 4758 003c 12D0     		beq	.L497
1165:Middlewares/Third_Party/FreeRTOS/Source/CMSIS_RTOS_V2/cmsis_os2.c ****     } else {
 4759              		.loc 1 1165 0
 4760 003e 0127     		movs	r7, #1
 4761              	.L490:
 4762              	.LVL393:
1170:Middlewares/Third_Party/FreeRTOS/Source/CMSIS_RTOS_V2/cmsis_os2.c ****       exit_clr = pdFAIL;
 4763              		.loc 1 1170 0
 4764 0040 12F0020F 		tst	r2, #2
 4765 0044 10D0     		beq	.L498
1171:Middlewares/Third_Party/FreeRTOS/Source/CMSIS_RTOS_V2/cmsis_os2.c ****     } else {
 4766              		.loc 1 1171 0
 4767 0046 0022     		movs	r2, #0
 4768              	.LVL394:
 4769              	.L491:
 4770 0048 2046     		mov	r0, r4
 4771 004a 1D46     		mov	r5, r3
 4772 004c 0C46     		mov	r4, r1
 4773              	.LVL395:
1176:Middlewares/Third_Party/FreeRTOS/Source/CMSIS_RTOS_V2/cmsis_os2.c **** 
 4774              		.loc 1 1176 0
 4775 004e 0093     		str	r3, [sp]
 4776 0050 3B46     		mov	r3, r7
 4777              	.LVL396:
 4778 0052 FFF7FEFF 		bl	xEventGroupWaitBits
 4779              	.LVL397:
1178:Middlewares/Third_Party/FreeRTOS/Source/CMSIS_RTOS_V2/cmsis_os2.c ****       if (flags != rflags) {
 4780              		.loc 1 1178 0
 4781 0056 4EB1     		cbz	r6, .L492
1179:Middlewares/Third_Party/FreeRTOS/Source/CMSIS_RTOS_V2/cmsis_os2.c ****         if (timeout > 0U) {
 4782              		.loc 1 1179 0
 4783 0058 8442     		cmp	r4, r0
 4784 005a DBD0     		beq	.L486
ARM GAS  /tmp/ccZrYRqG.s 			page 122


1180:Middlewares/Third_Party/FreeRTOS/Source/CMSIS_RTOS_V2/cmsis_os2.c ****           rflags = (uint32_t)osErrorTimeout;
 4785              		.loc 1 1180 0
 4786 005c 95B1     		cbz	r5, .L499
1181:Middlewares/Third_Party/FreeRTOS/Source/CMSIS_RTOS_V2/cmsis_os2.c ****         } else {
 4787              		.loc 1 1181 0
 4788 005e 6FF00100 		mvn	r0, #1
 4789              	.LVL398:
 4790 0062 D7E7     		b	.L486
 4791              	.LVL399:
 4792              	.L497:
1167:Middlewares/Third_Party/FreeRTOS/Source/CMSIS_RTOS_V2/cmsis_os2.c ****     }
 4793              		.loc 1 1167 0
 4794 0064 0027     		movs	r7, #0
 4795 0066 EBE7     		b	.L490
 4796              	.LVL400:
 4797              	.L498:
1173:Middlewares/Third_Party/FreeRTOS/Source/CMSIS_RTOS_V2/cmsis_os2.c ****     }
 4798              		.loc 1 1173 0
 4799 0068 0122     		movs	r2, #1
 4800              	.LVL401:
 4801 006a EDE7     		b	.L491
 4802              	.LVL402:
 4803              	.L492:
1188:Middlewares/Third_Party/FreeRTOS/Source/CMSIS_RTOS_V2/cmsis_os2.c ****         if (timeout > 0U) {
 4804              		.loc 1 1188 0
 4805 006c 0442     		tst	r4, r0
 4806 006e D1D1     		bne	.L486
1189:Middlewares/Third_Party/FreeRTOS/Source/CMSIS_RTOS_V2/cmsis_os2.c ****           rflags = (uint32_t)osErrorTimeout;
 4807              		.loc 1 1189 0
 4808 0070 5DB1     		cbz	r5, .L500
1190:Middlewares/Third_Party/FreeRTOS/Source/CMSIS_RTOS_V2/cmsis_os2.c ****         } else {
 4809              		.loc 1 1190 0
 4810 0072 6FF00100 		mvn	r0, #1
 4811              	.LVL403:
 4812 0076 CDE7     		b	.L486
 4813              	.LVL404:
 4814              	.L493:
 4815              	.LCFI85:
 4816              		.cfi_def_cfa_offset 0
 4817              		.cfi_restore 4
 4818              		.cfi_restore 5
 4819              		.cfi_restore 6
 4820              		.cfi_restore 7
 4821              		.cfi_restore 14
1158:Middlewares/Third_Party/FreeRTOS/Source/CMSIS_RTOS_V2/cmsis_os2.c ****   }
 4822              		.loc 1 1158 0
 4823 0078 6FF00300 		mvn	r0, #3
 4824              	.LVL405:
 4825 007c 7047     		bx	lr
 4826              	.LVL406:
 4827              	.L496:
 4828              	.LCFI86:
 4829              		.cfi_def_cfa_offset 32
 4830              		.cfi_offset 4, -20
 4831              		.cfi_offset 5, -16
 4832              		.cfi_offset 6, -12
 4833              		.cfi_offset 7, -8
ARM GAS  /tmp/ccZrYRqG.s 			page 123


 4834              		.cfi_offset 14, -4
1161:Middlewares/Third_Party/FreeRTOS/Source/CMSIS_RTOS_V2/cmsis_os2.c ****   }
 4835              		.loc 1 1161 0
 4836 007e 6FF00500 		mvn	r0, #5
 4837 0082 C7E7     		b	.L486
 4838              	.LVL407:
 4839              	.L499:
1183:Middlewares/Third_Party/FreeRTOS/Source/CMSIS_RTOS_V2/cmsis_os2.c ****         }
 4840              		.loc 1 1183 0
 4841 0084 6FF00200 		mvn	r0, #2
 4842              	.LVL408:
 4843 0088 C4E7     		b	.L486
 4844              	.LVL409:
 4845              	.L500:
1192:Middlewares/Third_Party/FreeRTOS/Source/CMSIS_RTOS_V2/cmsis_os2.c ****         }
 4846              		.loc 1 1192 0
 4847 008a 6FF00200 		mvn	r0, #2
 4848              	.LVL410:
1198:Middlewares/Third_Party/FreeRTOS/Source/CMSIS_RTOS_V2/cmsis_os2.c **** }
 4849              		.loc 1 1198 0
 4850 008e C1E7     		b	.L486
 4851              	.L508:
 4852              		.align	2
 4853              	.L507:
 4854 0090 00000000 		.word	.LANCHOR0
 4855              		.cfi_endproc
 4856              	.LFE149:
 4858              		.section	.text.osEventFlagsDelete,"ax",%progbits
 4859              		.align	1
 4860              		.global	osEventFlagsDelete
 4861              		.syntax unified
 4862              		.thumb
 4863              		.thumb_func
 4864              		.fpu fpv4-sp-d16
 4866              	osEventFlagsDelete:
 4867              	.LFB150:
1200:Middlewares/Third_Party/FreeRTOS/Source/CMSIS_RTOS_V2/cmsis_os2.c **** 
1201:Middlewares/Third_Party/FreeRTOS/Source/CMSIS_RTOS_V2/cmsis_os2.c **** osStatus_t osEventFlagsDelete (osEventFlagsId_t ef_id) {
 4868              		.loc 1 1201 0
 4869              		.cfi_startproc
 4870              		@ args = 0, pretend = 0, frame = 0
 4871              		@ frame_needed = 0, uses_anonymous_args = 0
 4872              	.LVL411:
 4873 0000 08B5     		push	{r3, lr}
 4874              	.LCFI87:
 4875              		.cfi_def_cfa_offset 8
 4876              		.cfi_offset 3, -8
 4877              		.cfi_offset 14, -4
 4878              	.LVL412:
 4879              	.LBB558:
 4880              	.LBB559:
 209:Drivers/CMSIS/Include/cmsis_gcc.h ****   return(result);
 4881              		.loc 2 209 0
 4882              		.syntax unified
 4883              	@ 209 "Drivers/CMSIS/Include/cmsis_gcc.h" 1
 4884 0002 EFF30583 		MRS r3, ipsr
 4885              	@ 0 "" 2
ARM GAS  /tmp/ccZrYRqG.s 			page 124


 4886              		.thumb
 4887              		.syntax unified
 4888              	.LBE559:
 4889              	.LBE558:
1202:Middlewares/Third_Party/FreeRTOS/Source/CMSIS_RTOS_V2/cmsis_os2.c ****   EventGroupHandle_t hEventGroup = (EventGroupHandle_t)ef_id;
1203:Middlewares/Third_Party/FreeRTOS/Source/CMSIS_RTOS_V2/cmsis_os2.c ****   osStatus_t stat;
1204:Middlewares/Third_Party/FreeRTOS/Source/CMSIS_RTOS_V2/cmsis_os2.c **** 
1205:Middlewares/Third_Party/FreeRTOS/Source/CMSIS_RTOS_V2/cmsis_os2.c **** #ifndef USE_FreeRTOS_HEAP_1
1206:Middlewares/Third_Party/FreeRTOS/Source/CMSIS_RTOS_V2/cmsis_os2.c ****   if (IS_IRQ()) {
 4890              		.loc 1 1206 0
 4891 0006 73B9     		cbnz	r3, .L513
 4892              	.LBB560:
 4893              	.LBB561:
 386:Drivers/CMSIS/Include/cmsis_gcc.h ****   return(result);
 4894              		.loc 2 386 0
 4895              		.syntax unified
 4896              	@ 386 "Drivers/CMSIS/Include/cmsis_gcc.h" 1
 4897 0008 EFF31083 		MRS r3, primask
 4898              	@ 0 "" 2
 4899              		.thumb
 4900              		.syntax unified
 4901              	.LBE561:
 4902              	.LBE560:
 4903              		.loc 1 1206 0
 4904 000c 13B9     		cbnz	r3, .L511
 4905              	.LBB562:
 4906              	.LBB563:
 4907              		.loc 2 465 0
 4908              		.syntax unified
 4909              	@ 465 "Drivers/CMSIS/Include/cmsis_gcc.h" 1
 4910 000e EFF31183 		MRS r3, basepri
 4911              	@ 0 "" 2
 4912              		.thumb
 4913              		.syntax unified
 4914              	.LBE563:
 4915              	.LBE562:
 4916              		.loc 1 1206 0
 4917 0012 1BB1     		cbz	r3, .L512
 4918              	.L511:
 4919              		.loc 1 1206 0 is_stmt 0 discriminator 4
 4920 0014 084B     		ldr	r3, .L517
 4921 0016 1B68     		ldr	r3, [r3]
 4922 0018 022B     		cmp	r3, #2
 4923 001a 07D0     		beq	.L514
 4924              	.L512:
1207:Middlewares/Third_Party/FreeRTOS/Source/CMSIS_RTOS_V2/cmsis_os2.c ****     stat = osErrorISR;
1208:Middlewares/Third_Party/FreeRTOS/Source/CMSIS_RTOS_V2/cmsis_os2.c ****   }
1209:Middlewares/Third_Party/FreeRTOS/Source/CMSIS_RTOS_V2/cmsis_os2.c ****   else if (hEventGroup == NULL) {
 4925              		.loc 1 1209 0 is_stmt 1
 4926 001c 48B1     		cbz	r0, .L515
 4927              	.LVL413:
1210:Middlewares/Third_Party/FreeRTOS/Source/CMSIS_RTOS_V2/cmsis_os2.c ****     stat = osErrorParameter;
1211:Middlewares/Third_Party/FreeRTOS/Source/CMSIS_RTOS_V2/cmsis_os2.c ****   }
1212:Middlewares/Third_Party/FreeRTOS/Source/CMSIS_RTOS_V2/cmsis_os2.c ****   else {
1213:Middlewares/Third_Party/FreeRTOS/Source/CMSIS_RTOS_V2/cmsis_os2.c ****     stat = osOK;
1214:Middlewares/Third_Party/FreeRTOS/Source/CMSIS_RTOS_V2/cmsis_os2.c ****     vEventGroupDelete (hEventGroup);
 4928              		.loc 1 1214 0
ARM GAS  /tmp/ccZrYRqG.s 			page 125


 4929 001e FFF7FEFF 		bl	vEventGroupDelete
 4930              	.LVL414:
1213:Middlewares/Third_Party/FreeRTOS/Source/CMSIS_RTOS_V2/cmsis_os2.c ****     vEventGroupDelete (hEventGroup);
 4931              		.loc 1 1213 0
 4932 0022 0020     		movs	r0, #0
 4933 0024 08BD     		pop	{r3, pc}
 4934              	.LVL415:
 4935              	.L513:
1207:Middlewares/Third_Party/FreeRTOS/Source/CMSIS_RTOS_V2/cmsis_os2.c ****     stat = osErrorISR;
 4936              		.loc 1 1207 0
 4937 0026 6FF00500 		mvn	r0, #5
 4938              	.LVL416:
 4939 002a 08BD     		pop	{r3, pc}
 4940              	.LVL417:
 4941              	.L514:
 4942 002c 6FF00500 		mvn	r0, #5
 4943              	.LVL418:
 4944 0030 08BD     		pop	{r3, pc}
 4945              	.LVL419:
 4946              	.L515:
1210:Middlewares/Third_Party/FreeRTOS/Source/CMSIS_RTOS_V2/cmsis_os2.c ****     stat = osErrorParameter;
 4947              		.loc 1 1210 0
 4948 0032 6FF00300 		mvn	r0, #3
 4949              	.LVL420:
1215:Middlewares/Third_Party/FreeRTOS/Source/CMSIS_RTOS_V2/cmsis_os2.c ****   }
1216:Middlewares/Third_Party/FreeRTOS/Source/CMSIS_RTOS_V2/cmsis_os2.c **** #else
1217:Middlewares/Third_Party/FreeRTOS/Source/CMSIS_RTOS_V2/cmsis_os2.c ****   stat = osError;
1218:Middlewares/Third_Party/FreeRTOS/Source/CMSIS_RTOS_V2/cmsis_os2.c **** #endif
1219:Middlewares/Third_Party/FreeRTOS/Source/CMSIS_RTOS_V2/cmsis_os2.c **** 
1220:Middlewares/Third_Party/FreeRTOS/Source/CMSIS_RTOS_V2/cmsis_os2.c ****   return (stat);
1221:Middlewares/Third_Party/FreeRTOS/Source/CMSIS_RTOS_V2/cmsis_os2.c **** }
 4950              		.loc 1 1221 0
 4951 0036 08BD     		pop	{r3, pc}
 4952              	.L518:
 4953              		.align	2
 4954              	.L517:
 4955 0038 00000000 		.word	.LANCHOR0
 4956              		.cfi_endproc
 4957              	.LFE150:
 4959              		.section	.text.osMutexNew,"ax",%progbits
 4960              		.align	1
 4961              		.global	osMutexNew
 4962              		.syntax unified
 4963              		.thumb
 4964              		.thumb_func
 4965              		.fpu fpv4-sp-d16
 4967              	osMutexNew:
 4968              	.LFB151:
1222:Middlewares/Third_Party/FreeRTOS/Source/CMSIS_RTOS_V2/cmsis_os2.c **** 
1223:Middlewares/Third_Party/FreeRTOS/Source/CMSIS_RTOS_V2/cmsis_os2.c **** /*---------------------------------------------------------------------------*/
1224:Middlewares/Third_Party/FreeRTOS/Source/CMSIS_RTOS_V2/cmsis_os2.c **** 
1225:Middlewares/Third_Party/FreeRTOS/Source/CMSIS_RTOS_V2/cmsis_os2.c **** osMutexId_t osMutexNew (const osMutexAttr_t *attr) {
 4969              		.loc 1 1225 0
 4970              		.cfi_startproc
 4971              		@ args = 0, pretend = 0, frame = 0
 4972              		@ frame_needed = 0, uses_anonymous_args = 0
 4973              	.LVL421:
ARM GAS  /tmp/ccZrYRqG.s 			page 126


 4974 0000 70B5     		push	{r4, r5, r6, lr}
 4975              	.LCFI88:
 4976              		.cfi_def_cfa_offset 16
 4977              		.cfi_offset 4, -16
 4978              		.cfi_offset 5, -12
 4979              		.cfi_offset 6, -8
 4980              		.cfi_offset 14, -4
 4981              	.LVL422:
 4982              	.LBB564:
 4983              	.LBB565:
 209:Drivers/CMSIS/Include/cmsis_gcc.h ****   return(result);
 4984              		.loc 2 209 0
 4985              		.syntax unified
 4986              	@ 209 "Drivers/CMSIS/Include/cmsis_gcc.h" 1
 4987 0002 EFF30586 		MRS r6, ipsr
 4988              	@ 0 "" 2
 4989              		.thumb
 4990              		.syntax unified
 4991              	.LBE565:
 4992              	.LBE564:
1226:Middlewares/Third_Party/FreeRTOS/Source/CMSIS_RTOS_V2/cmsis_os2.c ****   SemaphoreHandle_t hMutex;
1227:Middlewares/Third_Party/FreeRTOS/Source/CMSIS_RTOS_V2/cmsis_os2.c ****   uint32_t type;
1228:Middlewares/Third_Party/FreeRTOS/Source/CMSIS_RTOS_V2/cmsis_os2.c ****   uint32_t rmtx;
1229:Middlewares/Third_Party/FreeRTOS/Source/CMSIS_RTOS_V2/cmsis_os2.c ****   int32_t  mem;
1230:Middlewares/Third_Party/FreeRTOS/Source/CMSIS_RTOS_V2/cmsis_os2.c ****   #if (configQUEUE_REGISTRY_SIZE > 0)
1231:Middlewares/Third_Party/FreeRTOS/Source/CMSIS_RTOS_V2/cmsis_os2.c ****   const char *name;
1232:Middlewares/Third_Party/FreeRTOS/Source/CMSIS_RTOS_V2/cmsis_os2.c ****   #endif
1233:Middlewares/Third_Party/FreeRTOS/Source/CMSIS_RTOS_V2/cmsis_os2.c **** 
1234:Middlewares/Third_Party/FreeRTOS/Source/CMSIS_RTOS_V2/cmsis_os2.c ****   hMutex = NULL;
1235:Middlewares/Third_Party/FreeRTOS/Source/CMSIS_RTOS_V2/cmsis_os2.c **** 
1236:Middlewares/Third_Party/FreeRTOS/Source/CMSIS_RTOS_V2/cmsis_os2.c ****   if (!IS_IRQ()) {
 4993              		.loc 1 1236 0
 4994 0006 002E     		cmp	r6, #0
 4995 0008 53D1     		bne	.L533
 4996              	.LBB566:
 4997              	.LBB567:
 386:Drivers/CMSIS/Include/cmsis_gcc.h ****   return(result);
 4998              		.loc 2 386 0
 4999              		.syntax unified
 5000              	@ 386 "Drivers/CMSIS/Include/cmsis_gcc.h" 1
 5001 000a EFF31083 		MRS r3, primask
 5002              	@ 0 "" 2
 5003              		.thumb
 5004              		.syntax unified
 5005              	.LBE567:
 5006              	.LBE566:
 5007              		.loc 1 1236 0
 5008 000e 13B9     		cbnz	r3, .L521
 5009              	.LBB568:
 5010              	.LBB569:
 5011              		.loc 2 465 0
 5012              		.syntax unified
 5013              	@ 465 "Drivers/CMSIS/Include/cmsis_gcc.h" 1
 5014 0010 EFF31183 		MRS r3, basepri
 5015              	@ 0 "" 2
 5016              		.thumb
 5017              		.syntax unified
ARM GAS  /tmp/ccZrYRqG.s 			page 127


 5018              	.LBE569:
 5019              	.LBE568:
 5020              		.loc 1 1236 0
 5021 0014 1BB1     		cbz	r3, .L522
 5022              	.L521:
 5023              		.loc 1 1236 0 is_stmt 0 discriminator 4
 5024 0016 2A4B     		ldr	r3, .L546
 5025 0018 1B68     		ldr	r3, [r3]
 5026 001a 022B     		cmp	r3, #2
 5027 001c 4BD0     		beq	.L534
 5028              	.L522:
1237:Middlewares/Third_Party/FreeRTOS/Source/CMSIS_RTOS_V2/cmsis_os2.c ****     if (attr != NULL) {
 5029              		.loc 1 1237 0 is_stmt 1
 5030 001e D0B1     		cbz	r0, .L535
1238:Middlewares/Third_Party/FreeRTOS/Source/CMSIS_RTOS_V2/cmsis_os2.c ****       type = attr->attr_bits;
 5031              		.loc 1 1238 0
 5032 0020 4368     		ldr	r3, [r0, #4]
 5033              	.LVL423:
 5034              	.L523:
1239:Middlewares/Third_Party/FreeRTOS/Source/CMSIS_RTOS_V2/cmsis_os2.c ****     } else {
1240:Middlewares/Third_Party/FreeRTOS/Source/CMSIS_RTOS_V2/cmsis_os2.c ****       type = 0U;
1241:Middlewares/Third_Party/FreeRTOS/Source/CMSIS_RTOS_V2/cmsis_os2.c ****     }
1242:Middlewares/Third_Party/FreeRTOS/Source/CMSIS_RTOS_V2/cmsis_os2.c **** 
1243:Middlewares/Third_Party/FreeRTOS/Source/CMSIS_RTOS_V2/cmsis_os2.c ****     if ((type & osMutexRecursive) == osMutexRecursive) {
 5035              		.loc 1 1243 0
 5036 0022 13F0010F 		tst	r3, #1
 5037 0026 00D0     		beq	.L524
1244:Middlewares/Third_Party/FreeRTOS/Source/CMSIS_RTOS_V2/cmsis_os2.c ****       rmtx = 1U;
 5038              		.loc 1 1244 0
 5039 0028 0126     		movs	r6, #1
 5040              	.L524:
 5041              	.LVL424:
1245:Middlewares/Third_Party/FreeRTOS/Source/CMSIS_RTOS_V2/cmsis_os2.c ****     } else {
1246:Middlewares/Third_Party/FreeRTOS/Source/CMSIS_RTOS_V2/cmsis_os2.c ****       rmtx = 0U;
1247:Middlewares/Third_Party/FreeRTOS/Source/CMSIS_RTOS_V2/cmsis_os2.c ****     }
1248:Middlewares/Third_Party/FreeRTOS/Source/CMSIS_RTOS_V2/cmsis_os2.c **** 
1249:Middlewares/Third_Party/FreeRTOS/Source/CMSIS_RTOS_V2/cmsis_os2.c ****     if ((type & osMutexRobust) != osMutexRobust) {
 5042              		.loc 1 1249 0
 5043 002a 13F0080F 		tst	r3, #8
 5044 002e 44D1     		bne	.L536
 5045              	.LVL425:
1250:Middlewares/Third_Party/FreeRTOS/Source/CMSIS_RTOS_V2/cmsis_os2.c ****       mem = -1;
1251:Middlewares/Third_Party/FreeRTOS/Source/CMSIS_RTOS_V2/cmsis_os2.c **** 
1252:Middlewares/Third_Party/FreeRTOS/Source/CMSIS_RTOS_V2/cmsis_os2.c ****       if (attr != NULL) {
 5046              		.loc 1 1252 0
 5047 0030 C0B1     		cbz	r0, .L537
1253:Middlewares/Third_Party/FreeRTOS/Source/CMSIS_RTOS_V2/cmsis_os2.c ****         if ((attr->cb_mem != NULL) && (attr->cb_size >= sizeof(StaticSemaphore_t))) {
 5048              		.loc 1 1253 0
 5049 0032 8368     		ldr	r3, [r0, #8]
 5050              	.LVL426:
 5051 0034 13B1     		cbz	r3, .L526
 5052              		.loc 1 1253 0 is_stmt 0 discriminator 1
 5053 0036 C268     		ldr	r2, [r0, #12]
 5054 0038 4F2A     		cmp	r2, #79
 5055 003a 15D8     		bhi	.L538
 5056              	.L526:
1254:Middlewares/Third_Party/FreeRTOS/Source/CMSIS_RTOS_V2/cmsis_os2.c ****           mem = 1;
ARM GAS  /tmp/ccZrYRqG.s 			page 128


1255:Middlewares/Third_Party/FreeRTOS/Source/CMSIS_RTOS_V2/cmsis_os2.c ****         }
1256:Middlewares/Third_Party/FreeRTOS/Source/CMSIS_RTOS_V2/cmsis_os2.c ****         else {
1257:Middlewares/Third_Party/FreeRTOS/Source/CMSIS_RTOS_V2/cmsis_os2.c ****           if ((attr->cb_mem == NULL) && (attr->cb_size == 0U)) {
 5057              		.loc 1 1257 0 is_stmt 1
 5058 003c 6BB1     		cbz	r3, .L544
1250:Middlewares/Third_Party/FreeRTOS/Source/CMSIS_RTOS_V2/cmsis_os2.c **** 
 5059              		.loc 1 1250 0
 5060 003e 4FF0FF33 		mov	r3, #-1
 5061              	.L525:
 5062 0042 0446     		mov	r4, r0
 5063              	.LVL427:
1258:Middlewares/Third_Party/FreeRTOS/Source/CMSIS_RTOS_V2/cmsis_os2.c ****             mem = 0;
1259:Middlewares/Third_Party/FreeRTOS/Source/CMSIS_RTOS_V2/cmsis_os2.c ****           }
1260:Middlewares/Third_Party/FreeRTOS/Source/CMSIS_RTOS_V2/cmsis_os2.c ****         }
1261:Middlewares/Third_Party/FreeRTOS/Source/CMSIS_RTOS_V2/cmsis_os2.c ****       }
1262:Middlewares/Third_Party/FreeRTOS/Source/CMSIS_RTOS_V2/cmsis_os2.c ****       else {
1263:Middlewares/Third_Party/FreeRTOS/Source/CMSIS_RTOS_V2/cmsis_os2.c ****         mem = 0;
1264:Middlewares/Third_Party/FreeRTOS/Source/CMSIS_RTOS_V2/cmsis_os2.c ****       }
1265:Middlewares/Third_Party/FreeRTOS/Source/CMSIS_RTOS_V2/cmsis_os2.c **** 
1266:Middlewares/Third_Party/FreeRTOS/Source/CMSIS_RTOS_V2/cmsis_os2.c ****       if (mem == 1) {
 5064              		.loc 1 1266 0
 5065 0044 012B     		cmp	r3, #1
 5066 0046 13D0     		beq	.L545
1267:Middlewares/Third_Party/FreeRTOS/Source/CMSIS_RTOS_V2/cmsis_os2.c ****         if (rmtx != 0U) {
1268:Middlewares/Third_Party/FreeRTOS/Source/CMSIS_RTOS_V2/cmsis_os2.c ****           hMutex = xSemaphoreCreateRecursiveMutexStatic (attr->cb_mem);
1269:Middlewares/Third_Party/FreeRTOS/Source/CMSIS_RTOS_V2/cmsis_os2.c ****         }
1270:Middlewares/Third_Party/FreeRTOS/Source/CMSIS_RTOS_V2/cmsis_os2.c ****         else {
1271:Middlewares/Third_Party/FreeRTOS/Source/CMSIS_RTOS_V2/cmsis_os2.c ****           hMutex = xSemaphoreCreateMutexStatic (attr->cb_mem);
1272:Middlewares/Third_Party/FreeRTOS/Source/CMSIS_RTOS_V2/cmsis_os2.c ****         }
1273:Middlewares/Third_Party/FreeRTOS/Source/CMSIS_RTOS_V2/cmsis_os2.c ****       }
1274:Middlewares/Third_Party/FreeRTOS/Source/CMSIS_RTOS_V2/cmsis_os2.c ****       else {
1275:Middlewares/Third_Party/FreeRTOS/Source/CMSIS_RTOS_V2/cmsis_os2.c ****         if (mem == 0) {
 5067              		.loc 1 1275 0
 5068 0048 23BB     		cbnz	r3, .L541
1276:Middlewares/Third_Party/FreeRTOS/Source/CMSIS_RTOS_V2/cmsis_os2.c ****           if (rmtx != 0U) {
 5069              		.loc 1 1276 0
 5070 004a F6B1     		cbz	r6, .L530
1277:Middlewares/Third_Party/FreeRTOS/Source/CMSIS_RTOS_V2/cmsis_os2.c ****             hMutex = xSemaphoreCreateRecursiveMutex ();
 5071              		.loc 1 1277 0
 5072 004c 0420     		movs	r0, #4
 5073              	.LVL428:
 5074 004e FFF7FEFF 		bl	xQueueCreateMutex
 5075              	.LVL429:
 5076 0052 0546     		mov	r5, r0
 5077              	.LVL430:
 5078 0054 1FE0     		b	.L529
 5079              	.LVL431:
 5080              	.L535:
1240:Middlewares/Third_Party/FreeRTOS/Source/CMSIS_RTOS_V2/cmsis_os2.c ****     }
 5081              		.loc 1 1240 0
 5082 0056 3346     		mov	r3, r6
 5083 0058 E3E7     		b	.L523
 5084              	.LVL432:
 5085              	.L544:
1257:Middlewares/Third_Party/FreeRTOS/Source/CMSIS_RTOS_V2/cmsis_os2.c ****             mem = 0;
 5086              		.loc 1 1257 0 discriminator 1
 5087 005a C368     		ldr	r3, [r0, #12]
ARM GAS  /tmp/ccZrYRqG.s 			page 129


 5088 005c 33B1     		cbz	r3, .L540
1250:Middlewares/Third_Party/FreeRTOS/Source/CMSIS_RTOS_V2/cmsis_os2.c **** 
 5089              		.loc 1 1250 0
 5090 005e 4FF0FF33 		mov	r3, #-1
 5091 0062 EEE7     		b	.L525
 5092              	.LVL433:
 5093              	.L537:
1263:Middlewares/Third_Party/FreeRTOS/Source/CMSIS_RTOS_V2/cmsis_os2.c ****       }
 5094              		.loc 1 1263 0
 5095 0064 0023     		movs	r3, #0
 5096              	.LVL434:
 5097 0066 ECE7     		b	.L525
 5098              	.L538:
1254:Middlewares/Third_Party/FreeRTOS/Source/CMSIS_RTOS_V2/cmsis_os2.c ****         }
 5099              		.loc 1 1254 0
 5100 0068 0123     		movs	r3, #1
 5101 006a EAE7     		b	.L525
 5102              	.L540:
1258:Middlewares/Third_Party/FreeRTOS/Source/CMSIS_RTOS_V2/cmsis_os2.c ****           }
 5103              		.loc 1 1258 0
 5104 006c 0023     		movs	r3, #0
 5105 006e E8E7     		b	.L525
 5106              	.LVL435:
 5107              	.L545:
1267:Middlewares/Third_Party/FreeRTOS/Source/CMSIS_RTOS_V2/cmsis_os2.c ****           hMutex = xSemaphoreCreateRecursiveMutexStatic (attr->cb_mem);
 5108              		.loc 1 1267 0
 5109 0070 2EB1     		cbz	r6, .L528
1268:Middlewares/Third_Party/FreeRTOS/Source/CMSIS_RTOS_V2/cmsis_os2.c ****         }
 5110              		.loc 1 1268 0
 5111 0072 8168     		ldr	r1, [r0, #8]
 5112 0074 0420     		movs	r0, #4
 5113              	.LVL436:
 5114 0076 FFF7FEFF 		bl	xQueueCreateMutexStatic
 5115              	.LVL437:
 5116 007a 0546     		mov	r5, r0
 5117              	.LVL438:
 5118 007c 0BE0     		b	.L529
 5119              	.LVL439:
 5120              	.L528:
1271:Middlewares/Third_Party/FreeRTOS/Source/CMSIS_RTOS_V2/cmsis_os2.c ****         }
 5121              		.loc 1 1271 0
 5122 007e 8168     		ldr	r1, [r0, #8]
 5123 0080 0120     		movs	r0, #1
 5124              	.LVL440:
 5125 0082 FFF7FEFF 		bl	xQueueCreateMutexStatic
 5126              	.LVL441:
 5127 0086 0546     		mov	r5, r0
 5128              	.LVL442:
 5129 0088 05E0     		b	.L529
 5130              	.LVL443:
 5131              	.L530:
1278:Middlewares/Third_Party/FreeRTOS/Source/CMSIS_RTOS_V2/cmsis_os2.c ****           } else {
1279:Middlewares/Third_Party/FreeRTOS/Source/CMSIS_RTOS_V2/cmsis_os2.c ****             hMutex = xSemaphoreCreateMutex ();
 5132              		.loc 1 1279 0
 5133 008a 0120     		movs	r0, #1
 5134              	.LVL444:
 5135 008c FFF7FEFF 		bl	xQueueCreateMutex
ARM GAS  /tmp/ccZrYRqG.s 			page 130


 5136              	.LVL445:
 5137 0090 0546     		mov	r5, r0
 5138              	.LVL446:
 5139 0092 00E0     		b	.L529
 5140              	.LVL447:
 5141              	.L541:
1234:Middlewares/Third_Party/FreeRTOS/Source/CMSIS_RTOS_V2/cmsis_os2.c **** 
 5142              		.loc 1 1234 0
 5143 0094 0025     		movs	r5, #0
 5144              	.LVL448:
 5145              	.L529:
1280:Middlewares/Third_Party/FreeRTOS/Source/CMSIS_RTOS_V2/cmsis_os2.c ****           }
1281:Middlewares/Third_Party/FreeRTOS/Source/CMSIS_RTOS_V2/cmsis_os2.c ****         }
1282:Middlewares/Third_Party/FreeRTOS/Source/CMSIS_RTOS_V2/cmsis_os2.c ****       }
1283:Middlewares/Third_Party/FreeRTOS/Source/CMSIS_RTOS_V2/cmsis_os2.c **** 
1284:Middlewares/Third_Party/FreeRTOS/Source/CMSIS_RTOS_V2/cmsis_os2.c ****       #if (configQUEUE_REGISTRY_SIZE > 0)
1285:Middlewares/Third_Party/FreeRTOS/Source/CMSIS_RTOS_V2/cmsis_os2.c ****       if (hMutex != NULL) {
 5146              		.loc 1 1285 0
 5147 0096 25B1     		cbz	r5, .L531
1286:Middlewares/Third_Party/FreeRTOS/Source/CMSIS_RTOS_V2/cmsis_os2.c ****         if (attr != NULL) {
 5148              		.loc 1 1286 0
 5149 0098 4CB1     		cbz	r4, .L542
1287:Middlewares/Third_Party/FreeRTOS/Source/CMSIS_RTOS_V2/cmsis_os2.c ****           name = attr->name;
 5150              		.loc 1 1287 0
 5151 009a 2168     		ldr	r1, [r4]
 5152              	.LVL449:
 5153              	.L532:
1288:Middlewares/Third_Party/FreeRTOS/Source/CMSIS_RTOS_V2/cmsis_os2.c ****         } else {
1289:Middlewares/Third_Party/FreeRTOS/Source/CMSIS_RTOS_V2/cmsis_os2.c ****           name = NULL;
1290:Middlewares/Third_Party/FreeRTOS/Source/CMSIS_RTOS_V2/cmsis_os2.c ****         }
1291:Middlewares/Third_Party/FreeRTOS/Source/CMSIS_RTOS_V2/cmsis_os2.c ****         vQueueAddToRegistry (hMutex, name);
 5154              		.loc 1 1291 0
 5155 009c 2846     		mov	r0, r5
 5156 009e FFF7FEFF 		bl	vQueueAddToRegistry
 5157              	.LVL450:
 5158              	.L531:
1292:Middlewares/Third_Party/FreeRTOS/Source/CMSIS_RTOS_V2/cmsis_os2.c ****       }
1293:Middlewares/Third_Party/FreeRTOS/Source/CMSIS_RTOS_V2/cmsis_os2.c ****       #endif
1294:Middlewares/Third_Party/FreeRTOS/Source/CMSIS_RTOS_V2/cmsis_os2.c **** 
1295:Middlewares/Third_Party/FreeRTOS/Source/CMSIS_RTOS_V2/cmsis_os2.c ****       if ((hMutex != NULL) && (rmtx != 0U)) {
 5159              		.loc 1 1295 0
 5160 00a2 15B1     		cbz	r5, .L520
 5161              		.loc 1 1295 0 is_stmt 0 discriminator 1
 5162 00a4 0EB1     		cbz	r6, .L520
1296:Middlewares/Third_Party/FreeRTOS/Source/CMSIS_RTOS_V2/cmsis_os2.c ****         hMutex = (SemaphoreHandle_t)((uint32_t)hMutex | 1U);
 5163              		.loc 1 1296 0 is_stmt 1
 5164 00a6 45F00105 		orr	r5, r5, #1
 5165              	.LVL451:
 5166              	.L520:
1297:Middlewares/Third_Party/FreeRTOS/Source/CMSIS_RTOS_V2/cmsis_os2.c ****       }
1298:Middlewares/Third_Party/FreeRTOS/Source/CMSIS_RTOS_V2/cmsis_os2.c ****     }
1299:Middlewares/Third_Party/FreeRTOS/Source/CMSIS_RTOS_V2/cmsis_os2.c ****   }
1300:Middlewares/Third_Party/FreeRTOS/Source/CMSIS_RTOS_V2/cmsis_os2.c **** 
1301:Middlewares/Third_Party/FreeRTOS/Source/CMSIS_RTOS_V2/cmsis_os2.c ****   return ((osMutexId_t)hMutex);
1302:Middlewares/Third_Party/FreeRTOS/Source/CMSIS_RTOS_V2/cmsis_os2.c **** }
 5167              		.loc 1 1302 0
 5168 00aa 2846     		mov	r0, r5
ARM GAS  /tmp/ccZrYRqG.s 			page 131


 5169 00ac 70BD     		pop	{r4, r5, r6, pc}
 5170              	.LVL452:
 5171              	.L542:
1289:Middlewares/Third_Party/FreeRTOS/Source/CMSIS_RTOS_V2/cmsis_os2.c ****         }
 5172              		.loc 1 1289 0
 5173 00ae 0021     		movs	r1, #0
 5174 00b0 F4E7     		b	.L532
 5175              	.LVL453:
 5176              	.L533:
1234:Middlewares/Third_Party/FreeRTOS/Source/CMSIS_RTOS_V2/cmsis_os2.c **** 
 5177              		.loc 1 1234 0
 5178 00b2 0025     		movs	r5, #0
 5179 00b4 F9E7     		b	.L520
 5180              	.L534:
 5181 00b6 0025     		movs	r5, #0
 5182 00b8 F7E7     		b	.L520
 5183              	.LVL454:
 5184              	.L536:
 5185 00ba 0025     		movs	r5, #0
 5186 00bc F5E7     		b	.L520
 5187              	.L547:
 5188 00be 00BF     		.align	2
 5189              	.L546:
 5190 00c0 00000000 		.word	.LANCHOR0
 5191              		.cfi_endproc
 5192              	.LFE151:
 5194              		.section	.text.osMutexAcquire,"ax",%progbits
 5195              		.align	1
 5196              		.global	osMutexAcquire
 5197              		.syntax unified
 5198              		.thumb
 5199              		.thumb_func
 5200              		.fpu fpv4-sp-d16
 5202              	osMutexAcquire:
 5203              	.LFB152:
1303:Middlewares/Third_Party/FreeRTOS/Source/CMSIS_RTOS_V2/cmsis_os2.c **** 
1304:Middlewares/Third_Party/FreeRTOS/Source/CMSIS_RTOS_V2/cmsis_os2.c **** osStatus_t osMutexAcquire (osMutexId_t mutex_id, uint32_t timeout) {
 5204              		.loc 1 1304 0
 5205              		.cfi_startproc
 5206              		@ args = 0, pretend = 0, frame = 0
 5207              		@ frame_needed = 0, uses_anonymous_args = 0
 5208              	.LVL455:
1305:Middlewares/Third_Party/FreeRTOS/Source/CMSIS_RTOS_V2/cmsis_os2.c ****   SemaphoreHandle_t hMutex;
1306:Middlewares/Third_Party/FreeRTOS/Source/CMSIS_RTOS_V2/cmsis_os2.c ****   osStatus_t stat;
1307:Middlewares/Third_Party/FreeRTOS/Source/CMSIS_RTOS_V2/cmsis_os2.c ****   uint32_t rmtx;
1308:Middlewares/Third_Party/FreeRTOS/Source/CMSIS_RTOS_V2/cmsis_os2.c **** 
1309:Middlewares/Third_Party/FreeRTOS/Source/CMSIS_RTOS_V2/cmsis_os2.c ****   hMutex = (SemaphoreHandle_t)((uint32_t)mutex_id & ~1U);
 5209              		.loc 1 1309 0
 5210 0000 20F00102 		bic	r2, r0, #1
 5211              	.LVL456:
1310:Middlewares/Third_Party/FreeRTOS/Source/CMSIS_RTOS_V2/cmsis_os2.c **** 
1311:Middlewares/Third_Party/FreeRTOS/Source/CMSIS_RTOS_V2/cmsis_os2.c ****   rmtx = (uint32_t)mutex_id & 1U;
 5212              		.loc 1 1311 0
 5213 0004 00F00103 		and	r3, r0, #1
 5214              	.LVL457:
 5215              	.LBB570:
 5216              	.LBB571:
ARM GAS  /tmp/ccZrYRqG.s 			page 132


 209:Drivers/CMSIS/Include/cmsis_gcc.h ****   return(result);
 5217              		.loc 2 209 0
 5218              		.syntax unified
 5219              	@ 209 "Drivers/CMSIS/Include/cmsis_gcc.h" 1
 5220 0008 EFF30580 		MRS r0, ipsr
 5221              	@ 0 "" 2
 5222              	.LVL458:
 5223              		.thumb
 5224              		.syntax unified
 5225              	.LBE571:
 5226              	.LBE570:
1312:Middlewares/Third_Party/FreeRTOS/Source/CMSIS_RTOS_V2/cmsis_os2.c **** 
1313:Middlewares/Third_Party/FreeRTOS/Source/CMSIS_RTOS_V2/cmsis_os2.c ****   stat = osOK;
1314:Middlewares/Third_Party/FreeRTOS/Source/CMSIS_RTOS_V2/cmsis_os2.c **** 
1315:Middlewares/Third_Party/FreeRTOS/Source/CMSIS_RTOS_V2/cmsis_os2.c ****   if (IS_IRQ()) {
 5227              		.loc 1 1315 0
 5228 000c F8B9     		cbnz	r0, .L553
 5229              	.LBB572:
 5230              	.LBB573:
 386:Drivers/CMSIS/Include/cmsis_gcc.h ****   return(result);
 5231              		.loc 2 386 0
 5232              		.syntax unified
 5233              	@ 386 "Drivers/CMSIS/Include/cmsis_gcc.h" 1
 5234 000e EFF31080 		MRS r0, primask
 5235              	@ 0 "" 2
 5236              		.thumb
 5237              		.syntax unified
 5238              	.LBE573:
 5239              	.LBE572:
 5240              		.loc 1 1315 0
 5241 0012 10B9     		cbnz	r0, .L550
 5242              	.LBB574:
 5243              	.LBB575:
 5244              		.loc 2 465 0
 5245              		.syntax unified
 5246              	@ 465 "Drivers/CMSIS/Include/cmsis_gcc.h" 1
 5247 0014 EFF31180 		MRS r0, basepri
 5248              	@ 0 "" 2
 5249              		.thumb
 5250              		.syntax unified
 5251              	.LBE575:
 5252              	.LBE574:
 5253              		.loc 1 1315 0
 5254 0018 18B1     		cbz	r0, .L551
 5255              	.L550:
 5256              		.loc 1 1315 0 is_stmt 0 discriminator 4
 5257 001a 1648     		ldr	r0, .L564
 5258 001c 0068     		ldr	r0, [r0]
 5259 001e 0228     		cmp	r0, #2
 5260 0020 18D0     		beq	.L554
 5261              	.L551:
1316:Middlewares/Third_Party/FreeRTOS/Source/CMSIS_RTOS_V2/cmsis_os2.c ****     stat = osErrorISR;
1317:Middlewares/Third_Party/FreeRTOS/Source/CMSIS_RTOS_V2/cmsis_os2.c ****   }
1318:Middlewares/Third_Party/FreeRTOS/Source/CMSIS_RTOS_V2/cmsis_os2.c ****   else if (hMutex == NULL) {
 5262              		.loc 1 1318 0 is_stmt 1
 5263 0022 D2B1     		cbz	r2, .L555
1304:Middlewares/Third_Party/FreeRTOS/Source/CMSIS_RTOS_V2/cmsis_os2.c ****   SemaphoreHandle_t hMutex;
ARM GAS  /tmp/ccZrYRqG.s 			page 133


 5264              		.loc 1 1304 0
 5265 0024 10B5     		push	{r4, lr}
 5266              	.LCFI89:
 5267              		.cfi_def_cfa_offset 8
 5268              		.cfi_offset 4, -8
 5269              		.cfi_offset 14, -4
 5270 0026 0C46     		mov	r4, r1
1319:Middlewares/Third_Party/FreeRTOS/Source/CMSIS_RTOS_V2/cmsis_os2.c ****     stat = osErrorParameter;
1320:Middlewares/Third_Party/FreeRTOS/Source/CMSIS_RTOS_V2/cmsis_os2.c ****   }
1321:Middlewares/Third_Party/FreeRTOS/Source/CMSIS_RTOS_V2/cmsis_os2.c ****   else {
1322:Middlewares/Third_Party/FreeRTOS/Source/CMSIS_RTOS_V2/cmsis_os2.c ****     if (rmtx != 0U) {
 5271              		.loc 1 1322 0
 5272 0028 43B1     		cbz	r3, .L552
1323:Middlewares/Third_Party/FreeRTOS/Source/CMSIS_RTOS_V2/cmsis_os2.c ****       if (xSemaphoreTakeRecursive (hMutex, timeout) != pdPASS) {
 5273              		.loc 1 1323 0
 5274 002a 1046     		mov	r0, r2
 5275 002c FFF7FEFF 		bl	xQueueTakeMutexRecursive
 5276              	.LVL459:
 5277 0030 0128     		cmp	r0, #1
 5278 0032 15D0     		beq	.L556
1324:Middlewares/Third_Party/FreeRTOS/Source/CMSIS_RTOS_V2/cmsis_os2.c ****         if (timeout != 0U) {
 5279              		.loc 1 1324 0
 5280 0034 B4B1     		cbz	r4, .L557
1325:Middlewares/Third_Party/FreeRTOS/Source/CMSIS_RTOS_V2/cmsis_os2.c ****           stat = osErrorTimeout;
 5281              		.loc 1 1325 0
 5282 0036 6FF00100 		mvn	r0, #1
 5283 003a 10BD     		pop	{r4, pc}
 5284              	.LVL460:
 5285              	.L552:
1326:Middlewares/Third_Party/FreeRTOS/Source/CMSIS_RTOS_V2/cmsis_os2.c ****         } else {
1327:Middlewares/Third_Party/FreeRTOS/Source/CMSIS_RTOS_V2/cmsis_os2.c ****           stat = osErrorResource;
1328:Middlewares/Third_Party/FreeRTOS/Source/CMSIS_RTOS_V2/cmsis_os2.c ****         }
1329:Middlewares/Third_Party/FreeRTOS/Source/CMSIS_RTOS_V2/cmsis_os2.c ****       }
1330:Middlewares/Third_Party/FreeRTOS/Source/CMSIS_RTOS_V2/cmsis_os2.c ****     }
1331:Middlewares/Third_Party/FreeRTOS/Source/CMSIS_RTOS_V2/cmsis_os2.c ****     else {
1332:Middlewares/Third_Party/FreeRTOS/Source/CMSIS_RTOS_V2/cmsis_os2.c ****       if (xSemaphoreTake (hMutex, timeout) != pdPASS) {
 5286              		.loc 1 1332 0
 5287 003c 1046     		mov	r0, r2
 5288 003e FFF7FEFF 		bl	xQueueSemaphoreTake
 5289              	.LVL461:
 5290 0042 0128     		cmp	r0, #1
 5291 0044 11D0     		beq	.L558
1333:Middlewares/Third_Party/FreeRTOS/Source/CMSIS_RTOS_V2/cmsis_os2.c ****         if (timeout != 0U) {
 5292              		.loc 1 1333 0
 5293 0046 94B1     		cbz	r4, .L559
1334:Middlewares/Third_Party/FreeRTOS/Source/CMSIS_RTOS_V2/cmsis_os2.c ****           stat = osErrorTimeout;
 5294              		.loc 1 1334 0
 5295 0048 6FF00100 		mvn	r0, #1
 5296 004c 10BD     		pop	{r4, pc}
 5297              	.LVL462:
 5298              	.L553:
 5299              	.LCFI90:
 5300              		.cfi_def_cfa_offset 0
 5301              		.cfi_restore 4
 5302              		.cfi_restore 14
1316:Middlewares/Third_Party/FreeRTOS/Source/CMSIS_RTOS_V2/cmsis_os2.c ****   }
 5303              		.loc 1 1316 0
ARM GAS  /tmp/ccZrYRqG.s 			page 134


 5304 004e 6FF00500 		mvn	r0, #5
 5305 0052 7047     		bx	lr
 5306              	.L554:
 5307 0054 6FF00500 		mvn	r0, #5
 5308 0058 7047     		bx	lr
 5309              	.L555:
1319:Middlewares/Third_Party/FreeRTOS/Source/CMSIS_RTOS_V2/cmsis_os2.c ****   }
 5310              		.loc 1 1319 0
 5311 005a 6FF00300 		mvn	r0, #3
 5312 005e 7047     		bx	lr
 5313              	.LVL463:
 5314              	.L556:
 5315              	.LCFI91:
 5316              		.cfi_def_cfa_offset 8
 5317              		.cfi_offset 4, -8
 5318              		.cfi_offset 14, -4
1313:Middlewares/Third_Party/FreeRTOS/Source/CMSIS_RTOS_V2/cmsis_os2.c **** 
 5319              		.loc 1 1313 0
 5320 0060 0020     		movs	r0, #0
 5321 0062 10BD     		pop	{r4, pc}
 5322              	.LVL464:
 5323              	.L557:
1327:Middlewares/Third_Party/FreeRTOS/Source/CMSIS_RTOS_V2/cmsis_os2.c ****         }
 5324              		.loc 1 1327 0
 5325 0064 6FF00200 		mvn	r0, #2
 5326 0068 10BD     		pop	{r4, pc}
 5327              	.LVL465:
 5328              	.L558:
1313:Middlewares/Third_Party/FreeRTOS/Source/CMSIS_RTOS_V2/cmsis_os2.c **** 
 5329              		.loc 1 1313 0
 5330 006a 0020     		movs	r0, #0
 5331 006c 10BD     		pop	{r4, pc}
 5332              	.LVL466:
 5333              	.L559:
1335:Middlewares/Third_Party/FreeRTOS/Source/CMSIS_RTOS_V2/cmsis_os2.c ****         } else {
1336:Middlewares/Third_Party/FreeRTOS/Source/CMSIS_RTOS_V2/cmsis_os2.c ****           stat = osErrorResource;
 5334              		.loc 1 1336 0
 5335 006e 6FF00200 		mvn	r0, #2
 5336              	.LVL467:
1337:Middlewares/Third_Party/FreeRTOS/Source/CMSIS_RTOS_V2/cmsis_os2.c ****         }
1338:Middlewares/Third_Party/FreeRTOS/Source/CMSIS_RTOS_V2/cmsis_os2.c ****       }
1339:Middlewares/Third_Party/FreeRTOS/Source/CMSIS_RTOS_V2/cmsis_os2.c ****     }
1340:Middlewares/Third_Party/FreeRTOS/Source/CMSIS_RTOS_V2/cmsis_os2.c ****   }
1341:Middlewares/Third_Party/FreeRTOS/Source/CMSIS_RTOS_V2/cmsis_os2.c **** 
1342:Middlewares/Third_Party/FreeRTOS/Source/CMSIS_RTOS_V2/cmsis_os2.c ****   return (stat);
1343:Middlewares/Third_Party/FreeRTOS/Source/CMSIS_RTOS_V2/cmsis_os2.c **** }
 5337              		.loc 1 1343 0
 5338 0072 10BD     		pop	{r4, pc}
 5339              	.LVL468:
 5340              	.L565:
 5341              		.align	2
 5342              	.L564:
 5343 0074 00000000 		.word	.LANCHOR0
 5344              		.cfi_endproc
 5345              	.LFE152:
 5347              		.section	.text.osMutexRelease,"ax",%progbits
 5348              		.align	1
ARM GAS  /tmp/ccZrYRqG.s 			page 135


 5349              		.global	osMutexRelease
 5350              		.syntax unified
 5351              		.thumb
 5352              		.thumb_func
 5353              		.fpu fpv4-sp-d16
 5355              	osMutexRelease:
 5356              	.LFB153:
1344:Middlewares/Third_Party/FreeRTOS/Source/CMSIS_RTOS_V2/cmsis_os2.c **** 
1345:Middlewares/Third_Party/FreeRTOS/Source/CMSIS_RTOS_V2/cmsis_os2.c **** osStatus_t osMutexRelease (osMutexId_t mutex_id) {
 5357              		.loc 1 1345 0
 5358              		.cfi_startproc
 5359              		@ args = 0, pretend = 0, frame = 0
 5360              		@ frame_needed = 0, uses_anonymous_args = 0
 5361              	.LVL469:
 5362              	.LBB576:
 5363              	.LBB577:
 209:Drivers/CMSIS/Include/cmsis_gcc.h ****   return(result);
 5364              		.loc 2 209 0
 5365              		.syntax unified
 5366              	@ 209 "Drivers/CMSIS/Include/cmsis_gcc.h" 1
 5367 0000 EFF30582 		MRS r2, ipsr
 5368              	@ 0 "" 2
 5369              		.thumb
 5370              		.syntax unified
 5371              	.LBE577:
 5372              	.LBE576:
1346:Middlewares/Third_Party/FreeRTOS/Source/CMSIS_RTOS_V2/cmsis_os2.c ****   SemaphoreHandle_t hMutex;
1347:Middlewares/Third_Party/FreeRTOS/Source/CMSIS_RTOS_V2/cmsis_os2.c ****   osStatus_t stat;
1348:Middlewares/Third_Party/FreeRTOS/Source/CMSIS_RTOS_V2/cmsis_os2.c ****   uint32_t rmtx;
1349:Middlewares/Third_Party/FreeRTOS/Source/CMSIS_RTOS_V2/cmsis_os2.c **** 
1350:Middlewares/Third_Party/FreeRTOS/Source/CMSIS_RTOS_V2/cmsis_os2.c ****   hMutex = (SemaphoreHandle_t)((uint32_t)mutex_id & ~1U);
1351:Middlewares/Third_Party/FreeRTOS/Source/CMSIS_RTOS_V2/cmsis_os2.c **** 
1352:Middlewares/Third_Party/FreeRTOS/Source/CMSIS_RTOS_V2/cmsis_os2.c ****   rmtx = (uint32_t)mutex_id & 1U;
1353:Middlewares/Third_Party/FreeRTOS/Source/CMSIS_RTOS_V2/cmsis_os2.c **** 
1354:Middlewares/Third_Party/FreeRTOS/Source/CMSIS_RTOS_V2/cmsis_os2.c ****   stat = osOK;
1355:Middlewares/Third_Party/FreeRTOS/Source/CMSIS_RTOS_V2/cmsis_os2.c **** 
1356:Middlewares/Third_Party/FreeRTOS/Source/CMSIS_RTOS_V2/cmsis_os2.c ****   if (IS_IRQ()) {
 5373              		.loc 1 1356 0
 5374 0004 0ABB     		cbnz	r2, .L571
1345:Middlewares/Third_Party/FreeRTOS/Source/CMSIS_RTOS_V2/cmsis_os2.c ****   SemaphoreHandle_t hMutex;
 5375              		.loc 1 1345 0
 5376 0006 10B5     		push	{r4, lr}
 5377              	.LCFI92:
 5378              		.cfi_def_cfa_offset 8
 5379              		.cfi_offset 4, -8
 5380              		.cfi_offset 14, -4
 5381 0008 20F00104 		bic	r4, r0, #1
 5382              	.LVL470:
 5383 000c 00F00100 		and	r0, r0, #1
 5384              	.LVL471:
 5385              	.LBB578:
 5386              	.LBB579:
 386:Drivers/CMSIS/Include/cmsis_gcc.h ****   return(result);
 5387              		.loc 2 386 0
 5388              		.syntax unified
 5389              	@ 386 "Drivers/CMSIS/Include/cmsis_gcc.h" 1
 5390 0010 EFF31082 		MRS r2, primask
ARM GAS  /tmp/ccZrYRqG.s 			page 136


 5391              	@ 0 "" 2
 5392              		.thumb
 5393              		.syntax unified
 5394              	.LBE579:
 5395              	.LBE578:
 5396              		.loc 1 1356 0
 5397 0014 12B9     		cbnz	r2, .L568
 5398              	.LBB580:
 5399              	.LBB581:
 5400              		.loc 2 465 0
 5401              		.syntax unified
 5402              	@ 465 "Drivers/CMSIS/Include/cmsis_gcc.h" 1
 5403 0016 EFF31182 		MRS r2, basepri
 5404              	@ 0 "" 2
 5405              		.thumb
 5406              		.syntax unified
 5407              	.LBE581:
 5408              	.LBE580:
 5409              		.loc 1 1356 0
 5410 001a 1AB1     		cbz	r2, .L569
 5411              	.L568:
 5412              		.loc 1 1356 0 is_stmt 0 discriminator 4
 5413 001c 124A     		ldr	r2, .L580
 5414 001e 1268     		ldr	r2, [r2]
 5415 0020 022A     		cmp	r2, #2
 5416 0022 15D0     		beq	.L572
 5417              	.L569:
1357:Middlewares/Third_Party/FreeRTOS/Source/CMSIS_RTOS_V2/cmsis_os2.c ****     stat = osErrorISR;
1358:Middlewares/Third_Party/FreeRTOS/Source/CMSIS_RTOS_V2/cmsis_os2.c ****   }
1359:Middlewares/Third_Party/FreeRTOS/Source/CMSIS_RTOS_V2/cmsis_os2.c ****   else if (hMutex == NULL) {
 5418              		.loc 1 1359 0 is_stmt 1
 5419 0024 BCB1     		cbz	r4, .L573
1360:Middlewares/Third_Party/FreeRTOS/Source/CMSIS_RTOS_V2/cmsis_os2.c ****     stat = osErrorParameter;
1361:Middlewares/Third_Party/FreeRTOS/Source/CMSIS_RTOS_V2/cmsis_os2.c ****   }
1362:Middlewares/Third_Party/FreeRTOS/Source/CMSIS_RTOS_V2/cmsis_os2.c ****   else {
1363:Middlewares/Third_Party/FreeRTOS/Source/CMSIS_RTOS_V2/cmsis_os2.c ****     if (rmtx != 0U) {
 5420              		.loc 1 1363 0
 5421 0026 30B1     		cbz	r0, .L570
1364:Middlewares/Third_Party/FreeRTOS/Source/CMSIS_RTOS_V2/cmsis_os2.c ****       if (xSemaphoreGiveRecursive (hMutex) != pdPASS) {
 5422              		.loc 1 1364 0
 5423 0028 2046     		mov	r0, r4
 5424              	.LVL472:
 5425 002a FFF7FEFF 		bl	xQueueGiveMutexRecursive
 5426              	.LVL473:
 5427 002e 0128     		cmp	r0, #1
 5428 0030 14D1     		bne	.L574
1354:Middlewares/Third_Party/FreeRTOS/Source/CMSIS_RTOS_V2/cmsis_os2.c **** 
 5429              		.loc 1 1354 0
 5430 0032 0020     		movs	r0, #0
 5431 0034 10BD     		pop	{r4, pc}
 5432              	.LVL474:
 5433              	.L570:
1365:Middlewares/Third_Party/FreeRTOS/Source/CMSIS_RTOS_V2/cmsis_os2.c ****         stat = osErrorResource;
1366:Middlewares/Third_Party/FreeRTOS/Source/CMSIS_RTOS_V2/cmsis_os2.c ****       }
1367:Middlewares/Third_Party/FreeRTOS/Source/CMSIS_RTOS_V2/cmsis_os2.c ****     }
1368:Middlewares/Third_Party/FreeRTOS/Source/CMSIS_RTOS_V2/cmsis_os2.c ****     else {
1369:Middlewares/Third_Party/FreeRTOS/Source/CMSIS_RTOS_V2/cmsis_os2.c ****       if (xSemaphoreGive (hMutex) != pdPASS) {
ARM GAS  /tmp/ccZrYRqG.s 			page 137


 5434              		.loc 1 1369 0
 5435 0036 0023     		movs	r3, #0
 5436 0038 1A46     		mov	r2, r3
 5437 003a 1946     		mov	r1, r3
 5438 003c 2046     		mov	r0, r4
 5439              	.LVL475:
 5440 003e FFF7FEFF 		bl	xQueueGenericSend
 5441              	.LVL476:
 5442 0042 0128     		cmp	r0, #1
 5443 0044 0DD1     		bne	.L575
1354:Middlewares/Third_Party/FreeRTOS/Source/CMSIS_RTOS_V2/cmsis_os2.c **** 
 5444              		.loc 1 1354 0
 5445 0046 0020     		movs	r0, #0
 5446 0048 10BD     		pop	{r4, pc}
 5447              	.LVL477:
 5448              	.L571:
 5449              	.LCFI93:
 5450              		.cfi_def_cfa_offset 0
 5451              		.cfi_restore 4
 5452              		.cfi_restore 14
1357:Middlewares/Third_Party/FreeRTOS/Source/CMSIS_RTOS_V2/cmsis_os2.c ****   }
 5453              		.loc 1 1357 0
 5454 004a 6FF00500 		mvn	r0, #5
 5455              	.LVL478:
 5456 004e 7047     		bx	lr
 5457              	.LVL479:
 5458              	.L572:
 5459              	.LCFI94:
 5460              		.cfi_def_cfa_offset 8
 5461              		.cfi_offset 4, -8
 5462              		.cfi_offset 14, -4
 5463 0050 6FF00500 		mvn	r0, #5
 5464              	.LVL480:
 5465 0054 10BD     		pop	{r4, pc}
 5466              	.LVL481:
 5467              	.L573:
1360:Middlewares/Third_Party/FreeRTOS/Source/CMSIS_RTOS_V2/cmsis_os2.c ****   }
 5468              		.loc 1 1360 0
 5469 0056 6FF00300 		mvn	r0, #3
 5470              	.LVL482:
 5471 005a 10BD     		pop	{r4, pc}
 5472              	.LVL483:
 5473              	.L574:
1365:Middlewares/Third_Party/FreeRTOS/Source/CMSIS_RTOS_V2/cmsis_os2.c ****         stat = osErrorResource;
 5474              		.loc 1 1365 0
 5475 005c 6FF00200 		mvn	r0, #2
 5476 0060 10BD     		pop	{r4, pc}
 5477              	.LVL484:
 5478              	.L575:
1370:Middlewares/Third_Party/FreeRTOS/Source/CMSIS_RTOS_V2/cmsis_os2.c ****         stat = osErrorResource;
 5479              		.loc 1 1370 0
 5480 0062 6FF00200 		mvn	r0, #2
 5481              	.LVL485:
1371:Middlewares/Third_Party/FreeRTOS/Source/CMSIS_RTOS_V2/cmsis_os2.c ****       }
1372:Middlewares/Third_Party/FreeRTOS/Source/CMSIS_RTOS_V2/cmsis_os2.c ****     }
1373:Middlewares/Third_Party/FreeRTOS/Source/CMSIS_RTOS_V2/cmsis_os2.c ****   }
1374:Middlewares/Third_Party/FreeRTOS/Source/CMSIS_RTOS_V2/cmsis_os2.c **** 
ARM GAS  /tmp/ccZrYRqG.s 			page 138


1375:Middlewares/Third_Party/FreeRTOS/Source/CMSIS_RTOS_V2/cmsis_os2.c ****   return (stat);
1376:Middlewares/Third_Party/FreeRTOS/Source/CMSIS_RTOS_V2/cmsis_os2.c **** }
 5482              		.loc 1 1376 0
 5483 0066 10BD     		pop	{r4, pc}
 5484              	.LVL486:
 5485              	.L581:
 5486              		.align	2
 5487              	.L580:
 5488 0068 00000000 		.word	.LANCHOR0
 5489              		.cfi_endproc
 5490              	.LFE153:
 5492              		.section	.text.osMutexGetOwner,"ax",%progbits
 5493              		.align	1
 5494              		.global	osMutexGetOwner
 5495              		.syntax unified
 5496              		.thumb
 5497              		.thumb_func
 5498              		.fpu fpv4-sp-d16
 5500              	osMutexGetOwner:
 5501              	.LFB154:
1377:Middlewares/Third_Party/FreeRTOS/Source/CMSIS_RTOS_V2/cmsis_os2.c **** 
1378:Middlewares/Third_Party/FreeRTOS/Source/CMSIS_RTOS_V2/cmsis_os2.c **** osThreadId_t osMutexGetOwner (osMutexId_t mutex_id) {
 5502              		.loc 1 1378 0
 5503              		.cfi_startproc
 5504              		@ args = 0, pretend = 0, frame = 0
 5505              		@ frame_needed = 0, uses_anonymous_args = 0
 5506              	.LVL487:
 5507 0000 08B5     		push	{r3, lr}
 5508              	.LCFI95:
 5509              		.cfi_def_cfa_offset 8
 5510              		.cfi_offset 3, -8
 5511              		.cfi_offset 14, -4
 5512              	.LVL488:
 5513              	.LBB582:
 5514              	.LBB583:
 209:Drivers/CMSIS/Include/cmsis_gcc.h ****   return(result);
 5515              		.loc 2 209 0
 5516              		.syntax unified
 5517              	@ 209 "Drivers/CMSIS/Include/cmsis_gcc.h" 1
 5518 0002 EFF30583 		MRS r3, ipsr
 5519              	@ 0 "" 2
 5520              		.thumb
 5521              		.syntax unified
 5522              	.LBE583:
 5523              	.LBE582:
1379:Middlewares/Third_Party/FreeRTOS/Source/CMSIS_RTOS_V2/cmsis_os2.c ****   SemaphoreHandle_t hMutex;
1380:Middlewares/Third_Party/FreeRTOS/Source/CMSIS_RTOS_V2/cmsis_os2.c ****   osThreadId_t owner;
1381:Middlewares/Third_Party/FreeRTOS/Source/CMSIS_RTOS_V2/cmsis_os2.c **** 
1382:Middlewares/Third_Party/FreeRTOS/Source/CMSIS_RTOS_V2/cmsis_os2.c ****   hMutex = (SemaphoreHandle_t)((uint32_t)mutex_id & ~1U);
1383:Middlewares/Third_Party/FreeRTOS/Source/CMSIS_RTOS_V2/cmsis_os2.c **** 
1384:Middlewares/Third_Party/FreeRTOS/Source/CMSIS_RTOS_V2/cmsis_os2.c ****   if (IS_IRQ() || (hMutex == NULL)) {
 5524              		.loc 1 1384 0
 5525 0006 7BB9     		cbnz	r3, .L586
 5526 0008 20F00100 		bic	r0, r0, #1
 5527              	.LVL489:
 5528              	.LBB584:
 5529              	.LBB585:
ARM GAS  /tmp/ccZrYRqG.s 			page 139


 386:Drivers/CMSIS/Include/cmsis_gcc.h ****   return(result);
 5530              		.loc 2 386 0
 5531              		.syntax unified
 5532              	@ 386 "Drivers/CMSIS/Include/cmsis_gcc.h" 1
 5533 000c EFF31083 		MRS r3, primask
 5534              	@ 0 "" 2
 5535              		.thumb
 5536              		.syntax unified
 5537              	.LBE585:
 5538              	.LBE584:
 5539              		.loc 1 1384 0
 5540 0010 13B9     		cbnz	r3, .L584
 5541              	.LBB586:
 5542              	.LBB587:
 5543              		.loc 2 465 0
 5544              		.syntax unified
 5545              	@ 465 "Drivers/CMSIS/Include/cmsis_gcc.h" 1
 5546 0012 EFF31183 		MRS r3, basepri
 5547              	@ 0 "" 2
 5548              		.thumb
 5549              		.syntax unified
 5550              	.LBE587:
 5551              	.LBE586:
 5552              		.loc 1 1384 0
 5553 0016 1BB1     		cbz	r3, .L585
 5554              	.L584:
 5555              		.loc 1 1384 0 is_stmt 0 discriminator 4
 5556 0018 064B     		ldr	r3, .L590
 5557 001a 1B68     		ldr	r3, [r3]
 5558 001c 022B     		cmp	r3, #2
 5559 001e 05D0     		beq	.L587
 5560              	.L585:
 5561              		.loc 1 1384 0 discriminator 6
 5562 0020 30B1     		cbz	r0, .L588
1385:Middlewares/Third_Party/FreeRTOS/Source/CMSIS_RTOS_V2/cmsis_os2.c ****     owner = NULL;
1386:Middlewares/Third_Party/FreeRTOS/Source/CMSIS_RTOS_V2/cmsis_os2.c ****   } else {
1387:Middlewares/Third_Party/FreeRTOS/Source/CMSIS_RTOS_V2/cmsis_os2.c ****     owner = (osThreadId_t)xSemaphoreGetMutexHolder (hMutex);
 5563              		.loc 1 1387 0 is_stmt 1
 5564 0022 FFF7FEFF 		bl	xQueueGetMutexHolder
 5565              	.LVL490:
 5566 0026 08BD     		pop	{r3, pc}
 5567              	.LVL491:
 5568              	.L586:
1385:Middlewares/Third_Party/FreeRTOS/Source/CMSIS_RTOS_V2/cmsis_os2.c ****     owner = NULL;
 5569              		.loc 1 1385 0
 5570 0028 0020     		movs	r0, #0
 5571              	.LVL492:
 5572 002a 08BD     		pop	{r3, pc}
 5573              	.LVL493:
 5574              	.L587:
 5575 002c 0020     		movs	r0, #0
 5576              	.LVL494:
 5577 002e 08BD     		pop	{r3, pc}
 5578              	.LVL495:
 5579              	.L588:
 5580 0030 0020     		movs	r0, #0
 5581              	.LVL496:
ARM GAS  /tmp/ccZrYRqG.s 			page 140


1388:Middlewares/Third_Party/FreeRTOS/Source/CMSIS_RTOS_V2/cmsis_os2.c ****   }
1389:Middlewares/Third_Party/FreeRTOS/Source/CMSIS_RTOS_V2/cmsis_os2.c **** 
1390:Middlewares/Third_Party/FreeRTOS/Source/CMSIS_RTOS_V2/cmsis_os2.c ****   return (owner);
1391:Middlewares/Third_Party/FreeRTOS/Source/CMSIS_RTOS_V2/cmsis_os2.c **** }
 5582              		.loc 1 1391 0
 5583 0032 08BD     		pop	{r3, pc}
 5584              	.L591:
 5585              		.align	2
 5586              	.L590:
 5587 0034 00000000 		.word	.LANCHOR0
 5588              		.cfi_endproc
 5589              	.LFE154:
 5591              		.section	.text.osMutexDelete,"ax",%progbits
 5592              		.align	1
 5593              		.global	osMutexDelete
 5594              		.syntax unified
 5595              		.thumb
 5596              		.thumb_func
 5597              		.fpu fpv4-sp-d16
 5599              	osMutexDelete:
 5600              	.LFB155:
1392:Middlewares/Third_Party/FreeRTOS/Source/CMSIS_RTOS_V2/cmsis_os2.c **** 
1393:Middlewares/Third_Party/FreeRTOS/Source/CMSIS_RTOS_V2/cmsis_os2.c **** osStatus_t osMutexDelete (osMutexId_t mutex_id) {
 5601              		.loc 1 1393 0
 5602              		.cfi_startproc
 5603              		@ args = 0, pretend = 0, frame = 0
 5604              		@ frame_needed = 0, uses_anonymous_args = 0
 5605              	.LVL497:
 5606              	.LBB588:
 5607              	.LBB589:
 209:Drivers/CMSIS/Include/cmsis_gcc.h ****   return(result);
 5608              		.loc 2 209 0
 5609              		.syntax unified
 5610              	@ 209 "Drivers/CMSIS/Include/cmsis_gcc.h" 1
 5611 0000 EFF30583 		MRS r3, ipsr
 5612              	@ 0 "" 2
 5613              		.thumb
 5614              		.syntax unified
 5615              	.LBE589:
 5616              	.LBE588:
1394:Middlewares/Third_Party/FreeRTOS/Source/CMSIS_RTOS_V2/cmsis_os2.c ****   osStatus_t stat;
1395:Middlewares/Third_Party/FreeRTOS/Source/CMSIS_RTOS_V2/cmsis_os2.c **** #ifndef USE_FreeRTOS_HEAP_1
1396:Middlewares/Third_Party/FreeRTOS/Source/CMSIS_RTOS_V2/cmsis_os2.c ****   SemaphoreHandle_t hMutex;
1397:Middlewares/Third_Party/FreeRTOS/Source/CMSIS_RTOS_V2/cmsis_os2.c **** 
1398:Middlewares/Third_Party/FreeRTOS/Source/CMSIS_RTOS_V2/cmsis_os2.c ****   hMutex = (SemaphoreHandle_t)((uint32_t)mutex_id & ~1U);
1399:Middlewares/Third_Party/FreeRTOS/Source/CMSIS_RTOS_V2/cmsis_os2.c **** 
1400:Middlewares/Third_Party/FreeRTOS/Source/CMSIS_RTOS_V2/cmsis_os2.c ****   if (IS_IRQ()) {
 5617              		.loc 1 1400 0
 5618 0004 ABB9     		cbnz	r3, .L596
1393:Middlewares/Third_Party/FreeRTOS/Source/CMSIS_RTOS_V2/cmsis_os2.c ****   osStatus_t stat;
 5619              		.loc 1 1393 0
 5620 0006 10B5     		push	{r4, lr}
 5621              	.LCFI96:
 5622              		.cfi_def_cfa_offset 8
 5623              		.cfi_offset 4, -8
 5624              		.cfi_offset 14, -4
 5625 0008 20F00104 		bic	r4, r0, #1
ARM GAS  /tmp/ccZrYRqG.s 			page 141


 5626              	.LVL498:
 5627              	.LBB590:
 5628              	.LBB591:
 386:Drivers/CMSIS/Include/cmsis_gcc.h ****   return(result);
 5629              		.loc 2 386 0
 5630              		.syntax unified
 5631              	@ 386 "Drivers/CMSIS/Include/cmsis_gcc.h" 1
 5632 000c EFF31083 		MRS r3, primask
 5633              	@ 0 "" 2
 5634              		.thumb
 5635              		.syntax unified
 5636              	.LBE591:
 5637              	.LBE590:
 5638              		.loc 1 1400 0
 5639 0010 13B9     		cbnz	r3, .L594
 5640              	.LBB592:
 5641              	.LBB593:
 5642              		.loc 2 465 0
 5643              		.syntax unified
 5644              	@ 465 "Drivers/CMSIS/Include/cmsis_gcc.h" 1
 5645 0012 EFF31183 		MRS r3, basepri
 5646              	@ 0 "" 2
 5647              		.thumb
 5648              		.syntax unified
 5649              	.LBE593:
 5650              	.LBE592:
 5651              		.loc 1 1400 0
 5652 0016 1BB1     		cbz	r3, .L595
 5653              	.L594:
 5654              		.loc 1 1400 0 is_stmt 0 discriminator 4
 5655 0018 0A4B     		ldr	r3, .L603
 5656 001a 1B68     		ldr	r3, [r3]
 5657 001c 022B     		cmp	r3, #2
 5658 001e 0BD0     		beq	.L597
 5659              	.L595:
1401:Middlewares/Third_Party/FreeRTOS/Source/CMSIS_RTOS_V2/cmsis_os2.c ****     stat = osErrorISR;
1402:Middlewares/Third_Party/FreeRTOS/Source/CMSIS_RTOS_V2/cmsis_os2.c ****   }
1403:Middlewares/Third_Party/FreeRTOS/Source/CMSIS_RTOS_V2/cmsis_os2.c ****   else if (hMutex == NULL) {
 5660              		.loc 1 1403 0 is_stmt 1
 5661 0020 6CB1     		cbz	r4, .L598
1404:Middlewares/Third_Party/FreeRTOS/Source/CMSIS_RTOS_V2/cmsis_os2.c ****     stat = osErrorParameter;
1405:Middlewares/Third_Party/FreeRTOS/Source/CMSIS_RTOS_V2/cmsis_os2.c ****   }
1406:Middlewares/Third_Party/FreeRTOS/Source/CMSIS_RTOS_V2/cmsis_os2.c ****   else {
1407:Middlewares/Third_Party/FreeRTOS/Source/CMSIS_RTOS_V2/cmsis_os2.c ****     #if (configQUEUE_REGISTRY_SIZE > 0)
1408:Middlewares/Third_Party/FreeRTOS/Source/CMSIS_RTOS_V2/cmsis_os2.c ****     vQueueUnregisterQueue (hMutex);
 5662              		.loc 1 1408 0
 5663 0022 2046     		mov	r0, r4
 5664              	.LVL499:
 5665 0024 FFF7FEFF 		bl	vQueueUnregisterQueue
 5666              	.LVL500:
1409:Middlewares/Third_Party/FreeRTOS/Source/CMSIS_RTOS_V2/cmsis_os2.c ****     #endif
1410:Middlewares/Third_Party/FreeRTOS/Source/CMSIS_RTOS_V2/cmsis_os2.c ****     stat = osOK;
1411:Middlewares/Third_Party/FreeRTOS/Source/CMSIS_RTOS_V2/cmsis_os2.c ****     vSemaphoreDelete (hMutex);
 5667              		.loc 1 1411 0
 5668 0028 2046     		mov	r0, r4
 5669 002a FFF7FEFF 		bl	vQueueDelete
 5670              	.LVL501:
ARM GAS  /tmp/ccZrYRqG.s 			page 142


1410:Middlewares/Third_Party/FreeRTOS/Source/CMSIS_RTOS_V2/cmsis_os2.c ****     vSemaphoreDelete (hMutex);
 5671              		.loc 1 1410 0
 5672 002e 0020     		movs	r0, #0
 5673 0030 10BD     		pop	{r4, pc}
 5674              	.LVL502:
 5675              	.L596:
 5676              	.LCFI97:
 5677              		.cfi_def_cfa_offset 0
 5678              		.cfi_restore 4
 5679              		.cfi_restore 14
1401:Middlewares/Third_Party/FreeRTOS/Source/CMSIS_RTOS_V2/cmsis_os2.c ****   }
 5680              		.loc 1 1401 0
 5681 0032 6FF00500 		mvn	r0, #5
 5682              	.LVL503:
 5683 0036 7047     		bx	lr
 5684              	.LVL504:
 5685              	.L597:
 5686              	.LCFI98:
 5687              		.cfi_def_cfa_offset 8
 5688              		.cfi_offset 4, -8
 5689              		.cfi_offset 14, -4
 5690 0038 6FF00500 		mvn	r0, #5
 5691              	.LVL505:
 5692 003c 10BD     		pop	{r4, pc}
 5693              	.LVL506:
 5694              	.L598:
1404:Middlewares/Third_Party/FreeRTOS/Source/CMSIS_RTOS_V2/cmsis_os2.c ****   }
 5695              		.loc 1 1404 0
 5696 003e 6FF00300 		mvn	r0, #3
 5697              	.LVL507:
1412:Middlewares/Third_Party/FreeRTOS/Source/CMSIS_RTOS_V2/cmsis_os2.c ****   }
1413:Middlewares/Third_Party/FreeRTOS/Source/CMSIS_RTOS_V2/cmsis_os2.c **** #else
1414:Middlewares/Third_Party/FreeRTOS/Source/CMSIS_RTOS_V2/cmsis_os2.c ****   stat = osError;
1415:Middlewares/Third_Party/FreeRTOS/Source/CMSIS_RTOS_V2/cmsis_os2.c **** #endif
1416:Middlewares/Third_Party/FreeRTOS/Source/CMSIS_RTOS_V2/cmsis_os2.c **** 
1417:Middlewares/Third_Party/FreeRTOS/Source/CMSIS_RTOS_V2/cmsis_os2.c ****   return (stat);
1418:Middlewares/Third_Party/FreeRTOS/Source/CMSIS_RTOS_V2/cmsis_os2.c **** }
 5698              		.loc 1 1418 0
 5699 0042 10BD     		pop	{r4, pc}
 5700              	.LVL508:
 5701              	.L604:
 5702              		.align	2
 5703              	.L603:
 5704 0044 00000000 		.word	.LANCHOR0
 5705              		.cfi_endproc
 5706              	.LFE155:
 5708              		.section	.text.osSemaphoreNew,"ax",%progbits
 5709              		.align	1
 5710              		.global	osSemaphoreNew
 5711              		.syntax unified
 5712              		.thumb
 5713              		.thumb_func
 5714              		.fpu fpv4-sp-d16
 5716              	osSemaphoreNew:
 5717              	.LFB156:
1419:Middlewares/Third_Party/FreeRTOS/Source/CMSIS_RTOS_V2/cmsis_os2.c **** 
1420:Middlewares/Third_Party/FreeRTOS/Source/CMSIS_RTOS_V2/cmsis_os2.c **** /*---------------------------------------------------------------------------*/
ARM GAS  /tmp/ccZrYRqG.s 			page 143


1421:Middlewares/Third_Party/FreeRTOS/Source/CMSIS_RTOS_V2/cmsis_os2.c **** 
1422:Middlewares/Third_Party/FreeRTOS/Source/CMSIS_RTOS_V2/cmsis_os2.c **** osSemaphoreId_t osSemaphoreNew (uint32_t max_count, uint32_t initial_count, const osSemaphoreAttr_t
 5718              		.loc 1 1422 0
 5719              		.cfi_startproc
 5720              		@ args = 0, pretend = 0, frame = 0
 5721              		@ frame_needed = 0, uses_anonymous_args = 0
 5722              	.LVL509:
 5723 0000 70B5     		push	{r4, r5, r6, lr}
 5724              	.LCFI99:
 5725              		.cfi_def_cfa_offset 16
 5726              		.cfi_offset 4, -16
 5727              		.cfi_offset 5, -12
 5728              		.cfi_offset 6, -8
 5729              		.cfi_offset 14, -4
 5730 0002 82B0     		sub	sp, sp, #8
 5731              	.LCFI100:
 5732              		.cfi_def_cfa_offset 24
 5733              	.LVL510:
 5734              	.LBB594:
 5735              	.LBB595:
 209:Drivers/CMSIS/Include/cmsis_gcc.h ****   return(result);
 5736              		.loc 2 209 0
 5737              		.syntax unified
 5738              	@ 209 "Drivers/CMSIS/Include/cmsis_gcc.h" 1
 5739 0004 EFF30583 		MRS r3, ipsr
 5740              	@ 0 "" 2
 5741              		.thumb
 5742              		.syntax unified
 5743              	.LBE595:
 5744              	.LBE594:
1423:Middlewares/Third_Party/FreeRTOS/Source/CMSIS_RTOS_V2/cmsis_os2.c ****   SemaphoreHandle_t hSemaphore;
1424:Middlewares/Third_Party/FreeRTOS/Source/CMSIS_RTOS_V2/cmsis_os2.c ****   int32_t mem;
1425:Middlewares/Third_Party/FreeRTOS/Source/CMSIS_RTOS_V2/cmsis_os2.c ****   #if (configQUEUE_REGISTRY_SIZE > 0)
1426:Middlewares/Third_Party/FreeRTOS/Source/CMSIS_RTOS_V2/cmsis_os2.c ****   const char *name;
1427:Middlewares/Third_Party/FreeRTOS/Source/CMSIS_RTOS_V2/cmsis_os2.c ****   #endif
1428:Middlewares/Third_Party/FreeRTOS/Source/CMSIS_RTOS_V2/cmsis_os2.c **** 
1429:Middlewares/Third_Party/FreeRTOS/Source/CMSIS_RTOS_V2/cmsis_os2.c ****   hSemaphore = NULL;
1430:Middlewares/Third_Party/FreeRTOS/Source/CMSIS_RTOS_V2/cmsis_os2.c **** 
1431:Middlewares/Third_Party/FreeRTOS/Source/CMSIS_RTOS_V2/cmsis_os2.c ****   if (!IS_IRQ() && (max_count > 0U) && (initial_count <= max_count)) {
 5745              		.loc 1 1431 0
 5746 0008 002B     		cmp	r3, #0
 5747 000a 60D1     		bne	.L617
 5748              	.LBB596:
 5749              	.LBB597:
 386:Drivers/CMSIS/Include/cmsis_gcc.h ****   return(result);
 5750              		.loc 2 386 0
 5751              		.syntax unified
 5752              	@ 386 "Drivers/CMSIS/Include/cmsis_gcc.h" 1
 5753 000c EFF31083 		MRS r3, primask
 5754              	@ 0 "" 2
 5755              		.thumb
 5756              		.syntax unified
 5757              	.LBE597:
 5758              	.LBE596:
 5759              		.loc 1 1431 0
 5760 0010 13B9     		cbnz	r3, .L607
 5761              	.LBB598:
ARM GAS  /tmp/ccZrYRqG.s 			page 144


 5762              	.LBB599:
 5763              		.loc 2 465 0
 5764              		.syntax unified
 5765              	@ 465 "Drivers/CMSIS/Include/cmsis_gcc.h" 1
 5766 0012 EFF31183 		MRS r3, basepri
 5767              	@ 0 "" 2
 5768              		.thumb
 5769              		.syntax unified
 5770              	.LBE599:
 5771              	.LBE598:
 5772              		.loc 1 1431 0
 5773 0016 1BB1     		cbz	r3, .L608
 5774              	.L607:
 5775              		.loc 1 1431 0 is_stmt 0 discriminator 5
 5776 0018 324B     		ldr	r3, .L632
 5777 001a 1B68     		ldr	r3, [r3]
 5778 001c 022B     		cmp	r3, #2
 5779 001e 58D0     		beq	.L618
 5780              	.L608:
 5781              		.loc 1 1431 0 discriminator 6
 5782 0020 0028     		cmp	r0, #0
 5783 0022 58D0     		beq	.L619
 5784              		.loc 1 1431 0 discriminator 7
 5785 0024 8842     		cmp	r0, r1
 5786 0026 58D3     		bcc	.L620
 5787              	.LVL511:
1432:Middlewares/Third_Party/FreeRTOS/Source/CMSIS_RTOS_V2/cmsis_os2.c ****     mem = -1;
1433:Middlewares/Third_Party/FreeRTOS/Source/CMSIS_RTOS_V2/cmsis_os2.c **** 
1434:Middlewares/Third_Party/FreeRTOS/Source/CMSIS_RTOS_V2/cmsis_os2.c ****     if (attr != NULL) {
 5788              		.loc 1 1434 0 is_stmt 1
 5789 0028 12B3     		cbz	r2, .L621
1435:Middlewares/Third_Party/FreeRTOS/Source/CMSIS_RTOS_V2/cmsis_os2.c ****       if ((attr->cb_mem != NULL) && (attr->cb_size >= sizeof(StaticSemaphore_t))) {
 5790              		.loc 1 1435 0
 5791 002a 9368     		ldr	r3, [r2, #8]
 5792 002c 13B1     		cbz	r3, .L610
 5793              		.loc 1 1435 0 is_stmt 0 discriminator 1
 5794 002e D468     		ldr	r4, [r2, #12]
 5795 0030 4F2C     		cmp	r4, #79
 5796 0032 1FD8     		bhi	.L622
 5797              	.L610:
1436:Middlewares/Third_Party/FreeRTOS/Source/CMSIS_RTOS_V2/cmsis_os2.c ****         mem = 1;
1437:Middlewares/Third_Party/FreeRTOS/Source/CMSIS_RTOS_V2/cmsis_os2.c ****       }
1438:Middlewares/Third_Party/FreeRTOS/Source/CMSIS_RTOS_V2/cmsis_os2.c ****       else {
1439:Middlewares/Third_Party/FreeRTOS/Source/CMSIS_RTOS_V2/cmsis_os2.c ****         if ((attr->cb_mem == NULL) && (attr->cb_size == 0U)) {
 5798              		.loc 1 1439 0 is_stmt 1
 5799 0034 BBB1     		cbz	r3, .L628
1432:Middlewares/Third_Party/FreeRTOS/Source/CMSIS_RTOS_V2/cmsis_os2.c **** 
 5800              		.loc 1 1432 0
 5801 0036 4FF0FF33 		mov	r3, #-1
 5802              	.L609:
 5803              	.LVL512:
1440:Middlewares/Third_Party/FreeRTOS/Source/CMSIS_RTOS_V2/cmsis_os2.c ****           mem = 0;
1441:Middlewares/Third_Party/FreeRTOS/Source/CMSIS_RTOS_V2/cmsis_os2.c ****         }
1442:Middlewares/Third_Party/FreeRTOS/Source/CMSIS_RTOS_V2/cmsis_os2.c ****       }
1443:Middlewares/Third_Party/FreeRTOS/Source/CMSIS_RTOS_V2/cmsis_os2.c ****     }
1444:Middlewares/Third_Party/FreeRTOS/Source/CMSIS_RTOS_V2/cmsis_os2.c ****     else {
1445:Middlewares/Third_Party/FreeRTOS/Source/CMSIS_RTOS_V2/cmsis_os2.c ****       mem = 0;
ARM GAS  /tmp/ccZrYRqG.s 			page 145


1446:Middlewares/Third_Party/FreeRTOS/Source/CMSIS_RTOS_V2/cmsis_os2.c ****     }
1447:Middlewares/Third_Party/FreeRTOS/Source/CMSIS_RTOS_V2/cmsis_os2.c **** 
1448:Middlewares/Third_Party/FreeRTOS/Source/CMSIS_RTOS_V2/cmsis_os2.c ****     if (mem != -1) {
 5804              		.loc 1 1448 0
 5805 003a B3F1FF3F 		cmp	r3, #-1
 5806 003e 4ED0     		beq	.L625
 5807 0040 1446     		mov	r4, r2
 5808 0042 0D46     		mov	r5, r1
1449:Middlewares/Third_Party/FreeRTOS/Source/CMSIS_RTOS_V2/cmsis_os2.c ****       if (max_count == 1U) {
 5809              		.loc 1 1449 0
 5810 0044 0128     		cmp	r0, #1
 5811 0046 19D0     		beq	.L629
1450:Middlewares/Third_Party/FreeRTOS/Source/CMSIS_RTOS_V2/cmsis_os2.c ****         if (mem == 1) {
1451:Middlewares/Third_Party/FreeRTOS/Source/CMSIS_RTOS_V2/cmsis_os2.c ****           hSemaphore = xSemaphoreCreateBinaryStatic ((StaticSemaphore_t *)attr->cb_mem);
1452:Middlewares/Third_Party/FreeRTOS/Source/CMSIS_RTOS_V2/cmsis_os2.c ****         }
1453:Middlewares/Third_Party/FreeRTOS/Source/CMSIS_RTOS_V2/cmsis_os2.c ****         else {
1454:Middlewares/Third_Party/FreeRTOS/Source/CMSIS_RTOS_V2/cmsis_os2.c ****           hSemaphore = xSemaphoreCreateBinary();
1455:Middlewares/Third_Party/FreeRTOS/Source/CMSIS_RTOS_V2/cmsis_os2.c ****         }
1456:Middlewares/Third_Party/FreeRTOS/Source/CMSIS_RTOS_V2/cmsis_os2.c **** 
1457:Middlewares/Third_Party/FreeRTOS/Source/CMSIS_RTOS_V2/cmsis_os2.c ****         if ((hSemaphore != NULL) && (initial_count != 0U)) {
1458:Middlewares/Third_Party/FreeRTOS/Source/CMSIS_RTOS_V2/cmsis_os2.c ****           if (xSemaphoreGive (hSemaphore) != pdPASS) {
1459:Middlewares/Third_Party/FreeRTOS/Source/CMSIS_RTOS_V2/cmsis_os2.c ****             vSemaphoreDelete (hSemaphore);
1460:Middlewares/Third_Party/FreeRTOS/Source/CMSIS_RTOS_V2/cmsis_os2.c ****             hSemaphore = NULL;
1461:Middlewares/Third_Party/FreeRTOS/Source/CMSIS_RTOS_V2/cmsis_os2.c ****           }
1462:Middlewares/Third_Party/FreeRTOS/Source/CMSIS_RTOS_V2/cmsis_os2.c ****         }
1463:Middlewares/Third_Party/FreeRTOS/Source/CMSIS_RTOS_V2/cmsis_os2.c ****       }
1464:Middlewares/Third_Party/FreeRTOS/Source/CMSIS_RTOS_V2/cmsis_os2.c ****       else {
1465:Middlewares/Third_Party/FreeRTOS/Source/CMSIS_RTOS_V2/cmsis_os2.c ****         if (mem == 1) {
 5812              		.loc 1 1465 0
 5813 0048 012B     		cmp	r3, #1
 5814 004a 39D0     		beq	.L630
1466:Middlewares/Third_Party/FreeRTOS/Source/CMSIS_RTOS_V2/cmsis_os2.c ****           hSemaphore = xSemaphoreCreateCountingStatic (max_count, initial_count, (StaticSemaphore_t
1467:Middlewares/Third_Party/FreeRTOS/Source/CMSIS_RTOS_V2/cmsis_os2.c ****         }
1468:Middlewares/Third_Party/FreeRTOS/Source/CMSIS_RTOS_V2/cmsis_os2.c ****         else {
1469:Middlewares/Third_Party/FreeRTOS/Source/CMSIS_RTOS_V2/cmsis_os2.c ****           hSemaphore = xSemaphoreCreateCounting (max_count, initial_count);
 5815              		.loc 1 1469 0
 5816 004c FFF7FEFF 		bl	xQueueCreateCountingSemaphore
 5817              	.LVL513:
 5818 0050 0646     		mov	r6, r0
 5819              	.LVL514:
 5820              	.L614:
1470:Middlewares/Third_Party/FreeRTOS/Source/CMSIS_RTOS_V2/cmsis_os2.c ****         }
1471:Middlewares/Third_Party/FreeRTOS/Source/CMSIS_RTOS_V2/cmsis_os2.c ****       }
1472:Middlewares/Third_Party/FreeRTOS/Source/CMSIS_RTOS_V2/cmsis_os2.c ****       
1473:Middlewares/Third_Party/FreeRTOS/Source/CMSIS_RTOS_V2/cmsis_os2.c ****       #if (configQUEUE_REGISTRY_SIZE > 0)
1474:Middlewares/Third_Party/FreeRTOS/Source/CMSIS_RTOS_V2/cmsis_os2.c ****       if (hSemaphore != NULL) {
 5821              		.loc 1 1474 0
 5822 0052 2EB1     		cbz	r6, .L606
1475:Middlewares/Third_Party/FreeRTOS/Source/CMSIS_RTOS_V2/cmsis_os2.c ****         if (attr != NULL) {
 5823              		.loc 1 1475 0
 5824 0054 002C     		cmp	r4, #0
 5825 0056 38D0     		beq	.L626
1476:Middlewares/Third_Party/FreeRTOS/Source/CMSIS_RTOS_V2/cmsis_os2.c ****           name = attr->name;
 5826              		.loc 1 1476 0
 5827 0058 2168     		ldr	r1, [r4]
 5828              	.LVL515:
 5829              	.L616:
ARM GAS  /tmp/ccZrYRqG.s 			page 146


1477:Middlewares/Third_Party/FreeRTOS/Source/CMSIS_RTOS_V2/cmsis_os2.c ****         } else {
1478:Middlewares/Third_Party/FreeRTOS/Source/CMSIS_RTOS_V2/cmsis_os2.c ****           name = NULL;
1479:Middlewares/Third_Party/FreeRTOS/Source/CMSIS_RTOS_V2/cmsis_os2.c ****         }
1480:Middlewares/Third_Party/FreeRTOS/Source/CMSIS_RTOS_V2/cmsis_os2.c ****         vQueueAddToRegistry (hSemaphore, name);
 5830              		.loc 1 1480 0
 5831 005a 3046     		mov	r0, r6
 5832 005c FFF7FEFF 		bl	vQueueAddToRegistry
 5833              	.LVL516:
 5834              	.L606:
1481:Middlewares/Third_Party/FreeRTOS/Source/CMSIS_RTOS_V2/cmsis_os2.c ****       }
1482:Middlewares/Third_Party/FreeRTOS/Source/CMSIS_RTOS_V2/cmsis_os2.c ****       #endif
1483:Middlewares/Third_Party/FreeRTOS/Source/CMSIS_RTOS_V2/cmsis_os2.c ****     }
1484:Middlewares/Third_Party/FreeRTOS/Source/CMSIS_RTOS_V2/cmsis_os2.c ****   }
1485:Middlewares/Third_Party/FreeRTOS/Source/CMSIS_RTOS_V2/cmsis_os2.c **** 
1486:Middlewares/Third_Party/FreeRTOS/Source/CMSIS_RTOS_V2/cmsis_os2.c ****   return ((osSemaphoreId_t)hSemaphore);
1487:Middlewares/Third_Party/FreeRTOS/Source/CMSIS_RTOS_V2/cmsis_os2.c **** }
 5835              		.loc 1 1487 0
 5836 0060 3046     		mov	r0, r6
 5837 0062 02B0     		add	sp, sp, #8
 5838              	.LCFI101:
 5839              		.cfi_remember_state
 5840              		.cfi_def_cfa_offset 16
 5841              		@ sp needed
 5842 0064 70BD     		pop	{r4, r5, r6, pc}
 5843              	.LVL517:
 5844              	.L628:
 5845              	.LCFI102:
 5846              		.cfi_restore_state
1439:Middlewares/Third_Party/FreeRTOS/Source/CMSIS_RTOS_V2/cmsis_os2.c ****           mem = 0;
 5847              		.loc 1 1439 0 discriminator 1
 5848 0066 D368     		ldr	r3, [r2, #12]
 5849 0068 33B1     		cbz	r3, .L624
1432:Middlewares/Third_Party/FreeRTOS/Source/CMSIS_RTOS_V2/cmsis_os2.c **** 
 5850              		.loc 1 1432 0
 5851 006a 4FF0FF33 		mov	r3, #-1
 5852 006e E4E7     		b	.L609
 5853              	.L621:
1445:Middlewares/Third_Party/FreeRTOS/Source/CMSIS_RTOS_V2/cmsis_os2.c ****     }
 5854              		.loc 1 1445 0
 5855 0070 0023     		movs	r3, #0
 5856 0072 E2E7     		b	.L609
 5857              	.L622:
1436:Middlewares/Third_Party/FreeRTOS/Source/CMSIS_RTOS_V2/cmsis_os2.c ****       }
 5858              		.loc 1 1436 0
 5859 0074 0123     		movs	r3, #1
 5860 0076 E0E7     		b	.L609
 5861              	.L624:
1440:Middlewares/Third_Party/FreeRTOS/Source/CMSIS_RTOS_V2/cmsis_os2.c ****         }
 5862              		.loc 1 1440 0
 5863 0078 0023     		movs	r3, #0
 5864 007a DEE7     		b	.L609
 5865              	.LVL518:
 5866              	.L629:
1450:Middlewares/Third_Party/FreeRTOS/Source/CMSIS_RTOS_V2/cmsis_os2.c ****           hSemaphore = xSemaphoreCreateBinaryStatic ((StaticSemaphore_t *)attr->cb_mem);
 5867              		.loc 1 1450 0
 5868 007c 012B     		cmp	r3, #1
 5869 007e 16D0     		beq	.L631
ARM GAS  /tmp/ccZrYRqG.s 			page 147


1454:Middlewares/Third_Party/FreeRTOS/Source/CMSIS_RTOS_V2/cmsis_os2.c ****         }
 5870              		.loc 1 1454 0
 5871 0080 0322     		movs	r2, #3
 5872              	.LVL519:
 5873 0082 0021     		movs	r1, #0
 5874              	.LVL520:
 5875 0084 0120     		movs	r0, #1
 5876              	.LVL521:
 5877 0086 FFF7FEFF 		bl	xQueueGenericCreate
 5878              	.LVL522:
 5879 008a 0646     		mov	r6, r0
 5880              	.LVL523:
 5881              	.L613:
1457:Middlewares/Third_Party/FreeRTOS/Source/CMSIS_RTOS_V2/cmsis_os2.c ****           if (xSemaphoreGive (hSemaphore) != pdPASS) {
 5882              		.loc 1 1457 0
 5883 008c 002E     		cmp	r6, #0
 5884 008e E0D0     		beq	.L614
1457:Middlewares/Third_Party/FreeRTOS/Source/CMSIS_RTOS_V2/cmsis_os2.c ****           if (xSemaphoreGive (hSemaphore) != pdPASS) {
 5885              		.loc 1 1457 0 is_stmt 0 discriminator 1
 5886 0090 002D     		cmp	r5, #0
 5887 0092 DED0     		beq	.L614
1458:Middlewares/Third_Party/FreeRTOS/Source/CMSIS_RTOS_V2/cmsis_os2.c ****             vSemaphoreDelete (hSemaphore);
 5888              		.loc 1 1458 0 is_stmt 1
 5889 0094 0023     		movs	r3, #0
 5890 0096 1A46     		mov	r2, r3
 5891 0098 1946     		mov	r1, r3
 5892 009a 3046     		mov	r0, r6
 5893 009c FFF7FEFF 		bl	xQueueGenericSend
 5894              	.LVL524:
 5895 00a0 0128     		cmp	r0, #1
 5896 00a2 D6D0     		beq	.L614
1459:Middlewares/Third_Party/FreeRTOS/Source/CMSIS_RTOS_V2/cmsis_os2.c ****             hSemaphore = NULL;
 5897              		.loc 1 1459 0
 5898 00a4 3046     		mov	r0, r6
 5899 00a6 FFF7FEFF 		bl	vQueueDelete
 5900              	.LVL525:
1460:Middlewares/Third_Party/FreeRTOS/Source/CMSIS_RTOS_V2/cmsis_os2.c ****           }
 5901              		.loc 1 1460 0
 5902 00aa 0026     		movs	r6, #0
 5903 00ac D1E7     		b	.L614
 5904              	.LVL526:
 5905              	.L631:
1451:Middlewares/Third_Party/FreeRTOS/Source/CMSIS_RTOS_V2/cmsis_os2.c ****         }
 5906              		.loc 1 1451 0
 5907 00ae 0323     		movs	r3, #3
 5908              	.LVL527:
 5909 00b0 0093     		str	r3, [sp]
 5910 00b2 9368     		ldr	r3, [r2, #8]
 5911 00b4 0022     		movs	r2, #0
 5912              	.LVL528:
 5913 00b6 1146     		mov	r1, r2
 5914              	.LVL529:
 5915 00b8 FFF7FEFF 		bl	xQueueGenericCreateStatic
 5916              	.LVL530:
 5917 00bc 0646     		mov	r6, r0
 5918              	.LVL531:
 5919 00be E5E7     		b	.L613
ARM GAS  /tmp/ccZrYRqG.s 			page 148


 5920              	.LVL532:
 5921              	.L630:
1466:Middlewares/Third_Party/FreeRTOS/Source/CMSIS_RTOS_V2/cmsis_os2.c ****         }
 5922              		.loc 1 1466 0
 5923 00c0 9268     		ldr	r2, [r2, #8]
 5924              	.LVL533:
 5925 00c2 FFF7FEFF 		bl	xQueueCreateCountingSemaphoreStatic
 5926              	.LVL534:
 5927 00c6 0646     		mov	r6, r0
 5928              	.LVL535:
 5929 00c8 C3E7     		b	.L614
 5930              	.LVL536:
 5931              	.L626:
1478:Middlewares/Third_Party/FreeRTOS/Source/CMSIS_RTOS_V2/cmsis_os2.c ****         }
 5932              		.loc 1 1478 0
 5933 00ca 0021     		movs	r1, #0
 5934 00cc C5E7     		b	.L616
 5935              	.LVL537:
 5936              	.L617:
1429:Middlewares/Third_Party/FreeRTOS/Source/CMSIS_RTOS_V2/cmsis_os2.c **** 
 5937              		.loc 1 1429 0
 5938 00ce 0026     		movs	r6, #0
 5939 00d0 C6E7     		b	.L606
 5940              	.L618:
 5941 00d2 0026     		movs	r6, #0
 5942 00d4 C4E7     		b	.L606
 5943              	.L619:
 5944 00d6 0026     		movs	r6, #0
 5945 00d8 C2E7     		b	.L606
 5946              	.L620:
 5947 00da 0026     		movs	r6, #0
 5948 00dc C0E7     		b	.L606
 5949              	.LVL538:
 5950              	.L625:
 5951 00de 0026     		movs	r6, #0
 5952 00e0 BEE7     		b	.L606
 5953              	.L633:
 5954 00e2 00BF     		.align	2
 5955              	.L632:
 5956 00e4 00000000 		.word	.LANCHOR0
 5957              		.cfi_endproc
 5958              	.LFE156:
 5960              		.section	.text.osSemaphoreAcquire,"ax",%progbits
 5961              		.align	1
 5962              		.global	osSemaphoreAcquire
 5963              		.syntax unified
 5964              		.thumb
 5965              		.thumb_func
 5966              		.fpu fpv4-sp-d16
 5968              	osSemaphoreAcquire:
 5969              	.LFB157:
1488:Middlewares/Third_Party/FreeRTOS/Source/CMSIS_RTOS_V2/cmsis_os2.c **** 
1489:Middlewares/Third_Party/FreeRTOS/Source/CMSIS_RTOS_V2/cmsis_os2.c **** osStatus_t osSemaphoreAcquire (osSemaphoreId_t semaphore_id, uint32_t timeout) {
 5970              		.loc 1 1489 0
 5971              		.cfi_startproc
 5972              		@ args = 0, pretend = 0, frame = 8
 5973              		@ frame_needed = 0, uses_anonymous_args = 0
ARM GAS  /tmp/ccZrYRqG.s 			page 149


 5974              	.LVL539:
1490:Middlewares/Third_Party/FreeRTOS/Source/CMSIS_RTOS_V2/cmsis_os2.c ****   SemaphoreHandle_t hSemaphore = (SemaphoreHandle_t)semaphore_id;
1491:Middlewares/Third_Party/FreeRTOS/Source/CMSIS_RTOS_V2/cmsis_os2.c ****   osStatus_t stat;
1492:Middlewares/Third_Party/FreeRTOS/Source/CMSIS_RTOS_V2/cmsis_os2.c ****   BaseType_t yield;
1493:Middlewares/Third_Party/FreeRTOS/Source/CMSIS_RTOS_V2/cmsis_os2.c **** 
1494:Middlewares/Third_Party/FreeRTOS/Source/CMSIS_RTOS_V2/cmsis_os2.c ****   stat = osOK;
1495:Middlewares/Third_Party/FreeRTOS/Source/CMSIS_RTOS_V2/cmsis_os2.c **** 
1496:Middlewares/Third_Party/FreeRTOS/Source/CMSIS_RTOS_V2/cmsis_os2.c ****   if (hSemaphore == NULL) {
 5975              		.loc 1 1496 0
 5976 0000 70B3     		cbz	r0, .L639
1489:Middlewares/Third_Party/FreeRTOS/Source/CMSIS_RTOS_V2/cmsis_os2.c ****   SemaphoreHandle_t hSemaphore = (SemaphoreHandle_t)semaphore_id;
 5977              		.loc 1 1489 0
 5978 0002 10B5     		push	{r4, lr}
 5979              	.LCFI103:
 5980              		.cfi_def_cfa_offset 8
 5981              		.cfi_offset 4, -8
 5982              		.cfi_offset 14, -4
 5983 0004 82B0     		sub	sp, sp, #8
 5984              	.LCFI104:
 5985              		.cfi_def_cfa_offset 16
 5986 0006 0C46     		mov	r4, r1
 5987              	.LBB600:
 5988              	.LBB601:
 209:Drivers/CMSIS/Include/cmsis_gcc.h ****   return(result);
 5989              		.loc 2 209 0
 5990              		.syntax unified
 5991              	@ 209 "Drivers/CMSIS/Include/cmsis_gcc.h" 1
 5992 0008 EFF30583 		MRS r3, ipsr
 5993              	@ 0 "" 2
 5994              		.thumb
 5995              		.syntax unified
 5996              	.LBE601:
 5997              	.LBE600:
1497:Middlewares/Third_Party/FreeRTOS/Source/CMSIS_RTOS_V2/cmsis_os2.c ****     stat = osErrorParameter;
1498:Middlewares/Third_Party/FreeRTOS/Source/CMSIS_RTOS_V2/cmsis_os2.c ****   }
1499:Middlewares/Third_Party/FreeRTOS/Source/CMSIS_RTOS_V2/cmsis_os2.c ****   else if (IS_IRQ()) {
 5998              		.loc 1 1499 0
 5999 000c 93B9     		cbnz	r3, .L636
 6000              	.LBB602:
 6001              	.LBB603:
 386:Drivers/CMSIS/Include/cmsis_gcc.h ****   return(result);
 6002              		.loc 2 386 0
 6003              		.syntax unified
 6004              	@ 386 "Drivers/CMSIS/Include/cmsis_gcc.h" 1
 6005 000e EFF31083 		MRS r3, primask
 6006              	@ 0 "" 2
 6007              		.thumb
 6008              		.syntax unified
 6009              	.LBE603:
 6010              	.LBE602:
 6011              		.loc 1 1499 0
 6012 0012 13B9     		cbnz	r3, .L637
 6013              	.LBB604:
 6014              	.LBB605:
 6015              		.loc 2 465 0
 6016              		.syntax unified
 6017              	@ 465 "Drivers/CMSIS/Include/cmsis_gcc.h" 1
ARM GAS  /tmp/ccZrYRqG.s 			page 150


 6018 0014 EFF31183 		MRS r3, basepri
 6019              	@ 0 "" 2
 6020              		.thumb
 6021              		.syntax unified
 6022              	.LBE605:
 6023              	.LBE604:
 6024              		.loc 1 1499 0
 6025 0018 1BB1     		cbz	r3, .L638
 6026              	.L637:
 6027              		.loc 1 1499 0 is_stmt 0 discriminator 4
 6028 001a 194B     		ldr	r3, .L649
 6029 001c 1B68     		ldr	r3, [r3]
 6030 001e 022B     		cmp	r3, #2
 6031 0020 08D0     		beq	.L636
 6032              	.L638:
1500:Middlewares/Third_Party/FreeRTOS/Source/CMSIS_RTOS_V2/cmsis_os2.c ****     if (timeout != 0U) {
1501:Middlewares/Third_Party/FreeRTOS/Source/CMSIS_RTOS_V2/cmsis_os2.c ****       stat = osErrorParameter;
1502:Middlewares/Third_Party/FreeRTOS/Source/CMSIS_RTOS_V2/cmsis_os2.c ****     }
1503:Middlewares/Third_Party/FreeRTOS/Source/CMSIS_RTOS_V2/cmsis_os2.c ****     else {
1504:Middlewares/Third_Party/FreeRTOS/Source/CMSIS_RTOS_V2/cmsis_os2.c ****       yield = pdFALSE;
1505:Middlewares/Third_Party/FreeRTOS/Source/CMSIS_RTOS_V2/cmsis_os2.c **** 
1506:Middlewares/Third_Party/FreeRTOS/Source/CMSIS_RTOS_V2/cmsis_os2.c ****       if (xSemaphoreTakeFromISR (hSemaphore, &yield) != pdPASS) {
1507:Middlewares/Third_Party/FreeRTOS/Source/CMSIS_RTOS_V2/cmsis_os2.c ****         stat = osErrorResource;
1508:Middlewares/Third_Party/FreeRTOS/Source/CMSIS_RTOS_V2/cmsis_os2.c ****       } else {
1509:Middlewares/Third_Party/FreeRTOS/Source/CMSIS_RTOS_V2/cmsis_os2.c ****         portYIELD_FROM_ISR (yield);
1510:Middlewares/Third_Party/FreeRTOS/Source/CMSIS_RTOS_V2/cmsis_os2.c ****       }
1511:Middlewares/Third_Party/FreeRTOS/Source/CMSIS_RTOS_V2/cmsis_os2.c ****     }
1512:Middlewares/Third_Party/FreeRTOS/Source/CMSIS_RTOS_V2/cmsis_os2.c ****   }
1513:Middlewares/Third_Party/FreeRTOS/Source/CMSIS_RTOS_V2/cmsis_os2.c ****   else {
1514:Middlewares/Third_Party/FreeRTOS/Source/CMSIS_RTOS_V2/cmsis_os2.c ****     if (xSemaphoreTake (hSemaphore, (TickType_t)timeout) != pdPASS) {
 6033              		.loc 1 1514 0 is_stmt 1
 6034 0022 2146     		mov	r1, r4
 6035              	.LVL540:
 6036 0024 FFF7FEFF 		bl	xQueueSemaphoreTake
 6037              	.LVL541:
 6038 0028 0128     		cmp	r0, #1
 6039 002a 24D0     		beq	.L643
1515:Middlewares/Third_Party/FreeRTOS/Source/CMSIS_RTOS_V2/cmsis_os2.c ****       if (timeout != 0U) {
 6040              		.loc 1 1515 0
 6041 002c 2CB3     		cbz	r4, .L644
1516:Middlewares/Third_Party/FreeRTOS/Source/CMSIS_RTOS_V2/cmsis_os2.c ****         stat = osErrorTimeout;
 6042              		.loc 1 1516 0
 6043 002e 6FF00100 		mvn	r0, #1
 6044 0032 13E0     		b	.L634
 6045              	.LVL542:
 6046              	.L636:
1500:Middlewares/Third_Party/FreeRTOS/Source/CMSIS_RTOS_V2/cmsis_os2.c ****     if (timeout != 0U) {
 6047              		.loc 1 1500 0
 6048 0034 BCB9     		cbnz	r4, .L640
1504:Middlewares/Third_Party/FreeRTOS/Source/CMSIS_RTOS_V2/cmsis_os2.c **** 
 6049              		.loc 1 1504 0
 6050 0036 0021     		movs	r1, #0
 6051              	.LVL543:
 6052 0038 02AA     		add	r2, sp, #8
 6053 003a 42F8041D 		str	r1, [r2, #-4]!
1506:Middlewares/Third_Party/FreeRTOS/Source/CMSIS_RTOS_V2/cmsis_os2.c ****         stat = osErrorResource;
 6054              		.loc 1 1506 0
ARM GAS  /tmp/ccZrYRqG.s 			page 151


 6055 003e FFF7FEFF 		bl	xQueueReceiveFromISR
 6056              	.LVL544:
 6057 0042 0128     		cmp	r0, #1
 6058 0044 12D1     		bne	.L641
1509:Middlewares/Third_Party/FreeRTOS/Source/CMSIS_RTOS_V2/cmsis_os2.c ****       }
 6059              		.loc 1 1509 0
 6060 0046 019B     		ldr	r3, [sp, #4]
 6061 0048 9BB1     		cbz	r3, .L642
1509:Middlewares/Third_Party/FreeRTOS/Source/CMSIS_RTOS_V2/cmsis_os2.c ****       }
 6062              		.loc 1 1509 0 is_stmt 0 discriminator 1
 6063 004a 4FF08052 		mov	r2, #268435456
 6064 004e 0D4B     		ldr	r3, .L649+4
 6065 0050 1A60     		str	r2, [r3]
 6066              		.syntax unified
 6067              	@ 1509 "Middlewares/Third_Party/FreeRTOS/Source/CMSIS_RTOS_V2/cmsis_os2.c" 1
 6068 0052 BFF34F8F 		dsb
 6069              	@ 0 "" 2
 6070              	@ 1509 "Middlewares/Third_Party/FreeRTOS/Source/CMSIS_RTOS_V2/cmsis_os2.c" 1
 6071 0056 BFF36F8F 		isb
 6072              	@ 0 "" 2
1494:Middlewares/Third_Party/FreeRTOS/Source/CMSIS_RTOS_V2/cmsis_os2.c **** 
 6073              		.loc 1 1494 0 is_stmt 1 discriminator 1
 6074              		.thumb
 6075              		.syntax unified
 6076 005a 0020     		movs	r0, #0
 6077              	.LVL545:
 6078              	.L634:
1517:Middlewares/Third_Party/FreeRTOS/Source/CMSIS_RTOS_V2/cmsis_os2.c ****       } else {
1518:Middlewares/Third_Party/FreeRTOS/Source/CMSIS_RTOS_V2/cmsis_os2.c ****         stat = osErrorResource;
1519:Middlewares/Third_Party/FreeRTOS/Source/CMSIS_RTOS_V2/cmsis_os2.c ****       }
1520:Middlewares/Third_Party/FreeRTOS/Source/CMSIS_RTOS_V2/cmsis_os2.c ****     }
1521:Middlewares/Third_Party/FreeRTOS/Source/CMSIS_RTOS_V2/cmsis_os2.c ****   }
1522:Middlewares/Third_Party/FreeRTOS/Source/CMSIS_RTOS_V2/cmsis_os2.c **** 
1523:Middlewares/Third_Party/FreeRTOS/Source/CMSIS_RTOS_V2/cmsis_os2.c ****   return (stat);
1524:Middlewares/Third_Party/FreeRTOS/Source/CMSIS_RTOS_V2/cmsis_os2.c **** }
 6079              		.loc 1 1524 0
 6080 005c 02B0     		add	sp, sp, #8
 6081              	.LCFI105:
 6082              		.cfi_def_cfa_offset 8
 6083              		@ sp needed
 6084 005e 10BD     		pop	{r4, pc}
 6085              	.LVL546:
 6086              	.L639:
 6087              	.LCFI106:
 6088              		.cfi_def_cfa_offset 0
 6089              		.cfi_restore 4
 6090              		.cfi_restore 14
1497:Middlewares/Third_Party/FreeRTOS/Source/CMSIS_RTOS_V2/cmsis_os2.c ****   }
 6091              		.loc 1 1497 0
 6092 0060 6FF00300 		mvn	r0, #3
 6093              	.LVL547:
 6094 0064 7047     		bx	lr
 6095              	.LVL548:
 6096              	.L640:
 6097              	.LCFI107:
 6098              		.cfi_def_cfa_offset 16
 6099              		.cfi_offset 4, -8
ARM GAS  /tmp/ccZrYRqG.s 			page 152


 6100              		.cfi_offset 14, -4
1501:Middlewares/Third_Party/FreeRTOS/Source/CMSIS_RTOS_V2/cmsis_os2.c ****     }
 6101              		.loc 1 1501 0
 6102 0066 6FF00300 		mvn	r0, #3
 6103              	.LVL549:
 6104 006a F7E7     		b	.L634
 6105              	.LVL550:
 6106              	.L641:
1507:Middlewares/Third_Party/FreeRTOS/Source/CMSIS_RTOS_V2/cmsis_os2.c ****       } else {
 6107              		.loc 1 1507 0
 6108 006c 6FF00200 		mvn	r0, #2
 6109 0070 F4E7     		b	.L634
 6110              	.L642:
1494:Middlewares/Third_Party/FreeRTOS/Source/CMSIS_RTOS_V2/cmsis_os2.c **** 
 6111              		.loc 1 1494 0
 6112 0072 0020     		movs	r0, #0
 6113 0074 F2E7     		b	.L634
 6114              	.L643:
 6115 0076 0020     		movs	r0, #0
 6116 0078 F0E7     		b	.L634
 6117              	.L644:
1518:Middlewares/Third_Party/FreeRTOS/Source/CMSIS_RTOS_V2/cmsis_os2.c ****       }
 6118              		.loc 1 1518 0
 6119 007a 6FF00200 		mvn	r0, #2
 6120              	.LVL551:
1523:Middlewares/Third_Party/FreeRTOS/Source/CMSIS_RTOS_V2/cmsis_os2.c **** }
 6121              		.loc 1 1523 0
 6122 007e EDE7     		b	.L634
 6123              	.L650:
 6124              		.align	2
 6125              	.L649:
 6126 0080 00000000 		.word	.LANCHOR0
 6127 0084 04ED00E0 		.word	-536810236
 6128              		.cfi_endproc
 6129              	.LFE157:
 6131              		.section	.text.osSemaphoreRelease,"ax",%progbits
 6132              		.align	1
 6133              		.global	osSemaphoreRelease
 6134              		.syntax unified
 6135              		.thumb
 6136              		.thumb_func
 6137              		.fpu fpv4-sp-d16
 6139              	osSemaphoreRelease:
 6140              	.LFB158:
1525:Middlewares/Third_Party/FreeRTOS/Source/CMSIS_RTOS_V2/cmsis_os2.c **** 
1526:Middlewares/Third_Party/FreeRTOS/Source/CMSIS_RTOS_V2/cmsis_os2.c **** osStatus_t osSemaphoreRelease (osSemaphoreId_t semaphore_id) {
 6141              		.loc 1 1526 0
 6142              		.cfi_startproc
 6143              		@ args = 0, pretend = 0, frame = 8
 6144              		@ frame_needed = 0, uses_anonymous_args = 0
 6145              	.LVL552:
1527:Middlewares/Third_Party/FreeRTOS/Source/CMSIS_RTOS_V2/cmsis_os2.c ****   SemaphoreHandle_t hSemaphore = (SemaphoreHandle_t)semaphore_id;
1528:Middlewares/Third_Party/FreeRTOS/Source/CMSIS_RTOS_V2/cmsis_os2.c ****   osStatus_t stat;
1529:Middlewares/Third_Party/FreeRTOS/Source/CMSIS_RTOS_V2/cmsis_os2.c ****   BaseType_t yield;
1530:Middlewares/Third_Party/FreeRTOS/Source/CMSIS_RTOS_V2/cmsis_os2.c **** 
1531:Middlewares/Third_Party/FreeRTOS/Source/CMSIS_RTOS_V2/cmsis_os2.c ****   stat = osOK;
1532:Middlewares/Third_Party/FreeRTOS/Source/CMSIS_RTOS_V2/cmsis_os2.c **** 
ARM GAS  /tmp/ccZrYRqG.s 			page 153


1533:Middlewares/Third_Party/FreeRTOS/Source/CMSIS_RTOS_V2/cmsis_os2.c ****   if (hSemaphore == NULL) {
 6146              		.loc 1 1533 0
 6147 0000 68B3     		cbz	r0, .L656
1526:Middlewares/Third_Party/FreeRTOS/Source/CMSIS_RTOS_V2/cmsis_os2.c ****   SemaphoreHandle_t hSemaphore = (SemaphoreHandle_t)semaphore_id;
 6148              		.loc 1 1526 0
 6149 0002 00B5     		push	{lr}
 6150              	.LCFI108:
 6151              		.cfi_def_cfa_offset 4
 6152              		.cfi_offset 14, -4
 6153 0004 83B0     		sub	sp, sp, #12
 6154              	.LCFI109:
 6155              		.cfi_def_cfa_offset 16
 6156              	.LBB606:
 6157              	.LBB607:
 209:Drivers/CMSIS/Include/cmsis_gcc.h ****   return(result);
 6158              		.loc 2 209 0
 6159              		.syntax unified
 6160              	@ 209 "Drivers/CMSIS/Include/cmsis_gcc.h" 1
 6161 0006 EFF30583 		MRS r3, ipsr
 6162              	@ 0 "" 2
 6163              		.thumb
 6164              		.syntax unified
 6165              	.LBE607:
 6166              	.LBE606:
1534:Middlewares/Third_Party/FreeRTOS/Source/CMSIS_RTOS_V2/cmsis_os2.c ****     stat = osErrorParameter;
1535:Middlewares/Third_Party/FreeRTOS/Source/CMSIS_RTOS_V2/cmsis_os2.c ****   }
1536:Middlewares/Third_Party/FreeRTOS/Source/CMSIS_RTOS_V2/cmsis_os2.c ****   else if (IS_IRQ()) {
 6167              		.loc 1 1536 0
 6168 000a A3B9     		cbnz	r3, .L653
 6169              	.LBB608:
 6170              	.LBB609:
 386:Drivers/CMSIS/Include/cmsis_gcc.h ****   return(result);
 6171              		.loc 2 386 0
 6172              		.syntax unified
 6173              	@ 386 "Drivers/CMSIS/Include/cmsis_gcc.h" 1
 6174 000c EFF31083 		MRS r3, primask
 6175              	@ 0 "" 2
 6176              		.thumb
 6177              		.syntax unified
 6178              	.LBE609:
 6179              	.LBE608:
 6180              		.loc 1 1536 0
 6181 0010 13B9     		cbnz	r3, .L654
 6182              	.LBB610:
 6183              	.LBB611:
 6184              		.loc 2 465 0
 6185              		.syntax unified
 6186              	@ 465 "Drivers/CMSIS/Include/cmsis_gcc.h" 1
 6187 0012 EFF31183 		MRS r3, basepri
 6188              	@ 0 "" 2
 6189              		.thumb
 6190              		.syntax unified
 6191              	.LBE611:
 6192              	.LBE610:
 6193              		.loc 1 1536 0
 6194 0016 1BB1     		cbz	r3, .L655
 6195              	.L654:
ARM GAS  /tmp/ccZrYRqG.s 			page 154


 6196              		.loc 1 1536 0 is_stmt 0 discriminator 4
 6197 0018 164B     		ldr	r3, .L664
 6198 001a 1B68     		ldr	r3, [r3]
 6199 001c 022B     		cmp	r3, #2
 6200 001e 0AD0     		beq	.L653
 6201              	.L655:
1537:Middlewares/Third_Party/FreeRTOS/Source/CMSIS_RTOS_V2/cmsis_os2.c ****     yield = pdFALSE;
1538:Middlewares/Third_Party/FreeRTOS/Source/CMSIS_RTOS_V2/cmsis_os2.c **** 
1539:Middlewares/Third_Party/FreeRTOS/Source/CMSIS_RTOS_V2/cmsis_os2.c ****     if (xSemaphoreGiveFromISR (hSemaphore, &yield) != pdTRUE) {
1540:Middlewares/Third_Party/FreeRTOS/Source/CMSIS_RTOS_V2/cmsis_os2.c ****       stat = osErrorResource;
1541:Middlewares/Third_Party/FreeRTOS/Source/CMSIS_RTOS_V2/cmsis_os2.c ****     } else {
1542:Middlewares/Third_Party/FreeRTOS/Source/CMSIS_RTOS_V2/cmsis_os2.c ****       portYIELD_FROM_ISR (yield);
1543:Middlewares/Third_Party/FreeRTOS/Source/CMSIS_RTOS_V2/cmsis_os2.c ****     }
1544:Middlewares/Third_Party/FreeRTOS/Source/CMSIS_RTOS_V2/cmsis_os2.c ****   }
1545:Middlewares/Third_Party/FreeRTOS/Source/CMSIS_RTOS_V2/cmsis_os2.c ****   else {
1546:Middlewares/Third_Party/FreeRTOS/Source/CMSIS_RTOS_V2/cmsis_os2.c ****     if (xSemaphoreGive (hSemaphore) != pdPASS) {
 6202              		.loc 1 1546 0 is_stmt 1
 6203 0020 0023     		movs	r3, #0
 6204 0022 1A46     		mov	r2, r3
 6205 0024 1946     		mov	r1, r3
 6206 0026 FFF7FEFF 		bl	xQueueGenericSend
 6207              	.LVL553:
 6208 002a 0128     		cmp	r0, #1
 6209 002c 1FD1     		bne	.L659
1531:Middlewares/Third_Party/FreeRTOS/Source/CMSIS_RTOS_V2/cmsis_os2.c **** 
 6210              		.loc 1 1531 0
 6211 002e 0020     		movs	r0, #0
 6212              	.LVL554:
 6213              	.L651:
1547:Middlewares/Third_Party/FreeRTOS/Source/CMSIS_RTOS_V2/cmsis_os2.c ****       stat = osErrorResource;
1548:Middlewares/Third_Party/FreeRTOS/Source/CMSIS_RTOS_V2/cmsis_os2.c ****     }
1549:Middlewares/Third_Party/FreeRTOS/Source/CMSIS_RTOS_V2/cmsis_os2.c ****   }
1550:Middlewares/Third_Party/FreeRTOS/Source/CMSIS_RTOS_V2/cmsis_os2.c **** 
1551:Middlewares/Third_Party/FreeRTOS/Source/CMSIS_RTOS_V2/cmsis_os2.c ****   return (stat);
1552:Middlewares/Third_Party/FreeRTOS/Source/CMSIS_RTOS_V2/cmsis_os2.c **** }
 6214              		.loc 1 1552 0
 6215 0030 03B0     		add	sp, sp, #12
 6216              	.LCFI110:
 6217              		.cfi_remember_state
 6218              		.cfi_def_cfa_offset 4
 6219              		@ sp needed
 6220 0032 5DF804FB 		ldr	pc, [sp], #4
 6221              	.LVL555:
 6222              	.L653:
 6223              	.LCFI111:
 6224              		.cfi_restore_state
1537:Middlewares/Third_Party/FreeRTOS/Source/CMSIS_RTOS_V2/cmsis_os2.c **** 
 6225              		.loc 1 1537 0
 6226 0036 02A9     		add	r1, sp, #8
 6227 0038 0023     		movs	r3, #0
 6228 003a 41F8043D 		str	r3, [r1, #-4]!
1539:Middlewares/Third_Party/FreeRTOS/Source/CMSIS_RTOS_V2/cmsis_os2.c ****       stat = osErrorResource;
 6229              		.loc 1 1539 0
 6230 003e FFF7FEFF 		bl	xQueueGiveFromISR
 6231              	.LVL556:
 6232 0042 0128     		cmp	r0, #1
 6233 0044 0ED1     		bne	.L657
ARM GAS  /tmp/ccZrYRqG.s 			page 155


1542:Middlewares/Third_Party/FreeRTOS/Source/CMSIS_RTOS_V2/cmsis_os2.c ****     }
 6234              		.loc 1 1542 0
 6235 0046 019B     		ldr	r3, [sp, #4]
 6236 0048 7BB1     		cbz	r3, .L658
1542:Middlewares/Third_Party/FreeRTOS/Source/CMSIS_RTOS_V2/cmsis_os2.c ****     }
 6237              		.loc 1 1542 0 is_stmt 0 discriminator 1
 6238 004a 4FF08052 		mov	r2, #268435456
 6239 004e 0A4B     		ldr	r3, .L664+4
 6240 0050 1A60     		str	r2, [r3]
 6241              		.syntax unified
 6242              	@ 1542 "Middlewares/Third_Party/FreeRTOS/Source/CMSIS_RTOS_V2/cmsis_os2.c" 1
 6243 0052 BFF34F8F 		dsb
 6244              	@ 0 "" 2
 6245              	@ 1542 "Middlewares/Third_Party/FreeRTOS/Source/CMSIS_RTOS_V2/cmsis_os2.c" 1
 6246 0056 BFF36F8F 		isb
 6247              	@ 0 "" 2
1531:Middlewares/Third_Party/FreeRTOS/Source/CMSIS_RTOS_V2/cmsis_os2.c **** 
 6248              		.loc 1 1531 0 is_stmt 1 discriminator 1
 6249              		.thumb
 6250              		.syntax unified
 6251 005a 0020     		movs	r0, #0
 6252 005c E8E7     		b	.L651
 6253              	.LVL557:
 6254              	.L656:
 6255              	.LCFI112:
 6256              		.cfi_def_cfa_offset 0
 6257              		.cfi_restore 14
1534:Middlewares/Third_Party/FreeRTOS/Source/CMSIS_RTOS_V2/cmsis_os2.c ****   }
 6258              		.loc 1 1534 0
 6259 005e 6FF00300 		mvn	r0, #3
 6260              	.LVL558:
 6261 0062 7047     		bx	lr
 6262              	.L657:
 6263              	.LCFI113:
 6264              		.cfi_def_cfa_offset 16
 6265              		.cfi_offset 14, -4
1540:Middlewares/Third_Party/FreeRTOS/Source/CMSIS_RTOS_V2/cmsis_os2.c ****     } else {
 6266              		.loc 1 1540 0
 6267 0064 6FF00200 		mvn	r0, #2
 6268 0068 E2E7     		b	.L651
 6269              	.L658:
1531:Middlewares/Third_Party/FreeRTOS/Source/CMSIS_RTOS_V2/cmsis_os2.c **** 
 6270              		.loc 1 1531 0
 6271 006a 0020     		movs	r0, #0
 6272 006c E0E7     		b	.L651
 6273              	.L659:
1547:Middlewares/Third_Party/FreeRTOS/Source/CMSIS_RTOS_V2/cmsis_os2.c ****     }
 6274              		.loc 1 1547 0
 6275 006e 6FF00200 		mvn	r0, #2
 6276              	.LVL559:
1551:Middlewares/Third_Party/FreeRTOS/Source/CMSIS_RTOS_V2/cmsis_os2.c **** }
 6277              		.loc 1 1551 0
 6278 0072 DDE7     		b	.L651
 6279              	.L665:
 6280              		.align	2
 6281              	.L664:
 6282 0074 00000000 		.word	.LANCHOR0
ARM GAS  /tmp/ccZrYRqG.s 			page 156


 6283 0078 04ED00E0 		.word	-536810236
 6284              		.cfi_endproc
 6285              	.LFE158:
 6287              		.section	.text.osSemaphoreGetCount,"ax",%progbits
 6288              		.align	1
 6289              		.global	osSemaphoreGetCount
 6290              		.syntax unified
 6291              		.thumb
 6292              		.thumb_func
 6293              		.fpu fpv4-sp-d16
 6295              	osSemaphoreGetCount:
 6296              	.LFB159:
1553:Middlewares/Third_Party/FreeRTOS/Source/CMSIS_RTOS_V2/cmsis_os2.c **** 
1554:Middlewares/Third_Party/FreeRTOS/Source/CMSIS_RTOS_V2/cmsis_os2.c **** uint32_t osSemaphoreGetCount (osSemaphoreId_t semaphore_id) {
 6297              		.loc 1 1554 0
 6298              		.cfi_startproc
 6299              		@ args = 0, pretend = 0, frame = 0
 6300              		@ frame_needed = 0, uses_anonymous_args = 0
 6301              	.LVL560:
1555:Middlewares/Third_Party/FreeRTOS/Source/CMSIS_RTOS_V2/cmsis_os2.c ****   SemaphoreHandle_t hSemaphore = (SemaphoreHandle_t)semaphore_id;
1556:Middlewares/Third_Party/FreeRTOS/Source/CMSIS_RTOS_V2/cmsis_os2.c ****   uint32_t count;
1557:Middlewares/Third_Party/FreeRTOS/Source/CMSIS_RTOS_V2/cmsis_os2.c **** 
1558:Middlewares/Third_Party/FreeRTOS/Source/CMSIS_RTOS_V2/cmsis_os2.c ****   if (hSemaphore == NULL) {
 6302              		.loc 1 1558 0
 6303 0000 98B1     		cbz	r0, .L671
1554:Middlewares/Third_Party/FreeRTOS/Source/CMSIS_RTOS_V2/cmsis_os2.c ****   SemaphoreHandle_t hSemaphore = (SemaphoreHandle_t)semaphore_id;
 6304              		.loc 1 1554 0
 6305 0002 08B5     		push	{r3, lr}
 6306              	.LCFI114:
 6307              		.cfi_def_cfa_offset 8
 6308              		.cfi_offset 3, -8
 6309              		.cfi_offset 14, -4
 6310              	.LBB612:
 6311              	.LBB613:
 209:Drivers/CMSIS/Include/cmsis_gcc.h ****   return(result);
 6312              		.loc 2 209 0
 6313              		.syntax unified
 6314              	@ 209 "Drivers/CMSIS/Include/cmsis_gcc.h" 1
 6315 0004 EFF30583 		MRS r3, ipsr
 6316              	@ 0 "" 2
 6317              		.thumb
 6318              		.syntax unified
 6319              	.LBE613:
 6320              	.LBE612:
1559:Middlewares/Third_Party/FreeRTOS/Source/CMSIS_RTOS_V2/cmsis_os2.c ****     count = 0U;
1560:Middlewares/Third_Party/FreeRTOS/Source/CMSIS_RTOS_V2/cmsis_os2.c ****   }
1561:Middlewares/Third_Party/FreeRTOS/Source/CMSIS_RTOS_V2/cmsis_os2.c ****   else if (IS_IRQ()) {
 6321              		.loc 1 1561 0
 6322 0008 63B9     		cbnz	r3, .L668
 6323              	.LBB614:
 6324              	.LBB615:
 386:Drivers/CMSIS/Include/cmsis_gcc.h ****   return(result);
 6325              		.loc 2 386 0
 6326              		.syntax unified
 6327              	@ 386 "Drivers/CMSIS/Include/cmsis_gcc.h" 1
 6328 000a EFF31083 		MRS r3, primask
 6329              	@ 0 "" 2
ARM GAS  /tmp/ccZrYRqG.s 			page 157


 6330              		.thumb
 6331              		.syntax unified
 6332              	.LBE615:
 6333              	.LBE614:
 6334              		.loc 1 1561 0
 6335 000e 13B9     		cbnz	r3, .L669
 6336              	.LBB616:
 6337              	.LBB617:
 6338              		.loc 2 465 0
 6339              		.syntax unified
 6340              	@ 465 "Drivers/CMSIS/Include/cmsis_gcc.h" 1
 6341 0010 EFF31183 		MRS r3, basepri
 6342              	@ 0 "" 2
 6343              		.thumb
 6344              		.syntax unified
 6345              	.LBE617:
 6346              	.LBE616:
 6347              		.loc 1 1561 0
 6348 0014 1BB1     		cbz	r3, .L670
 6349              	.L669:
 6350              		.loc 1 1561 0 is_stmt 0 discriminator 4
 6351 0016 064B     		ldr	r3, .L676
 6352 0018 1B68     		ldr	r3, [r3]
 6353 001a 022B     		cmp	r3, #2
 6354 001c 02D0     		beq	.L668
 6355              	.L670:
1562:Middlewares/Third_Party/FreeRTOS/Source/CMSIS_RTOS_V2/cmsis_os2.c ****     count = uxQueueMessagesWaitingFromISR (hSemaphore);
1563:Middlewares/Third_Party/FreeRTOS/Source/CMSIS_RTOS_V2/cmsis_os2.c ****   } else {
1564:Middlewares/Third_Party/FreeRTOS/Source/CMSIS_RTOS_V2/cmsis_os2.c ****     count = (uint32_t)uxSemaphoreGetCount (hSemaphore);
 6356              		.loc 1 1564 0 is_stmt 1
 6357 001e FFF7FEFF 		bl	uxQueueMessagesWaiting
 6358              	.LVL561:
 6359 0022 08BD     		pop	{r3, pc}
 6360              	.LVL562:
 6361              	.L668:
1562:Middlewares/Third_Party/FreeRTOS/Source/CMSIS_RTOS_V2/cmsis_os2.c ****     count = uxQueueMessagesWaitingFromISR (hSemaphore);
 6362              		.loc 1 1562 0
 6363 0024 FFF7FEFF 		bl	uxQueueMessagesWaitingFromISR
 6364              	.LVL563:
 6365 0028 08BD     		pop	{r3, pc}
 6366              	.LVL564:
 6367              	.L671:
 6368              	.LCFI115:
 6369              		.cfi_def_cfa_offset 0
 6370              		.cfi_restore 3
 6371              		.cfi_restore 14
1559:Middlewares/Third_Party/FreeRTOS/Source/CMSIS_RTOS_V2/cmsis_os2.c ****   }
 6372              		.loc 1 1559 0
 6373 002a 0020     		movs	r0, #0
 6374              	.LVL565:
1565:Middlewares/Third_Party/FreeRTOS/Source/CMSIS_RTOS_V2/cmsis_os2.c ****   }
1566:Middlewares/Third_Party/FreeRTOS/Source/CMSIS_RTOS_V2/cmsis_os2.c **** 
1567:Middlewares/Third_Party/FreeRTOS/Source/CMSIS_RTOS_V2/cmsis_os2.c ****   return (count);
 6375              		.loc 1 1567 0
 6376 002c 7047     		bx	lr
 6377              	.L677:
 6378 002e 00BF     		.align	2
ARM GAS  /tmp/ccZrYRqG.s 			page 158


 6379              	.L676:
 6380 0030 00000000 		.word	.LANCHOR0
 6381              		.cfi_endproc
 6382              	.LFE159:
 6384              		.section	.text.osSemaphoreDelete,"ax",%progbits
 6385              		.align	1
 6386              		.global	osSemaphoreDelete
 6387              		.syntax unified
 6388              		.thumb
 6389              		.thumb_func
 6390              		.fpu fpv4-sp-d16
 6392              	osSemaphoreDelete:
 6393              	.LFB160:
1568:Middlewares/Third_Party/FreeRTOS/Source/CMSIS_RTOS_V2/cmsis_os2.c **** }
1569:Middlewares/Third_Party/FreeRTOS/Source/CMSIS_RTOS_V2/cmsis_os2.c **** 
1570:Middlewares/Third_Party/FreeRTOS/Source/CMSIS_RTOS_V2/cmsis_os2.c **** osStatus_t osSemaphoreDelete (osSemaphoreId_t semaphore_id) {
 6394              		.loc 1 1570 0
 6395              		.cfi_startproc
 6396              		@ args = 0, pretend = 0, frame = 0
 6397              		@ frame_needed = 0, uses_anonymous_args = 0
 6398              	.LVL566:
 6399              	.LBB618:
 6400              	.LBB619:
 209:Drivers/CMSIS/Include/cmsis_gcc.h ****   return(result);
 6401              		.loc 2 209 0
 6402              		.syntax unified
 6403              	@ 209 "Drivers/CMSIS/Include/cmsis_gcc.h" 1
 6404 0000 EFF30583 		MRS r3, ipsr
 6405              	@ 0 "" 2
 6406              		.thumb
 6407              		.syntax unified
 6408              	.LBE619:
 6409              	.LBE618:
1571:Middlewares/Third_Party/FreeRTOS/Source/CMSIS_RTOS_V2/cmsis_os2.c ****   SemaphoreHandle_t hSemaphore = (SemaphoreHandle_t)semaphore_id;
1572:Middlewares/Third_Party/FreeRTOS/Source/CMSIS_RTOS_V2/cmsis_os2.c ****   osStatus_t stat;
1573:Middlewares/Third_Party/FreeRTOS/Source/CMSIS_RTOS_V2/cmsis_os2.c **** 
1574:Middlewares/Third_Party/FreeRTOS/Source/CMSIS_RTOS_V2/cmsis_os2.c **** #ifndef USE_FreeRTOS_HEAP_1
1575:Middlewares/Third_Party/FreeRTOS/Source/CMSIS_RTOS_V2/cmsis_os2.c ****   if (IS_IRQ()) {
 6410              		.loc 1 1575 0
 6411 0004 9BB9     		cbnz	r3, .L682
 6412              	.LBB620:
 6413              	.LBB621:
 386:Drivers/CMSIS/Include/cmsis_gcc.h ****   return(result);
 6414              		.loc 2 386 0
 6415              		.syntax unified
 6416              	@ 386 "Drivers/CMSIS/Include/cmsis_gcc.h" 1
 6417 0006 EFF31083 		MRS r3, primask
 6418              	@ 0 "" 2
 6419              		.thumb
 6420              		.syntax unified
 6421              	.LBE621:
 6422              	.LBE620:
 6423              		.loc 1 1575 0
 6424 000a 13B9     		cbnz	r3, .L680
 6425              	.LBB622:
 6426              	.LBB623:
 6427              		.loc 2 465 0
ARM GAS  /tmp/ccZrYRqG.s 			page 159


 6428              		.syntax unified
 6429              	@ 465 "Drivers/CMSIS/Include/cmsis_gcc.h" 1
 6430 000c EFF31183 		MRS r3, basepri
 6431              	@ 0 "" 2
 6432              		.thumb
 6433              		.syntax unified
 6434              	.LBE623:
 6435              	.LBE622:
 6436              		.loc 1 1575 0
 6437 0010 1BB1     		cbz	r3, .L681
 6438              	.L680:
 6439              		.loc 1 1575 0 is_stmt 0 discriminator 4
 6440 0012 0B4B     		ldr	r3, .L689
 6441 0014 1B68     		ldr	r3, [r3]
 6442 0016 022B     		cmp	r3, #2
 6443 0018 0CD0     		beq	.L683
 6444              	.L681:
1576:Middlewares/Third_Party/FreeRTOS/Source/CMSIS_RTOS_V2/cmsis_os2.c ****     stat = osErrorISR;
1577:Middlewares/Third_Party/FreeRTOS/Source/CMSIS_RTOS_V2/cmsis_os2.c ****   }
1578:Middlewares/Third_Party/FreeRTOS/Source/CMSIS_RTOS_V2/cmsis_os2.c ****   else if (hSemaphore == NULL) {
 6445              		.loc 1 1578 0 is_stmt 1
 6446 001a 70B1     		cbz	r0, .L684
1570:Middlewares/Third_Party/FreeRTOS/Source/CMSIS_RTOS_V2/cmsis_os2.c ****   SemaphoreHandle_t hSemaphore = (SemaphoreHandle_t)semaphore_id;
 6447              		.loc 1 1570 0
 6448 001c 10B5     		push	{r4, lr}
 6449              	.LCFI116:
 6450              		.cfi_def_cfa_offset 8
 6451              		.cfi_offset 4, -8
 6452              		.cfi_offset 14, -4
 6453 001e 0446     		mov	r4, r0
1579:Middlewares/Third_Party/FreeRTOS/Source/CMSIS_RTOS_V2/cmsis_os2.c ****     stat = osErrorParameter;
1580:Middlewares/Third_Party/FreeRTOS/Source/CMSIS_RTOS_V2/cmsis_os2.c ****   }
1581:Middlewares/Third_Party/FreeRTOS/Source/CMSIS_RTOS_V2/cmsis_os2.c ****   else {
1582:Middlewares/Third_Party/FreeRTOS/Source/CMSIS_RTOS_V2/cmsis_os2.c ****     #if (configQUEUE_REGISTRY_SIZE > 0)
1583:Middlewares/Third_Party/FreeRTOS/Source/CMSIS_RTOS_V2/cmsis_os2.c ****     vQueueUnregisterQueue (hSemaphore);
 6454              		.loc 1 1583 0
 6455 0020 FFF7FEFF 		bl	vQueueUnregisterQueue
 6456              	.LVL567:
1584:Middlewares/Third_Party/FreeRTOS/Source/CMSIS_RTOS_V2/cmsis_os2.c ****     #endif
1585:Middlewares/Third_Party/FreeRTOS/Source/CMSIS_RTOS_V2/cmsis_os2.c **** 
1586:Middlewares/Third_Party/FreeRTOS/Source/CMSIS_RTOS_V2/cmsis_os2.c ****     stat = osOK;
1587:Middlewares/Third_Party/FreeRTOS/Source/CMSIS_RTOS_V2/cmsis_os2.c ****     vSemaphoreDelete (hSemaphore);
 6457              		.loc 1 1587 0
 6458 0024 2046     		mov	r0, r4
 6459 0026 FFF7FEFF 		bl	vQueueDelete
 6460              	.LVL568:
1586:Middlewares/Third_Party/FreeRTOS/Source/CMSIS_RTOS_V2/cmsis_os2.c ****     vSemaphoreDelete (hSemaphore);
 6461              		.loc 1 1586 0
 6462 002a 0020     		movs	r0, #0
 6463 002c 10BD     		pop	{r4, pc}
 6464              	.LVL569:
 6465              	.L682:
 6466              	.LCFI117:
 6467              		.cfi_def_cfa_offset 0
 6468              		.cfi_restore 4
 6469              		.cfi_restore 14
1576:Middlewares/Third_Party/FreeRTOS/Source/CMSIS_RTOS_V2/cmsis_os2.c ****   }
ARM GAS  /tmp/ccZrYRqG.s 			page 160


 6470              		.loc 1 1576 0
 6471 002e 6FF00500 		mvn	r0, #5
 6472              	.LVL570:
 6473 0032 7047     		bx	lr
 6474              	.LVL571:
 6475              	.L683:
 6476 0034 6FF00500 		mvn	r0, #5
 6477              	.LVL572:
 6478 0038 7047     		bx	lr
 6479              	.LVL573:
 6480              	.L684:
1579:Middlewares/Third_Party/FreeRTOS/Source/CMSIS_RTOS_V2/cmsis_os2.c ****   }
 6481              		.loc 1 1579 0
 6482 003a 6FF00300 		mvn	r0, #3
 6483              	.LVL574:
1588:Middlewares/Third_Party/FreeRTOS/Source/CMSIS_RTOS_V2/cmsis_os2.c ****   }
1589:Middlewares/Third_Party/FreeRTOS/Source/CMSIS_RTOS_V2/cmsis_os2.c **** #else
1590:Middlewares/Third_Party/FreeRTOS/Source/CMSIS_RTOS_V2/cmsis_os2.c ****   stat = osError;
1591:Middlewares/Third_Party/FreeRTOS/Source/CMSIS_RTOS_V2/cmsis_os2.c **** #endif
1592:Middlewares/Third_Party/FreeRTOS/Source/CMSIS_RTOS_V2/cmsis_os2.c **** 
1593:Middlewares/Third_Party/FreeRTOS/Source/CMSIS_RTOS_V2/cmsis_os2.c ****   return (stat);
 6484              		.loc 1 1593 0
 6485 003e 7047     		bx	lr
 6486              	.L690:
 6487              		.align	2
 6488              	.L689:
 6489 0040 00000000 		.word	.LANCHOR0
 6490              		.cfi_endproc
 6491              	.LFE160:
 6493              		.section	.text.osMessageQueueNew,"ax",%progbits
 6494              		.align	1
 6495              		.global	osMessageQueueNew
 6496              		.syntax unified
 6497              		.thumb
 6498              		.thumb_func
 6499              		.fpu fpv4-sp-d16
 6501              	osMessageQueueNew:
 6502              	.LFB161:
1594:Middlewares/Third_Party/FreeRTOS/Source/CMSIS_RTOS_V2/cmsis_os2.c **** }
1595:Middlewares/Third_Party/FreeRTOS/Source/CMSIS_RTOS_V2/cmsis_os2.c **** 
1596:Middlewares/Third_Party/FreeRTOS/Source/CMSIS_RTOS_V2/cmsis_os2.c **** /*---------------------------------------------------------------------------*/
1597:Middlewares/Third_Party/FreeRTOS/Source/CMSIS_RTOS_V2/cmsis_os2.c **** 
1598:Middlewares/Third_Party/FreeRTOS/Source/CMSIS_RTOS_V2/cmsis_os2.c **** osMessageQueueId_t osMessageQueueNew (uint32_t msg_count, uint32_t msg_size, const osMessageQueueAt
 6503              		.loc 1 1598 0
 6504              		.cfi_startproc
 6505              		@ args = 0, pretend = 0, frame = 0
 6506              		@ frame_needed = 0, uses_anonymous_args = 0
 6507              	.LVL575:
 6508 0000 30B5     		push	{r4, r5, lr}
 6509              	.LCFI118:
 6510              		.cfi_def_cfa_offset 12
 6511              		.cfi_offset 4, -12
 6512              		.cfi_offset 5, -8
 6513              		.cfi_offset 14, -4
 6514 0002 83B0     		sub	sp, sp, #12
 6515              	.LCFI119:
 6516              		.cfi_def_cfa_offset 24
ARM GAS  /tmp/ccZrYRqG.s 			page 161


 6517              	.LVL576:
 6518              	.LBB624:
 6519              	.LBB625:
 209:Drivers/CMSIS/Include/cmsis_gcc.h ****   return(result);
 6520              		.loc 2 209 0
 6521              		.syntax unified
 6522              	@ 209 "Drivers/CMSIS/Include/cmsis_gcc.h" 1
 6523 0004 EFF30583 		MRS r3, ipsr
 6524              	@ 0 "" 2
 6525              		.thumb
 6526              		.syntax unified
 6527              	.LBE625:
 6528              	.LBE624:
1599:Middlewares/Third_Party/FreeRTOS/Source/CMSIS_RTOS_V2/cmsis_os2.c ****   QueueHandle_t hQueue;
1600:Middlewares/Third_Party/FreeRTOS/Source/CMSIS_RTOS_V2/cmsis_os2.c ****   int32_t mem;
1601:Middlewares/Third_Party/FreeRTOS/Source/CMSIS_RTOS_V2/cmsis_os2.c ****   #if (configQUEUE_REGISTRY_SIZE > 0)
1602:Middlewares/Third_Party/FreeRTOS/Source/CMSIS_RTOS_V2/cmsis_os2.c ****   const char *name;
1603:Middlewares/Third_Party/FreeRTOS/Source/CMSIS_RTOS_V2/cmsis_os2.c ****   #endif
1604:Middlewares/Third_Party/FreeRTOS/Source/CMSIS_RTOS_V2/cmsis_os2.c **** 
1605:Middlewares/Third_Party/FreeRTOS/Source/CMSIS_RTOS_V2/cmsis_os2.c ****   hQueue = NULL;
1606:Middlewares/Third_Party/FreeRTOS/Source/CMSIS_RTOS_V2/cmsis_os2.c **** 
1607:Middlewares/Third_Party/FreeRTOS/Source/CMSIS_RTOS_V2/cmsis_os2.c ****   if (!IS_IRQ() && (msg_count > 0U) && (msg_size > 0U)) {
 6529              		.loc 1 1607 0
 6530 0008 002B     		cmp	r3, #0
 6531 000a 4FD1     		bne	.L700
 6532              	.LBB626:
 6533              	.LBB627:
 386:Drivers/CMSIS/Include/cmsis_gcc.h ****   return(result);
 6534              		.loc 2 386 0
 6535              		.syntax unified
 6536              	@ 386 "Drivers/CMSIS/Include/cmsis_gcc.h" 1
 6537 000c EFF31083 		MRS r3, primask
 6538              	@ 0 "" 2
 6539              		.thumb
 6540              		.syntax unified
 6541              	.LBE627:
 6542              	.LBE626:
 6543              		.loc 1 1607 0
 6544 0010 13B9     		cbnz	r3, .L693
 6545              	.LBB628:
 6546              	.LBB629:
 6547              		.loc 2 465 0
 6548              		.syntax unified
 6549              	@ 465 "Drivers/CMSIS/Include/cmsis_gcc.h" 1
 6550 0012 EFF31183 		MRS r3, basepri
 6551              	@ 0 "" 2
 6552              		.thumb
 6553              		.syntax unified
 6554              	.LBE629:
 6555              	.LBE628:
 6556              		.loc 1 1607 0
 6557 0016 1BB1     		cbz	r3, .L694
 6558              	.L693:
 6559              		.loc 1 1607 0 is_stmt 0 discriminator 5
 6560 0018 284B     		ldr	r3, .L717
 6561 001a 1B68     		ldr	r3, [r3]
 6562 001c 022B     		cmp	r3, #2
ARM GAS  /tmp/ccZrYRqG.s 			page 162


 6563 001e 47D0     		beq	.L701
 6564              	.L694:
 6565              		.loc 1 1607 0 discriminator 6
 6566 0020 0028     		cmp	r0, #0
 6567 0022 47D0     		beq	.L702
 6568              		.loc 1 1607 0 discriminator 7
 6569 0024 0029     		cmp	r1, #0
 6570 0026 47D0     		beq	.L703
 6571              	.LVL577:
1608:Middlewares/Third_Party/FreeRTOS/Source/CMSIS_RTOS_V2/cmsis_os2.c ****     mem = -1;
1609:Middlewares/Third_Party/FreeRTOS/Source/CMSIS_RTOS_V2/cmsis_os2.c **** 
1610:Middlewares/Third_Party/FreeRTOS/Source/CMSIS_RTOS_V2/cmsis_os2.c ****     if (attr != NULL) {
 6572              		.loc 1 1610 0 is_stmt 1
 6573 0028 42B3     		cbz	r2, .L704
1611:Middlewares/Third_Party/FreeRTOS/Source/CMSIS_RTOS_V2/cmsis_os2.c ****       if ((attr->cb_mem != NULL) && (attr->cb_size >= sizeof(StaticQueue_t)) &&
 6574              		.loc 1 1611 0
 6575 002a 9368     		ldr	r3, [r2, #8]
 6576 002c 4BB1     		cbz	r3, .L696
 6577              		.loc 1 1611 0 is_stmt 0 discriminator 1
 6578 002e D468     		ldr	r4, [r2, #12]
 6579 0030 4F2C     		cmp	r4, #79
 6580 0032 06D9     		bls	.L696
1612:Middlewares/Third_Party/FreeRTOS/Source/CMSIS_RTOS_V2/cmsis_os2.c ****           (attr->mq_mem != NULL) && (attr->mq_size >= (msg_count * msg_size))) {
 6581              		.loc 1 1612 0 is_stmt 1 discriminator 2
 6582 0034 1469     		ldr	r4, [r2, #16]
1611:Middlewares/Third_Party/FreeRTOS/Source/CMSIS_RTOS_V2/cmsis_os2.c ****       if ((attr->cb_mem != NULL) && (attr->cb_size >= sizeof(StaticQueue_t)) &&
 6583              		.loc 1 1611 0 discriminator 2
 6584 0036 24B1     		cbz	r4, .L696
 6585              		.loc 1 1612 0
 6586 0038 5569     		ldr	r5, [r2, #20]
 6587 003a 01FB00F4 		mul	r4, r1, r0
 6588 003e A542     		cmp	r5, r4
 6589 0040 1ED2     		bcs	.L705
 6590              	.L696:
1613:Middlewares/Third_Party/FreeRTOS/Source/CMSIS_RTOS_V2/cmsis_os2.c ****         mem = 1;
1614:Middlewares/Third_Party/FreeRTOS/Source/CMSIS_RTOS_V2/cmsis_os2.c ****       }
1615:Middlewares/Third_Party/FreeRTOS/Source/CMSIS_RTOS_V2/cmsis_os2.c ****       else {
1616:Middlewares/Third_Party/FreeRTOS/Source/CMSIS_RTOS_V2/cmsis_os2.c ****         if ((attr->cb_mem == NULL) && (attr->cb_size == 0U) &&
 6591              		.loc 1 1616 0
 6592 0042 7BB1     		cbz	r3, .L713
1608:Middlewares/Third_Party/FreeRTOS/Source/CMSIS_RTOS_V2/cmsis_os2.c **** 
 6593              		.loc 1 1608 0
 6594 0044 4FF0FF33 		mov	r3, #-1
 6595              	.L695:
 6596 0048 1446     		mov	r4, r2
 6597              	.LVL578:
1617:Middlewares/Third_Party/FreeRTOS/Source/CMSIS_RTOS_V2/cmsis_os2.c ****             (attr->mq_mem == NULL) && (attr->mq_size == 0U)) {
1618:Middlewares/Third_Party/FreeRTOS/Source/CMSIS_RTOS_V2/cmsis_os2.c ****           mem = 0;
1619:Middlewares/Third_Party/FreeRTOS/Source/CMSIS_RTOS_V2/cmsis_os2.c ****         }
1620:Middlewares/Third_Party/FreeRTOS/Source/CMSIS_RTOS_V2/cmsis_os2.c ****       }
1621:Middlewares/Third_Party/FreeRTOS/Source/CMSIS_RTOS_V2/cmsis_os2.c ****     }
1622:Middlewares/Third_Party/FreeRTOS/Source/CMSIS_RTOS_V2/cmsis_os2.c ****     else {
1623:Middlewares/Third_Party/FreeRTOS/Source/CMSIS_RTOS_V2/cmsis_os2.c ****       mem = 0;
1624:Middlewares/Third_Party/FreeRTOS/Source/CMSIS_RTOS_V2/cmsis_os2.c ****     }
1625:Middlewares/Third_Party/FreeRTOS/Source/CMSIS_RTOS_V2/cmsis_os2.c **** 
1626:Middlewares/Third_Party/FreeRTOS/Source/CMSIS_RTOS_V2/cmsis_os2.c ****     if (mem == 1) {
 6598              		.loc 1 1626 0
ARM GAS  /tmp/ccZrYRqG.s 			page 163


 6599 004a 012B     		cmp	r3, #1
 6600 004c 1FD0     		beq	.L714
1627:Middlewares/Third_Party/FreeRTOS/Source/CMSIS_RTOS_V2/cmsis_os2.c ****       hQueue = xQueueCreateStatic (msg_count, msg_size, attr->mq_mem, attr->cb_mem);
1628:Middlewares/Third_Party/FreeRTOS/Source/CMSIS_RTOS_V2/cmsis_os2.c ****     }
1629:Middlewares/Third_Party/FreeRTOS/Source/CMSIS_RTOS_V2/cmsis_os2.c ****     else {
1630:Middlewares/Third_Party/FreeRTOS/Source/CMSIS_RTOS_V2/cmsis_os2.c ****       if (mem == 0) {
 6601              		.loc 1 1630 0
 6602 004e 33B3     		cbz	r3, .L715
1605:Middlewares/Third_Party/FreeRTOS/Source/CMSIS_RTOS_V2/cmsis_os2.c **** 
 6603              		.loc 1 1605 0
 6604 0050 0025     		movs	r5, #0
 6605              	.LVL579:
 6606              	.L698:
1631:Middlewares/Third_Party/FreeRTOS/Source/CMSIS_RTOS_V2/cmsis_os2.c ****         hQueue = xQueueCreate (msg_count, msg_size);
1632:Middlewares/Third_Party/FreeRTOS/Source/CMSIS_RTOS_V2/cmsis_os2.c ****       }
1633:Middlewares/Third_Party/FreeRTOS/Source/CMSIS_RTOS_V2/cmsis_os2.c ****     }
1634:Middlewares/Third_Party/FreeRTOS/Source/CMSIS_RTOS_V2/cmsis_os2.c **** 
1635:Middlewares/Third_Party/FreeRTOS/Source/CMSIS_RTOS_V2/cmsis_os2.c ****     #if (configQUEUE_REGISTRY_SIZE > 0)
1636:Middlewares/Third_Party/FreeRTOS/Source/CMSIS_RTOS_V2/cmsis_os2.c ****     if (hQueue != NULL) {
 6607              		.loc 1 1636 0
 6608 0052 25B1     		cbz	r5, .L692
1637:Middlewares/Third_Party/FreeRTOS/Source/CMSIS_RTOS_V2/cmsis_os2.c ****       if (attr != NULL) {
 6609              		.loc 1 1637 0
 6610 0054 44B3     		cbz	r4, .L711
1638:Middlewares/Third_Party/FreeRTOS/Source/CMSIS_RTOS_V2/cmsis_os2.c ****         name = attr->name;
 6611              		.loc 1 1638 0
 6612 0056 2168     		ldr	r1, [r4]
 6613              	.LVL580:
 6614              	.L699:
1639:Middlewares/Third_Party/FreeRTOS/Source/CMSIS_RTOS_V2/cmsis_os2.c ****       } else {
1640:Middlewares/Third_Party/FreeRTOS/Source/CMSIS_RTOS_V2/cmsis_os2.c ****         name = NULL;
1641:Middlewares/Third_Party/FreeRTOS/Source/CMSIS_RTOS_V2/cmsis_os2.c ****       }
1642:Middlewares/Third_Party/FreeRTOS/Source/CMSIS_RTOS_V2/cmsis_os2.c ****       vQueueAddToRegistry (hQueue, name);
 6615              		.loc 1 1642 0
 6616 0058 2846     		mov	r0, r5
 6617 005a FFF7FEFF 		bl	vQueueAddToRegistry
 6618              	.LVL581:
 6619              	.L692:
1643:Middlewares/Third_Party/FreeRTOS/Source/CMSIS_RTOS_V2/cmsis_os2.c ****     }
1644:Middlewares/Third_Party/FreeRTOS/Source/CMSIS_RTOS_V2/cmsis_os2.c ****     #endif
1645:Middlewares/Third_Party/FreeRTOS/Source/CMSIS_RTOS_V2/cmsis_os2.c **** 
1646:Middlewares/Third_Party/FreeRTOS/Source/CMSIS_RTOS_V2/cmsis_os2.c ****   }
1647:Middlewares/Third_Party/FreeRTOS/Source/CMSIS_RTOS_V2/cmsis_os2.c **** 
1648:Middlewares/Third_Party/FreeRTOS/Source/CMSIS_RTOS_V2/cmsis_os2.c ****   return ((osMessageQueueId_t)hQueue);
1649:Middlewares/Third_Party/FreeRTOS/Source/CMSIS_RTOS_V2/cmsis_os2.c **** }
 6620              		.loc 1 1649 0
 6621 005e 2846     		mov	r0, r5
 6622 0060 03B0     		add	sp, sp, #12
 6623              	.LCFI120:
 6624              		.cfi_remember_state
 6625              		.cfi_def_cfa_offset 12
 6626              		@ sp needed
 6627 0062 30BD     		pop	{r4, r5, pc}
 6628              	.LVL582:
 6629              	.L713:
 6630              	.LCFI121:
 6631              		.cfi_restore_state
ARM GAS  /tmp/ccZrYRqG.s 			page 164


1616:Middlewares/Third_Party/FreeRTOS/Source/CMSIS_RTOS_V2/cmsis_os2.c ****             (attr->mq_mem == NULL) && (attr->mq_size == 0U)) {
 6632              		.loc 1 1616 0 discriminator 1
 6633 0064 D368     		ldr	r3, [r2, #12]
 6634 0066 6BB9     		cbnz	r3, .L707
1617:Middlewares/Third_Party/FreeRTOS/Source/CMSIS_RTOS_V2/cmsis_os2.c ****           mem = 0;
 6635              		.loc 1 1617 0 discriminator 2
 6636 0068 1369     		ldr	r3, [r2, #16]
1616:Middlewares/Third_Party/FreeRTOS/Source/CMSIS_RTOS_V2/cmsis_os2.c ****             (attr->mq_mem == NULL) && (attr->mq_size == 0U)) {
 6637              		.loc 1 1616 0 discriminator 2
 6638 006a 13B1     		cbz	r3, .L716
1608:Middlewares/Third_Party/FreeRTOS/Source/CMSIS_RTOS_V2/cmsis_os2.c **** 
 6639              		.loc 1 1608 0
 6640 006c 4FF0FF33 		mov	r3, #-1
 6641 0070 EAE7     		b	.L695
 6642              	.L716:
1617:Middlewares/Third_Party/FreeRTOS/Source/CMSIS_RTOS_V2/cmsis_os2.c ****           mem = 0;
 6643              		.loc 1 1617 0
 6644 0072 5369     		ldr	r3, [r2, #20]
 6645 0074 4BB1     		cbz	r3, .L709
1608:Middlewares/Third_Party/FreeRTOS/Source/CMSIS_RTOS_V2/cmsis_os2.c **** 
 6646              		.loc 1 1608 0
 6647 0076 4FF0FF33 		mov	r3, #-1
 6648 007a E5E7     		b	.L695
 6649              	.L704:
1623:Middlewares/Third_Party/FreeRTOS/Source/CMSIS_RTOS_V2/cmsis_os2.c ****     }
 6650              		.loc 1 1623 0
 6651 007c 0023     		movs	r3, #0
 6652 007e E3E7     		b	.L695
 6653              	.L705:
1613:Middlewares/Third_Party/FreeRTOS/Source/CMSIS_RTOS_V2/cmsis_os2.c ****       }
 6654              		.loc 1 1613 0
 6655 0080 0123     		movs	r3, #1
 6656 0082 E1E7     		b	.L695
 6657              	.L707:
1608:Middlewares/Third_Party/FreeRTOS/Source/CMSIS_RTOS_V2/cmsis_os2.c **** 
 6658              		.loc 1 1608 0
 6659 0084 4FF0FF33 		mov	r3, #-1
 6660 0088 DEE7     		b	.L695
 6661              	.L709:
1618:Middlewares/Third_Party/FreeRTOS/Source/CMSIS_RTOS_V2/cmsis_os2.c ****         }
 6662              		.loc 1 1618 0
 6663 008a 0023     		movs	r3, #0
 6664 008c DCE7     		b	.L695
 6665              	.LVL583:
 6666              	.L714:
1627:Middlewares/Third_Party/FreeRTOS/Source/CMSIS_RTOS_V2/cmsis_os2.c ****     }
 6667              		.loc 1 1627 0
 6668 008e 0023     		movs	r3, #0
 6669              	.LVL584:
 6670 0090 0093     		str	r3, [sp]
 6671 0092 9368     		ldr	r3, [r2, #8]
 6672 0094 1269     		ldr	r2, [r2, #16]
 6673              	.LVL585:
 6674 0096 FFF7FEFF 		bl	xQueueGenericCreateStatic
 6675              	.LVL586:
 6676 009a 0546     		mov	r5, r0
 6677              	.LVL587:
ARM GAS  /tmp/ccZrYRqG.s 			page 165


 6678 009c D9E7     		b	.L698
 6679              	.LVL588:
 6680              	.L715:
1631:Middlewares/Third_Party/FreeRTOS/Source/CMSIS_RTOS_V2/cmsis_os2.c ****       }
 6681              		.loc 1 1631 0
 6682 009e 0022     		movs	r2, #0
 6683              	.LVL589:
 6684 00a0 FFF7FEFF 		bl	xQueueGenericCreate
 6685              	.LVL590:
 6686 00a4 0546     		mov	r5, r0
 6687              	.LVL591:
 6688 00a6 D4E7     		b	.L698
 6689              	.LVL592:
 6690              	.L711:
1640:Middlewares/Third_Party/FreeRTOS/Source/CMSIS_RTOS_V2/cmsis_os2.c ****       }
 6691              		.loc 1 1640 0
 6692 00a8 0021     		movs	r1, #0
 6693 00aa D5E7     		b	.L699
 6694              	.LVL593:
 6695              	.L700:
1605:Middlewares/Third_Party/FreeRTOS/Source/CMSIS_RTOS_V2/cmsis_os2.c **** 
 6696              		.loc 1 1605 0
 6697 00ac 0025     		movs	r5, #0
 6698 00ae D6E7     		b	.L692
 6699              	.L701:
 6700 00b0 0025     		movs	r5, #0
 6701 00b2 D4E7     		b	.L692
 6702              	.L702:
 6703 00b4 0025     		movs	r5, #0
 6704 00b6 D2E7     		b	.L692
 6705              	.L703:
 6706 00b8 0025     		movs	r5, #0
 6707 00ba D0E7     		b	.L692
 6708              	.L718:
 6709              		.align	2
 6710              	.L717:
 6711 00bc 00000000 		.word	.LANCHOR0
 6712              		.cfi_endproc
 6713              	.LFE161:
 6715              		.section	.text.osMessageQueuePut,"ax",%progbits
 6716              		.align	1
 6717              		.global	osMessageQueuePut
 6718              		.syntax unified
 6719              		.thumb
 6720              		.thumb_func
 6721              		.fpu fpv4-sp-d16
 6723              	osMessageQueuePut:
 6724              	.LFB162:
1650:Middlewares/Third_Party/FreeRTOS/Source/CMSIS_RTOS_V2/cmsis_os2.c **** 
1651:Middlewares/Third_Party/FreeRTOS/Source/CMSIS_RTOS_V2/cmsis_os2.c **** osStatus_t osMessageQueuePut (osMessageQueueId_t mq_id, const void *msg_ptr, uint8_t msg_prio, uint
 6725              		.loc 1 1651 0
 6726              		.cfi_startproc
 6727              		@ args = 0, pretend = 0, frame = 8
 6728              		@ frame_needed = 0, uses_anonymous_args = 0
 6729              	.LVL594:
 6730 0000 10B5     		push	{r4, lr}
 6731              	.LCFI122:
ARM GAS  /tmp/ccZrYRqG.s 			page 166


 6732              		.cfi_def_cfa_offset 8
 6733              		.cfi_offset 4, -8
 6734              		.cfi_offset 14, -4
 6735 0002 82B0     		sub	sp, sp, #8
 6736              	.LCFI123:
 6737              		.cfi_def_cfa_offset 16
 6738 0004 1C46     		mov	r4, r3
 6739              	.LVL595:
 6740              	.LBB630:
 6741              	.LBB631:
 209:Drivers/CMSIS/Include/cmsis_gcc.h ****   return(result);
 6742              		.loc 2 209 0
 6743              		.syntax unified
 6744              	@ 209 "Drivers/CMSIS/Include/cmsis_gcc.h" 1
 6745 0006 EFF30583 		MRS r3, ipsr
 6746              	@ 0 "" 2
 6747              	.LVL596:
 6748              		.thumb
 6749              		.syntax unified
 6750              	.LBE631:
 6751              	.LBE630:
1652:Middlewares/Third_Party/FreeRTOS/Source/CMSIS_RTOS_V2/cmsis_os2.c ****   QueueHandle_t hQueue = (QueueHandle_t)mq_id;
1653:Middlewares/Third_Party/FreeRTOS/Source/CMSIS_RTOS_V2/cmsis_os2.c ****   osStatus_t stat;
1654:Middlewares/Third_Party/FreeRTOS/Source/CMSIS_RTOS_V2/cmsis_os2.c ****   BaseType_t yield;
1655:Middlewares/Third_Party/FreeRTOS/Source/CMSIS_RTOS_V2/cmsis_os2.c **** 
1656:Middlewares/Third_Party/FreeRTOS/Source/CMSIS_RTOS_V2/cmsis_os2.c ****   (void)msg_prio; /* Message priority is ignored */
1657:Middlewares/Third_Party/FreeRTOS/Source/CMSIS_RTOS_V2/cmsis_os2.c **** 
1658:Middlewares/Third_Party/FreeRTOS/Source/CMSIS_RTOS_V2/cmsis_os2.c ****   stat = osOK;
1659:Middlewares/Third_Party/FreeRTOS/Source/CMSIS_RTOS_V2/cmsis_os2.c **** 
1660:Middlewares/Third_Party/FreeRTOS/Source/CMSIS_RTOS_V2/cmsis_os2.c ****   if (IS_IRQ()) {
 6752              		.loc 1 1660 0
 6753 000a ABB9     		cbnz	r3, .L720
 6754              	.LBB632:
 6755              	.LBB633:
 386:Drivers/CMSIS/Include/cmsis_gcc.h ****   return(result);
 6756              		.loc 2 386 0
 6757              		.syntax unified
 6758              	@ 386 "Drivers/CMSIS/Include/cmsis_gcc.h" 1
 6759 000c EFF31083 		MRS r3, primask
 6760              	@ 0 "" 2
 6761              		.thumb
 6762              		.syntax unified
 6763              	.LBE633:
 6764              	.LBE632:
 6765              		.loc 1 1660 0
 6766 0010 13B9     		cbnz	r3, .L721
 6767              	.LBB634:
 6768              	.LBB635:
 6769              		.loc 2 465 0
 6770              		.syntax unified
 6771              	@ 465 "Drivers/CMSIS/Include/cmsis_gcc.h" 1
 6772 0012 EFF31183 		MRS r3, basepri
 6773              	@ 0 "" 2
 6774              		.thumb
 6775              		.syntax unified
 6776              	.LBE635:
 6777              	.LBE634:
ARM GAS  /tmp/ccZrYRqG.s 			page 167


 6778              		.loc 1 1660 0
 6779 0016 1BB1     		cbz	r3, .L722
 6780              	.L721:
 6781              		.loc 1 1660 0 is_stmt 0 discriminator 4
 6782 0018 204B     		ldr	r3, .L734
 6783 001a 1B68     		ldr	r3, [r3]
 6784 001c 022B     		cmp	r3, #2
 6785 001e 0BD0     		beq	.L720
 6786              	.L722:
1661:Middlewares/Third_Party/FreeRTOS/Source/CMSIS_RTOS_V2/cmsis_os2.c ****     if ((hQueue == NULL) || (msg_ptr == NULL) || (timeout != 0U)) {
1662:Middlewares/Third_Party/FreeRTOS/Source/CMSIS_RTOS_V2/cmsis_os2.c ****       stat = osErrorParameter;
1663:Middlewares/Third_Party/FreeRTOS/Source/CMSIS_RTOS_V2/cmsis_os2.c ****     }
1664:Middlewares/Third_Party/FreeRTOS/Source/CMSIS_RTOS_V2/cmsis_os2.c ****     else {
1665:Middlewares/Third_Party/FreeRTOS/Source/CMSIS_RTOS_V2/cmsis_os2.c ****       yield = pdFALSE;
1666:Middlewares/Third_Party/FreeRTOS/Source/CMSIS_RTOS_V2/cmsis_os2.c **** 
1667:Middlewares/Third_Party/FreeRTOS/Source/CMSIS_RTOS_V2/cmsis_os2.c ****       if (xQueueSendToBackFromISR (hQueue, msg_ptr, &yield) != pdTRUE) {
1668:Middlewares/Third_Party/FreeRTOS/Source/CMSIS_RTOS_V2/cmsis_os2.c ****         stat = osErrorResource;
1669:Middlewares/Third_Party/FreeRTOS/Source/CMSIS_RTOS_V2/cmsis_os2.c ****       } else {
1670:Middlewares/Third_Party/FreeRTOS/Source/CMSIS_RTOS_V2/cmsis_os2.c ****         portYIELD_FROM_ISR (yield);
1671:Middlewares/Third_Party/FreeRTOS/Source/CMSIS_RTOS_V2/cmsis_os2.c ****       }
1672:Middlewares/Third_Party/FreeRTOS/Source/CMSIS_RTOS_V2/cmsis_os2.c ****     }
1673:Middlewares/Third_Party/FreeRTOS/Source/CMSIS_RTOS_V2/cmsis_os2.c ****   }
1674:Middlewares/Third_Party/FreeRTOS/Source/CMSIS_RTOS_V2/cmsis_os2.c ****   else {
1675:Middlewares/Third_Party/FreeRTOS/Source/CMSIS_RTOS_V2/cmsis_os2.c ****     if ((hQueue == NULL) || (msg_ptr == NULL)) {
 6787              		.loc 1 1675 0 is_stmt 1
 6788 0020 80B3     		cbz	r0, .L729
 6789              		.loc 1 1675 0 is_stmt 0 discriminator 1
 6790 0022 91B3     		cbz	r1, .L730
1676:Middlewares/Third_Party/FreeRTOS/Source/CMSIS_RTOS_V2/cmsis_os2.c ****       stat = osErrorParameter;
1677:Middlewares/Third_Party/FreeRTOS/Source/CMSIS_RTOS_V2/cmsis_os2.c ****     }
1678:Middlewares/Third_Party/FreeRTOS/Source/CMSIS_RTOS_V2/cmsis_os2.c ****     else {
1679:Middlewares/Third_Party/FreeRTOS/Source/CMSIS_RTOS_V2/cmsis_os2.c ****       if (xQueueSendToBack (hQueue, msg_ptr, (TickType_t)timeout) != pdPASS) {
 6791              		.loc 1 1679 0 is_stmt 1
 6792 0024 0023     		movs	r3, #0
 6793 0026 2246     		mov	r2, r4
 6794              	.LVL597:
 6795 0028 FFF7FEFF 		bl	xQueueGenericSend
 6796              	.LVL598:
 6797 002c 0128     		cmp	r0, #1
 6798 002e 2FD0     		beq	.L731
1680:Middlewares/Third_Party/FreeRTOS/Source/CMSIS_RTOS_V2/cmsis_os2.c ****         if (timeout != 0U) {
 6799              		.loc 1 1680 0
 6800 0030 84B3     		cbz	r4, .L732
1681:Middlewares/Third_Party/FreeRTOS/Source/CMSIS_RTOS_V2/cmsis_os2.c ****           stat = osErrorTimeout;
 6801              		.loc 1 1681 0
 6802 0032 6FF00100 		mvn	r0, #1
 6803 0036 15E0     		b	.L719
 6804              	.LVL599:
 6805              	.L720:
1661:Middlewares/Third_Party/FreeRTOS/Source/CMSIS_RTOS_V2/cmsis_os2.c ****       stat = osErrorParameter;
 6806              		.loc 1 1661 0
 6807 0038 B0B1     		cbz	r0, .L724
1661:Middlewares/Third_Party/FreeRTOS/Source/CMSIS_RTOS_V2/cmsis_os2.c ****       stat = osErrorParameter;
 6808              		.loc 1 1661 0 is_stmt 0 discriminator 1
 6809 003a C1B1     		cbz	r1, .L725
1661:Middlewares/Third_Party/FreeRTOS/Source/CMSIS_RTOS_V2/cmsis_os2.c ****       stat = osErrorParameter;
 6810              		.loc 1 1661 0 discriminator 2
ARM GAS  /tmp/ccZrYRqG.s 			page 168


 6811 003c D4B9     		cbnz	r4, .L726
1665:Middlewares/Third_Party/FreeRTOS/Source/CMSIS_RTOS_V2/cmsis_os2.c **** 
 6812              		.loc 1 1665 0 is_stmt 1
 6813 003e 0023     		movs	r3, #0
 6814 0040 02AA     		add	r2, sp, #8
 6815              	.LVL600:
 6816 0042 42F8043D 		str	r3, [r2, #-4]!
1667:Middlewares/Third_Party/FreeRTOS/Source/CMSIS_RTOS_V2/cmsis_os2.c ****         stat = osErrorResource;
 6817              		.loc 1 1667 0
 6818 0046 FFF7FEFF 		bl	xQueueGenericSendFromISR
 6819              	.LVL601:
 6820 004a 0128     		cmp	r0, #1
 6821 004c 15D1     		bne	.L727
1670:Middlewares/Third_Party/FreeRTOS/Source/CMSIS_RTOS_V2/cmsis_os2.c ****       }
 6822              		.loc 1 1670 0
 6823 004e 019B     		ldr	r3, [sp, #4]
 6824 0050 B3B1     		cbz	r3, .L728
1670:Middlewares/Third_Party/FreeRTOS/Source/CMSIS_RTOS_V2/cmsis_os2.c ****       }
 6825              		.loc 1 1670 0 is_stmt 0 discriminator 1
 6826 0052 4FF08052 		mov	r2, #268435456
 6827 0056 124B     		ldr	r3, .L734+4
 6828 0058 1A60     		str	r2, [r3]
 6829              		.syntax unified
 6830              	@ 1670 "Middlewares/Third_Party/FreeRTOS/Source/CMSIS_RTOS_V2/cmsis_os2.c" 1
 6831 005a BFF34F8F 		dsb
 6832              	@ 0 "" 2
 6833              	@ 1670 "Middlewares/Third_Party/FreeRTOS/Source/CMSIS_RTOS_V2/cmsis_os2.c" 1
 6834 005e BFF36F8F 		isb
 6835              	@ 0 "" 2
1658:Middlewares/Third_Party/FreeRTOS/Source/CMSIS_RTOS_V2/cmsis_os2.c **** 
 6836              		.loc 1 1658 0 is_stmt 1 discriminator 1
 6837              		.thumb
 6838              		.syntax unified
 6839 0062 0020     		movs	r0, #0
 6840              	.LVL602:
 6841              	.L719:
1682:Middlewares/Third_Party/FreeRTOS/Source/CMSIS_RTOS_V2/cmsis_os2.c ****         } else {
1683:Middlewares/Third_Party/FreeRTOS/Source/CMSIS_RTOS_V2/cmsis_os2.c ****           stat = osErrorResource;
1684:Middlewares/Third_Party/FreeRTOS/Source/CMSIS_RTOS_V2/cmsis_os2.c ****         }
1685:Middlewares/Third_Party/FreeRTOS/Source/CMSIS_RTOS_V2/cmsis_os2.c ****       }
1686:Middlewares/Third_Party/FreeRTOS/Source/CMSIS_RTOS_V2/cmsis_os2.c ****     }
1687:Middlewares/Third_Party/FreeRTOS/Source/CMSIS_RTOS_V2/cmsis_os2.c ****   }
1688:Middlewares/Third_Party/FreeRTOS/Source/CMSIS_RTOS_V2/cmsis_os2.c **** 
1689:Middlewares/Third_Party/FreeRTOS/Source/CMSIS_RTOS_V2/cmsis_os2.c ****   return (stat);
1690:Middlewares/Third_Party/FreeRTOS/Source/CMSIS_RTOS_V2/cmsis_os2.c **** }
 6842              		.loc 1 1690 0
 6843 0064 02B0     		add	sp, sp, #8
 6844              	.LCFI124:
 6845              		.cfi_remember_state
 6846              		.cfi_def_cfa_offset 8
 6847              		@ sp needed
 6848 0066 10BD     		pop	{r4, pc}
 6849              	.LVL603:
 6850              	.L724:
 6851              	.LCFI125:
 6852              		.cfi_restore_state
1662:Middlewares/Third_Party/FreeRTOS/Source/CMSIS_RTOS_V2/cmsis_os2.c ****     }
ARM GAS  /tmp/ccZrYRqG.s 			page 169


 6853              		.loc 1 1662 0
 6854 0068 6FF00300 		mvn	r0, #3
 6855              	.LVL604:
 6856 006c FAE7     		b	.L719
 6857              	.LVL605:
 6858              	.L725:
 6859 006e 6FF00300 		mvn	r0, #3
 6860              	.LVL606:
 6861 0072 F7E7     		b	.L719
 6862              	.LVL607:
 6863              	.L726:
 6864 0074 6FF00300 		mvn	r0, #3
 6865              	.LVL608:
 6866 0078 F4E7     		b	.L719
 6867              	.LVL609:
 6868              	.L727:
1668:Middlewares/Third_Party/FreeRTOS/Source/CMSIS_RTOS_V2/cmsis_os2.c ****       } else {
 6869              		.loc 1 1668 0
 6870 007a 6FF00200 		mvn	r0, #2
 6871 007e F1E7     		b	.L719
 6872              	.L728:
1658:Middlewares/Third_Party/FreeRTOS/Source/CMSIS_RTOS_V2/cmsis_os2.c **** 
 6873              		.loc 1 1658 0
 6874 0080 0020     		movs	r0, #0
 6875 0082 EFE7     		b	.L719
 6876              	.LVL610:
 6877              	.L729:
1676:Middlewares/Third_Party/FreeRTOS/Source/CMSIS_RTOS_V2/cmsis_os2.c ****     }
 6878              		.loc 1 1676 0
 6879 0084 6FF00300 		mvn	r0, #3
 6880              	.LVL611:
 6881 0088 ECE7     		b	.L719
 6882              	.LVL612:
 6883              	.L730:
 6884 008a 6FF00300 		mvn	r0, #3
 6885              	.LVL613:
 6886 008e E9E7     		b	.L719
 6887              	.LVL614:
 6888              	.L731:
1658:Middlewares/Third_Party/FreeRTOS/Source/CMSIS_RTOS_V2/cmsis_os2.c **** 
 6889              		.loc 1 1658 0
 6890 0090 0020     		movs	r0, #0
 6891 0092 E7E7     		b	.L719
 6892              	.L732:
1683:Middlewares/Third_Party/FreeRTOS/Source/CMSIS_RTOS_V2/cmsis_os2.c ****         }
 6893              		.loc 1 1683 0
 6894 0094 6FF00200 		mvn	r0, #2
 6895              	.LVL615:
1689:Middlewares/Third_Party/FreeRTOS/Source/CMSIS_RTOS_V2/cmsis_os2.c **** }
 6896              		.loc 1 1689 0
 6897 0098 E4E7     		b	.L719
 6898              	.L735:
 6899 009a 00BF     		.align	2
 6900              	.L734:
 6901 009c 00000000 		.word	.LANCHOR0
 6902 00a0 04ED00E0 		.word	-536810236
 6903              		.cfi_endproc
ARM GAS  /tmp/ccZrYRqG.s 			page 170


 6904              	.LFE162:
 6906              		.section	.text.osMessageQueueGet,"ax",%progbits
 6907              		.align	1
 6908              		.global	osMessageQueueGet
 6909              		.syntax unified
 6910              		.thumb
 6911              		.thumb_func
 6912              		.fpu fpv4-sp-d16
 6914              	osMessageQueueGet:
 6915              	.LFB163:
1691:Middlewares/Third_Party/FreeRTOS/Source/CMSIS_RTOS_V2/cmsis_os2.c **** 
1692:Middlewares/Third_Party/FreeRTOS/Source/CMSIS_RTOS_V2/cmsis_os2.c **** osStatus_t osMessageQueueGet (osMessageQueueId_t mq_id, void *msg_ptr, uint8_t *msg_prio, uint32_t 
 6916              		.loc 1 1692 0
 6917              		.cfi_startproc
 6918              		@ args = 0, pretend = 0, frame = 8
 6919              		@ frame_needed = 0, uses_anonymous_args = 0
 6920              	.LVL616:
 6921 0000 10B5     		push	{r4, lr}
 6922              	.LCFI126:
 6923              		.cfi_def_cfa_offset 8
 6924              		.cfi_offset 4, -8
 6925              		.cfi_offset 14, -4
 6926 0002 82B0     		sub	sp, sp, #8
 6927              	.LCFI127:
 6928              		.cfi_def_cfa_offset 16
 6929 0004 1C46     		mov	r4, r3
 6930              	.LVL617:
 6931              	.LBB636:
 6932              	.LBB637:
 209:Drivers/CMSIS/Include/cmsis_gcc.h ****   return(result);
 6933              		.loc 2 209 0
 6934              		.syntax unified
 6935              	@ 209 "Drivers/CMSIS/Include/cmsis_gcc.h" 1
 6936 0006 EFF30583 		MRS r3, ipsr
 6937              	@ 0 "" 2
 6938              	.LVL618:
 6939              		.thumb
 6940              		.syntax unified
 6941              	.LBE637:
 6942              	.LBE636:
1693:Middlewares/Third_Party/FreeRTOS/Source/CMSIS_RTOS_V2/cmsis_os2.c ****   QueueHandle_t hQueue = (QueueHandle_t)mq_id;
1694:Middlewares/Third_Party/FreeRTOS/Source/CMSIS_RTOS_V2/cmsis_os2.c ****   osStatus_t stat;
1695:Middlewares/Third_Party/FreeRTOS/Source/CMSIS_RTOS_V2/cmsis_os2.c ****   BaseType_t yield;
1696:Middlewares/Third_Party/FreeRTOS/Source/CMSIS_RTOS_V2/cmsis_os2.c **** 
1697:Middlewares/Third_Party/FreeRTOS/Source/CMSIS_RTOS_V2/cmsis_os2.c ****   (void)msg_prio; /* Message priority is ignored */
1698:Middlewares/Third_Party/FreeRTOS/Source/CMSIS_RTOS_V2/cmsis_os2.c **** 
1699:Middlewares/Third_Party/FreeRTOS/Source/CMSIS_RTOS_V2/cmsis_os2.c ****   stat = osOK;
1700:Middlewares/Third_Party/FreeRTOS/Source/CMSIS_RTOS_V2/cmsis_os2.c **** 
1701:Middlewares/Third_Party/FreeRTOS/Source/CMSIS_RTOS_V2/cmsis_os2.c ****   if (IS_IRQ()) {
 6943              		.loc 1 1701 0
 6944 000a A3B9     		cbnz	r3, .L737
 6945              	.LBB638:
 6946              	.LBB639:
 386:Drivers/CMSIS/Include/cmsis_gcc.h ****   return(result);
 6947              		.loc 2 386 0
 6948              		.syntax unified
 6949              	@ 386 "Drivers/CMSIS/Include/cmsis_gcc.h" 1
ARM GAS  /tmp/ccZrYRqG.s 			page 171


 6950 000c EFF31083 		MRS r3, primask
 6951              	@ 0 "" 2
 6952              		.thumb
 6953              		.syntax unified
 6954              	.LBE639:
 6955              	.LBE638:
 6956              		.loc 1 1701 0
 6957 0010 13B9     		cbnz	r3, .L738
 6958              	.LBB640:
 6959              	.LBB641:
 6960              		.loc 2 465 0
 6961              		.syntax unified
 6962              	@ 465 "Drivers/CMSIS/Include/cmsis_gcc.h" 1
 6963 0012 EFF31183 		MRS r3, basepri
 6964              	@ 0 "" 2
 6965              		.thumb
 6966              		.syntax unified
 6967              	.LBE641:
 6968              	.LBE640:
 6969              		.loc 1 1701 0
 6970 0016 1BB1     		cbz	r3, .L739
 6971              	.L738:
 6972              		.loc 1 1701 0 is_stmt 0 discriminator 4
 6973 0018 1F4B     		ldr	r3, .L751
 6974 001a 1B68     		ldr	r3, [r3]
 6975 001c 022B     		cmp	r3, #2
 6976 001e 0AD0     		beq	.L737
 6977              	.L739:
1702:Middlewares/Third_Party/FreeRTOS/Source/CMSIS_RTOS_V2/cmsis_os2.c ****     if ((hQueue == NULL) || (msg_ptr == NULL) || (timeout != 0U)) {
1703:Middlewares/Third_Party/FreeRTOS/Source/CMSIS_RTOS_V2/cmsis_os2.c ****       stat = osErrorParameter;
1704:Middlewares/Third_Party/FreeRTOS/Source/CMSIS_RTOS_V2/cmsis_os2.c ****     }
1705:Middlewares/Third_Party/FreeRTOS/Source/CMSIS_RTOS_V2/cmsis_os2.c ****     else {
1706:Middlewares/Third_Party/FreeRTOS/Source/CMSIS_RTOS_V2/cmsis_os2.c ****       yield = pdFALSE;
1707:Middlewares/Third_Party/FreeRTOS/Source/CMSIS_RTOS_V2/cmsis_os2.c **** 
1708:Middlewares/Third_Party/FreeRTOS/Source/CMSIS_RTOS_V2/cmsis_os2.c ****       if (xQueueReceiveFromISR (hQueue, msg_ptr, &yield) != pdPASS) {
1709:Middlewares/Third_Party/FreeRTOS/Source/CMSIS_RTOS_V2/cmsis_os2.c ****         stat = osErrorResource;
1710:Middlewares/Third_Party/FreeRTOS/Source/CMSIS_RTOS_V2/cmsis_os2.c ****       } else {
1711:Middlewares/Third_Party/FreeRTOS/Source/CMSIS_RTOS_V2/cmsis_os2.c ****         portYIELD_FROM_ISR (yield);
1712:Middlewares/Third_Party/FreeRTOS/Source/CMSIS_RTOS_V2/cmsis_os2.c ****       }
1713:Middlewares/Third_Party/FreeRTOS/Source/CMSIS_RTOS_V2/cmsis_os2.c ****     }
1714:Middlewares/Third_Party/FreeRTOS/Source/CMSIS_RTOS_V2/cmsis_os2.c ****   }
1715:Middlewares/Third_Party/FreeRTOS/Source/CMSIS_RTOS_V2/cmsis_os2.c ****   else {
1716:Middlewares/Third_Party/FreeRTOS/Source/CMSIS_RTOS_V2/cmsis_os2.c ****     if ((hQueue == NULL) || (msg_ptr == NULL)) {
 6978              		.loc 1 1716 0 is_stmt 1
 6979 0020 78B3     		cbz	r0, .L746
 6980              		.loc 1 1716 0 is_stmt 0 discriminator 1
 6981 0022 89B3     		cbz	r1, .L747
1717:Middlewares/Third_Party/FreeRTOS/Source/CMSIS_RTOS_V2/cmsis_os2.c ****       stat = osErrorParameter;
1718:Middlewares/Third_Party/FreeRTOS/Source/CMSIS_RTOS_V2/cmsis_os2.c ****     }
1719:Middlewares/Third_Party/FreeRTOS/Source/CMSIS_RTOS_V2/cmsis_os2.c ****     else {
1720:Middlewares/Third_Party/FreeRTOS/Source/CMSIS_RTOS_V2/cmsis_os2.c ****       if (xQueueReceive (hQueue, msg_ptr, (TickType_t)timeout) != pdPASS) {
 6982              		.loc 1 1720 0 is_stmt 1
 6983 0024 2246     		mov	r2, r4
 6984              	.LVL619:
 6985 0026 FFF7FEFF 		bl	xQueueReceive
 6986              	.LVL620:
 6987 002a 0128     		cmp	r0, #1
ARM GAS  /tmp/ccZrYRqG.s 			page 172


 6988 002c 2FD0     		beq	.L748
1721:Middlewares/Third_Party/FreeRTOS/Source/CMSIS_RTOS_V2/cmsis_os2.c ****         if (timeout != 0U) {
 6989              		.loc 1 1721 0
 6990 002e 84B3     		cbz	r4, .L749
1722:Middlewares/Third_Party/FreeRTOS/Source/CMSIS_RTOS_V2/cmsis_os2.c ****           stat = osErrorTimeout;
 6991              		.loc 1 1722 0
 6992 0030 6FF00100 		mvn	r0, #1
 6993 0034 15E0     		b	.L736
 6994              	.LVL621:
 6995              	.L737:
1702:Middlewares/Third_Party/FreeRTOS/Source/CMSIS_RTOS_V2/cmsis_os2.c ****       stat = osErrorParameter;
 6996              		.loc 1 1702 0
 6997 0036 B0B1     		cbz	r0, .L741
1702:Middlewares/Third_Party/FreeRTOS/Source/CMSIS_RTOS_V2/cmsis_os2.c ****       stat = osErrorParameter;
 6998              		.loc 1 1702 0 is_stmt 0 discriminator 1
 6999 0038 C1B1     		cbz	r1, .L742
1702:Middlewares/Third_Party/FreeRTOS/Source/CMSIS_RTOS_V2/cmsis_os2.c ****       stat = osErrorParameter;
 7000              		.loc 1 1702 0 discriminator 2
 7001 003a D4B9     		cbnz	r4, .L743
1706:Middlewares/Third_Party/FreeRTOS/Source/CMSIS_RTOS_V2/cmsis_os2.c **** 
 7002              		.loc 1 1706 0 is_stmt 1
 7003 003c 02AA     		add	r2, sp, #8
 7004              	.LVL622:
 7005 003e 0023     		movs	r3, #0
 7006 0040 42F8043D 		str	r3, [r2, #-4]!
1708:Middlewares/Third_Party/FreeRTOS/Source/CMSIS_RTOS_V2/cmsis_os2.c ****         stat = osErrorResource;
 7007              		.loc 1 1708 0
 7008 0044 FFF7FEFF 		bl	xQueueReceiveFromISR
 7009              	.LVL623:
 7010 0048 0128     		cmp	r0, #1
 7011 004a 15D1     		bne	.L744
1711:Middlewares/Third_Party/FreeRTOS/Source/CMSIS_RTOS_V2/cmsis_os2.c ****       }
 7012              		.loc 1 1711 0
 7013 004c 019B     		ldr	r3, [sp, #4]
 7014 004e B3B1     		cbz	r3, .L745
1711:Middlewares/Third_Party/FreeRTOS/Source/CMSIS_RTOS_V2/cmsis_os2.c ****       }
 7015              		.loc 1 1711 0 is_stmt 0 discriminator 1
 7016 0050 4FF08052 		mov	r2, #268435456
 7017 0054 114B     		ldr	r3, .L751+4
 7018 0056 1A60     		str	r2, [r3]
 7019              		.syntax unified
 7020              	@ 1711 "Middlewares/Third_Party/FreeRTOS/Source/CMSIS_RTOS_V2/cmsis_os2.c" 1
 7021 0058 BFF34F8F 		dsb
 7022              	@ 0 "" 2
 7023              	@ 1711 "Middlewares/Third_Party/FreeRTOS/Source/CMSIS_RTOS_V2/cmsis_os2.c" 1
 7024 005c BFF36F8F 		isb
 7025              	@ 0 "" 2
1699:Middlewares/Third_Party/FreeRTOS/Source/CMSIS_RTOS_V2/cmsis_os2.c **** 
 7026              		.loc 1 1699 0 is_stmt 1 discriminator 1
 7027              		.thumb
 7028              		.syntax unified
 7029 0060 0020     		movs	r0, #0
 7030              	.LVL624:
 7031              	.L736:
1723:Middlewares/Third_Party/FreeRTOS/Source/CMSIS_RTOS_V2/cmsis_os2.c ****         } else {
1724:Middlewares/Third_Party/FreeRTOS/Source/CMSIS_RTOS_V2/cmsis_os2.c ****           stat = osErrorResource;
1725:Middlewares/Third_Party/FreeRTOS/Source/CMSIS_RTOS_V2/cmsis_os2.c ****         }
ARM GAS  /tmp/ccZrYRqG.s 			page 173


1726:Middlewares/Third_Party/FreeRTOS/Source/CMSIS_RTOS_V2/cmsis_os2.c ****       }
1727:Middlewares/Third_Party/FreeRTOS/Source/CMSIS_RTOS_V2/cmsis_os2.c ****     }
1728:Middlewares/Third_Party/FreeRTOS/Source/CMSIS_RTOS_V2/cmsis_os2.c ****   }
1729:Middlewares/Third_Party/FreeRTOS/Source/CMSIS_RTOS_V2/cmsis_os2.c **** 
1730:Middlewares/Third_Party/FreeRTOS/Source/CMSIS_RTOS_V2/cmsis_os2.c ****   return (stat);
1731:Middlewares/Third_Party/FreeRTOS/Source/CMSIS_RTOS_V2/cmsis_os2.c **** }
 7032              		.loc 1 1731 0
 7033 0062 02B0     		add	sp, sp, #8
 7034              	.LCFI128:
 7035              		.cfi_remember_state
 7036              		.cfi_def_cfa_offset 8
 7037              		@ sp needed
 7038 0064 10BD     		pop	{r4, pc}
 7039              	.LVL625:
 7040              	.L741:
 7041              	.LCFI129:
 7042              		.cfi_restore_state
1703:Middlewares/Third_Party/FreeRTOS/Source/CMSIS_RTOS_V2/cmsis_os2.c ****     }
 7043              		.loc 1 1703 0
 7044 0066 6FF00300 		mvn	r0, #3
 7045              	.LVL626:
 7046 006a FAE7     		b	.L736
 7047              	.LVL627:
 7048              	.L742:
 7049 006c 6FF00300 		mvn	r0, #3
 7050              	.LVL628:
 7051 0070 F7E7     		b	.L736
 7052              	.LVL629:
 7053              	.L743:
 7054 0072 6FF00300 		mvn	r0, #3
 7055              	.LVL630:
 7056 0076 F4E7     		b	.L736
 7057              	.LVL631:
 7058              	.L744:
1709:Middlewares/Third_Party/FreeRTOS/Source/CMSIS_RTOS_V2/cmsis_os2.c ****       } else {
 7059              		.loc 1 1709 0
 7060 0078 6FF00200 		mvn	r0, #2
 7061 007c F1E7     		b	.L736
 7062              	.L745:
1699:Middlewares/Third_Party/FreeRTOS/Source/CMSIS_RTOS_V2/cmsis_os2.c **** 
 7063              		.loc 1 1699 0
 7064 007e 0020     		movs	r0, #0
 7065 0080 EFE7     		b	.L736
 7066              	.LVL632:
 7067              	.L746:
1717:Middlewares/Third_Party/FreeRTOS/Source/CMSIS_RTOS_V2/cmsis_os2.c ****     }
 7068              		.loc 1 1717 0
 7069 0082 6FF00300 		mvn	r0, #3
 7070              	.LVL633:
 7071 0086 ECE7     		b	.L736
 7072              	.LVL634:
 7073              	.L747:
 7074 0088 6FF00300 		mvn	r0, #3
 7075              	.LVL635:
 7076 008c E9E7     		b	.L736
 7077              	.LVL636:
 7078              	.L748:
ARM GAS  /tmp/ccZrYRqG.s 			page 174


1699:Middlewares/Third_Party/FreeRTOS/Source/CMSIS_RTOS_V2/cmsis_os2.c **** 
 7079              		.loc 1 1699 0
 7080 008e 0020     		movs	r0, #0
 7081 0090 E7E7     		b	.L736
 7082              	.L749:
1724:Middlewares/Third_Party/FreeRTOS/Source/CMSIS_RTOS_V2/cmsis_os2.c ****         }
 7083              		.loc 1 1724 0
 7084 0092 6FF00200 		mvn	r0, #2
 7085              	.LVL637:
1730:Middlewares/Third_Party/FreeRTOS/Source/CMSIS_RTOS_V2/cmsis_os2.c **** }
 7086              		.loc 1 1730 0
 7087 0096 E4E7     		b	.L736
 7088              	.L752:
 7089              		.align	2
 7090              	.L751:
 7091 0098 00000000 		.word	.LANCHOR0
 7092 009c 04ED00E0 		.word	-536810236
 7093              		.cfi_endproc
 7094              	.LFE163:
 7096              		.section	.text.osMessageQueueGetCapacity,"ax",%progbits
 7097              		.align	1
 7098              		.global	osMessageQueueGetCapacity
 7099              		.syntax unified
 7100              		.thumb
 7101              		.thumb_func
 7102              		.fpu fpv4-sp-d16
 7104              	osMessageQueueGetCapacity:
 7105              	.LFB164:
1732:Middlewares/Third_Party/FreeRTOS/Source/CMSIS_RTOS_V2/cmsis_os2.c **** 
1733:Middlewares/Third_Party/FreeRTOS/Source/CMSIS_RTOS_V2/cmsis_os2.c **** uint32_t osMessageQueueGetCapacity (osMessageQueueId_t mq_id) {
 7106              		.loc 1 1733 0
 7107              		.cfi_startproc
 7108              		@ args = 0, pretend = 0, frame = 0
 7109              		@ frame_needed = 0, uses_anonymous_args = 0
 7110              		@ link register save eliminated.
 7111              	.LVL638:
1734:Middlewares/Third_Party/FreeRTOS/Source/CMSIS_RTOS_V2/cmsis_os2.c ****   StaticQueue_t *mq = (StaticQueue_t *)mq_id;
1735:Middlewares/Third_Party/FreeRTOS/Source/CMSIS_RTOS_V2/cmsis_os2.c ****   uint32_t capacity;
1736:Middlewares/Third_Party/FreeRTOS/Source/CMSIS_RTOS_V2/cmsis_os2.c **** 
1737:Middlewares/Third_Party/FreeRTOS/Source/CMSIS_RTOS_V2/cmsis_os2.c ****   if (mq == NULL) {
 7112              		.loc 1 1737 0
 7113 0000 08B1     		cbz	r0, .L755
1738:Middlewares/Third_Party/FreeRTOS/Source/CMSIS_RTOS_V2/cmsis_os2.c ****     capacity = 0U;
1739:Middlewares/Third_Party/FreeRTOS/Source/CMSIS_RTOS_V2/cmsis_os2.c ****   } else {
1740:Middlewares/Third_Party/FreeRTOS/Source/CMSIS_RTOS_V2/cmsis_os2.c ****     /* capacity = pxQueue->uxLength */
1741:Middlewares/Third_Party/FreeRTOS/Source/CMSIS_RTOS_V2/cmsis_os2.c ****     capacity = mq->uxDummy4[1];
 7114              		.loc 1 1741 0
 7115 0002 C06B     		ldr	r0, [r0, #60]
 7116              	.LVL639:
 7117 0004 7047     		bx	lr
 7118              	.LVL640:
 7119              	.L755:
1738:Middlewares/Third_Party/FreeRTOS/Source/CMSIS_RTOS_V2/cmsis_os2.c ****     capacity = 0U;
 7120              		.loc 1 1738 0
 7121 0006 0020     		movs	r0, #0
 7122              	.LVL641:
1742:Middlewares/Third_Party/FreeRTOS/Source/CMSIS_RTOS_V2/cmsis_os2.c ****   }
ARM GAS  /tmp/ccZrYRqG.s 			page 175


1743:Middlewares/Third_Party/FreeRTOS/Source/CMSIS_RTOS_V2/cmsis_os2.c **** 
1744:Middlewares/Third_Party/FreeRTOS/Source/CMSIS_RTOS_V2/cmsis_os2.c ****   return (capacity);
1745:Middlewares/Third_Party/FreeRTOS/Source/CMSIS_RTOS_V2/cmsis_os2.c **** }
 7123              		.loc 1 1745 0
 7124 0008 7047     		bx	lr
 7125              		.cfi_endproc
 7126              	.LFE164:
 7128              		.section	.text.osMessageQueueGetMsgSize,"ax",%progbits
 7129              		.align	1
 7130              		.global	osMessageQueueGetMsgSize
 7131              		.syntax unified
 7132              		.thumb
 7133              		.thumb_func
 7134              		.fpu fpv4-sp-d16
 7136              	osMessageQueueGetMsgSize:
 7137              	.LFB165:
1746:Middlewares/Third_Party/FreeRTOS/Source/CMSIS_RTOS_V2/cmsis_os2.c **** 
1747:Middlewares/Third_Party/FreeRTOS/Source/CMSIS_RTOS_V2/cmsis_os2.c **** uint32_t osMessageQueueGetMsgSize (osMessageQueueId_t mq_id) {
 7138              		.loc 1 1747 0
 7139              		.cfi_startproc
 7140              		@ args = 0, pretend = 0, frame = 0
 7141              		@ frame_needed = 0, uses_anonymous_args = 0
 7142              		@ link register save eliminated.
 7143              	.LVL642:
1748:Middlewares/Third_Party/FreeRTOS/Source/CMSIS_RTOS_V2/cmsis_os2.c ****   StaticQueue_t *mq = (StaticQueue_t *)mq_id;
1749:Middlewares/Third_Party/FreeRTOS/Source/CMSIS_RTOS_V2/cmsis_os2.c ****   uint32_t size;
1750:Middlewares/Third_Party/FreeRTOS/Source/CMSIS_RTOS_V2/cmsis_os2.c **** 
1751:Middlewares/Third_Party/FreeRTOS/Source/CMSIS_RTOS_V2/cmsis_os2.c ****   if (mq == NULL) {
 7144              		.loc 1 1751 0
 7145 0000 08B1     		cbz	r0, .L758
1752:Middlewares/Third_Party/FreeRTOS/Source/CMSIS_RTOS_V2/cmsis_os2.c ****     size = 0U;
1753:Middlewares/Third_Party/FreeRTOS/Source/CMSIS_RTOS_V2/cmsis_os2.c ****   } else {
1754:Middlewares/Third_Party/FreeRTOS/Source/CMSIS_RTOS_V2/cmsis_os2.c ****     /* size = pxQueue->uxItemSize */
1755:Middlewares/Third_Party/FreeRTOS/Source/CMSIS_RTOS_V2/cmsis_os2.c ****     size = mq->uxDummy4[2];
 7146              		.loc 1 1755 0
 7147 0002 006C     		ldr	r0, [r0, #64]
 7148              	.LVL643:
 7149 0004 7047     		bx	lr
 7150              	.LVL644:
 7151              	.L758:
1752:Middlewares/Third_Party/FreeRTOS/Source/CMSIS_RTOS_V2/cmsis_os2.c ****     size = 0U;
 7152              		.loc 1 1752 0
 7153 0006 0020     		movs	r0, #0
 7154              	.LVL645:
1756:Middlewares/Third_Party/FreeRTOS/Source/CMSIS_RTOS_V2/cmsis_os2.c ****   }
1757:Middlewares/Third_Party/FreeRTOS/Source/CMSIS_RTOS_V2/cmsis_os2.c **** 
1758:Middlewares/Third_Party/FreeRTOS/Source/CMSIS_RTOS_V2/cmsis_os2.c ****   return (size);
1759:Middlewares/Third_Party/FreeRTOS/Source/CMSIS_RTOS_V2/cmsis_os2.c **** }
 7155              		.loc 1 1759 0
 7156 0008 7047     		bx	lr
 7157              		.cfi_endproc
 7158              	.LFE165:
 7160              		.section	.text.osMessageQueueGetCount,"ax",%progbits
 7161              		.align	1
 7162              		.global	osMessageQueueGetCount
 7163              		.syntax unified
 7164              		.thumb
ARM GAS  /tmp/ccZrYRqG.s 			page 176


 7165              		.thumb_func
 7166              		.fpu fpv4-sp-d16
 7168              	osMessageQueueGetCount:
 7169              	.LFB166:
1760:Middlewares/Third_Party/FreeRTOS/Source/CMSIS_RTOS_V2/cmsis_os2.c **** 
1761:Middlewares/Third_Party/FreeRTOS/Source/CMSIS_RTOS_V2/cmsis_os2.c **** uint32_t osMessageQueueGetCount (osMessageQueueId_t mq_id) {
 7170              		.loc 1 1761 0
 7171              		.cfi_startproc
 7172              		@ args = 0, pretend = 0, frame = 0
 7173              		@ frame_needed = 0, uses_anonymous_args = 0
 7174              	.LVL646:
1762:Middlewares/Third_Party/FreeRTOS/Source/CMSIS_RTOS_V2/cmsis_os2.c ****   QueueHandle_t hQueue = (QueueHandle_t)mq_id;
1763:Middlewares/Third_Party/FreeRTOS/Source/CMSIS_RTOS_V2/cmsis_os2.c ****   UBaseType_t count;
1764:Middlewares/Third_Party/FreeRTOS/Source/CMSIS_RTOS_V2/cmsis_os2.c **** 
1765:Middlewares/Third_Party/FreeRTOS/Source/CMSIS_RTOS_V2/cmsis_os2.c ****   if (hQueue == NULL) {
 7175              		.loc 1 1765 0
 7176 0000 98B1     		cbz	r0, .L764
1761:Middlewares/Third_Party/FreeRTOS/Source/CMSIS_RTOS_V2/cmsis_os2.c ****   QueueHandle_t hQueue = (QueueHandle_t)mq_id;
 7177              		.loc 1 1761 0
 7178 0002 08B5     		push	{r3, lr}
 7179              	.LCFI130:
 7180              		.cfi_def_cfa_offset 8
 7181              		.cfi_offset 3, -8
 7182              		.cfi_offset 14, -4
 7183              	.LBB642:
 7184              	.LBB643:
 209:Drivers/CMSIS/Include/cmsis_gcc.h ****   return(result);
 7185              		.loc 2 209 0
 7186              		.syntax unified
 7187              	@ 209 "Drivers/CMSIS/Include/cmsis_gcc.h" 1
 7188 0004 EFF30583 		MRS r3, ipsr
 7189              	@ 0 "" 2
 7190              		.thumb
 7191              		.syntax unified
 7192              	.LBE643:
 7193              	.LBE642:
1766:Middlewares/Third_Party/FreeRTOS/Source/CMSIS_RTOS_V2/cmsis_os2.c ****     count = 0U;
1767:Middlewares/Third_Party/FreeRTOS/Source/CMSIS_RTOS_V2/cmsis_os2.c ****   }
1768:Middlewares/Third_Party/FreeRTOS/Source/CMSIS_RTOS_V2/cmsis_os2.c ****   else if (IS_IRQ()) {
 7194              		.loc 1 1768 0
 7195 0008 63B9     		cbnz	r3, .L761
 7196              	.LBB644:
 7197              	.LBB645:
 386:Drivers/CMSIS/Include/cmsis_gcc.h ****   return(result);
 7198              		.loc 2 386 0
 7199              		.syntax unified
 7200              	@ 386 "Drivers/CMSIS/Include/cmsis_gcc.h" 1
 7201 000a EFF31083 		MRS r3, primask
 7202              	@ 0 "" 2
 7203              		.thumb
 7204              		.syntax unified
 7205              	.LBE645:
 7206              	.LBE644:
 7207              		.loc 1 1768 0
 7208 000e 13B9     		cbnz	r3, .L762
 7209              	.LBB646:
 7210              	.LBB647:
ARM GAS  /tmp/ccZrYRqG.s 			page 177


 7211              		.loc 2 465 0
 7212              		.syntax unified
 7213              	@ 465 "Drivers/CMSIS/Include/cmsis_gcc.h" 1
 7214 0010 EFF31183 		MRS r3, basepri
 7215              	@ 0 "" 2
 7216              		.thumb
 7217              		.syntax unified
 7218              	.LBE647:
 7219              	.LBE646:
 7220              		.loc 1 1768 0
 7221 0014 1BB1     		cbz	r3, .L763
 7222              	.L762:
 7223              		.loc 1 1768 0 is_stmt 0 discriminator 4
 7224 0016 064B     		ldr	r3, .L769
 7225 0018 1B68     		ldr	r3, [r3]
 7226 001a 022B     		cmp	r3, #2
 7227 001c 02D0     		beq	.L761
 7228              	.L763:
1769:Middlewares/Third_Party/FreeRTOS/Source/CMSIS_RTOS_V2/cmsis_os2.c ****     count = uxQueueMessagesWaitingFromISR (hQueue);
1770:Middlewares/Third_Party/FreeRTOS/Source/CMSIS_RTOS_V2/cmsis_os2.c ****   }
1771:Middlewares/Third_Party/FreeRTOS/Source/CMSIS_RTOS_V2/cmsis_os2.c ****   else {
1772:Middlewares/Third_Party/FreeRTOS/Source/CMSIS_RTOS_V2/cmsis_os2.c ****     count = uxQueueMessagesWaiting (hQueue);
 7229              		.loc 1 1772 0 is_stmt 1
 7230 001e FFF7FEFF 		bl	uxQueueMessagesWaiting
 7231              	.LVL647:
 7232 0022 08BD     		pop	{r3, pc}
 7233              	.LVL648:
 7234              	.L761:
1769:Middlewares/Third_Party/FreeRTOS/Source/CMSIS_RTOS_V2/cmsis_os2.c ****     count = uxQueueMessagesWaitingFromISR (hQueue);
 7235              		.loc 1 1769 0
 7236 0024 FFF7FEFF 		bl	uxQueueMessagesWaitingFromISR
 7237              	.LVL649:
 7238 0028 08BD     		pop	{r3, pc}
 7239              	.LVL650:
 7240              	.L764:
 7241              	.LCFI131:
 7242              		.cfi_def_cfa_offset 0
 7243              		.cfi_restore 3
 7244              		.cfi_restore 14
1766:Middlewares/Third_Party/FreeRTOS/Source/CMSIS_RTOS_V2/cmsis_os2.c ****   }
 7245              		.loc 1 1766 0
 7246 002a 0020     		movs	r0, #0
 7247              	.LVL651:
1773:Middlewares/Third_Party/FreeRTOS/Source/CMSIS_RTOS_V2/cmsis_os2.c ****   }
1774:Middlewares/Third_Party/FreeRTOS/Source/CMSIS_RTOS_V2/cmsis_os2.c **** 
1775:Middlewares/Third_Party/FreeRTOS/Source/CMSIS_RTOS_V2/cmsis_os2.c ****   return ((uint32_t)count);
 7248              		.loc 1 1775 0
 7249 002c 7047     		bx	lr
 7250              	.L770:
 7251 002e 00BF     		.align	2
 7252              	.L769:
 7253 0030 00000000 		.word	.LANCHOR0
 7254              		.cfi_endproc
 7255              	.LFE166:
 7257              		.section	.text.osMessageQueueGetSpace,"ax",%progbits
 7258              		.align	1
 7259              		.global	osMessageQueueGetSpace
ARM GAS  /tmp/ccZrYRqG.s 			page 178


 7260              		.syntax unified
 7261              		.thumb
 7262              		.thumb_func
 7263              		.fpu fpv4-sp-d16
 7265              	osMessageQueueGetSpace:
 7266              	.LFB167:
1776:Middlewares/Third_Party/FreeRTOS/Source/CMSIS_RTOS_V2/cmsis_os2.c **** }
1777:Middlewares/Third_Party/FreeRTOS/Source/CMSIS_RTOS_V2/cmsis_os2.c **** 
1778:Middlewares/Third_Party/FreeRTOS/Source/CMSIS_RTOS_V2/cmsis_os2.c **** uint32_t osMessageQueueGetSpace (osMessageQueueId_t mq_id) {
 7267              		.loc 1 1778 0
 7268              		.cfi_startproc
 7269              		@ args = 0, pretend = 0, frame = 0
 7270              		@ frame_needed = 0, uses_anonymous_args = 0
 7271              	.LVL652:
1779:Middlewares/Third_Party/FreeRTOS/Source/CMSIS_RTOS_V2/cmsis_os2.c ****   StaticQueue_t *mq = (StaticQueue_t *)mq_id;
1780:Middlewares/Third_Party/FreeRTOS/Source/CMSIS_RTOS_V2/cmsis_os2.c ****   uint32_t space;
1781:Middlewares/Third_Party/FreeRTOS/Source/CMSIS_RTOS_V2/cmsis_os2.c ****   uint32_t isrm;
1782:Middlewares/Third_Party/FreeRTOS/Source/CMSIS_RTOS_V2/cmsis_os2.c **** 
1783:Middlewares/Third_Party/FreeRTOS/Source/CMSIS_RTOS_V2/cmsis_os2.c ****   if (mq == NULL) {
 7272              		.loc 1 1783 0
 7273 0000 10B3     		cbz	r0, .L776
1778:Middlewares/Third_Party/FreeRTOS/Source/CMSIS_RTOS_V2/cmsis_os2.c ****   StaticQueue_t *mq = (StaticQueue_t *)mq_id;
 7274              		.loc 1 1778 0
 7275 0002 08B5     		push	{r3, lr}
 7276              	.LCFI132:
 7277              		.cfi_def_cfa_offset 8
 7278              		.cfi_offset 3, -8
 7279              		.cfi_offset 14, -4
 7280 0004 0346     		mov	r3, r0
 7281              	.LBB648:
 7282              	.LBB649:
 209:Drivers/CMSIS/Include/cmsis_gcc.h ****   return(result);
 7283              		.loc 2 209 0
 7284              		.syntax unified
 7285              	@ 209 "Drivers/CMSIS/Include/cmsis_gcc.h" 1
 7286 0006 EFF30582 		MRS r2, ipsr
 7287              	@ 0 "" 2
 7288              		.thumb
 7289              		.syntax unified
 7290              	.LBE649:
 7291              	.LBE648:
1784:Middlewares/Third_Party/FreeRTOS/Source/CMSIS_RTOS_V2/cmsis_os2.c ****     space = 0U;
1785:Middlewares/Third_Party/FreeRTOS/Source/CMSIS_RTOS_V2/cmsis_os2.c ****   }
1786:Middlewares/Third_Party/FreeRTOS/Source/CMSIS_RTOS_V2/cmsis_os2.c ****   else if (IS_IRQ()) {
 7292              		.loc 1 1786 0
 7293 000a 6AB9     		cbnz	r2, .L773
 7294              	.LBB650:
 7295              	.LBB651:
 386:Drivers/CMSIS/Include/cmsis_gcc.h ****   return(result);
 7296              		.loc 2 386 0
 7297              		.syntax unified
 7298              	@ 386 "Drivers/CMSIS/Include/cmsis_gcc.h" 1
 7299 000c EFF31082 		MRS r2, primask
 7300              	@ 0 "" 2
 7301              		.thumb
 7302              		.syntax unified
 7303              	.LBE651:
ARM GAS  /tmp/ccZrYRqG.s 			page 179


 7304              	.LBE650:
 7305              		.loc 1 1786 0
 7306 0010 12B9     		cbnz	r2, .L774
 7307              	.LBB652:
 7308              	.LBB653:
 7309              		.loc 2 465 0
 7310              		.syntax unified
 7311              	@ 465 "Drivers/CMSIS/Include/cmsis_gcc.h" 1
 7312 0012 EFF31182 		MRS r2, basepri
 7313              	@ 0 "" 2
 7314              		.thumb
 7315              		.syntax unified
 7316              	.LBE653:
 7317              	.LBE652:
 7318              		.loc 1 1786 0
 7319 0016 1AB1     		cbz	r2, .L775
 7320              	.L774:
 7321              		.loc 1 1786 0 is_stmt 0 discriminator 4
 7322 0018 0C4A     		ldr	r2, .L781
 7323 001a 1268     		ldr	r2, [r2]
 7324 001c 022A     		cmp	r2, #2
 7325 001e 03D0     		beq	.L773
 7326              	.L775:
 7327 0020 1846     		mov	r0, r3
 7328              	.LVL653:
1787:Middlewares/Third_Party/FreeRTOS/Source/CMSIS_RTOS_V2/cmsis_os2.c ****     isrm = taskENTER_CRITICAL_FROM_ISR();
1788:Middlewares/Third_Party/FreeRTOS/Source/CMSIS_RTOS_V2/cmsis_os2.c **** 
1789:Middlewares/Third_Party/FreeRTOS/Source/CMSIS_RTOS_V2/cmsis_os2.c ****     /* space = pxQueue->uxLength - pxQueue->uxMessagesWaiting; */
1790:Middlewares/Third_Party/FreeRTOS/Source/CMSIS_RTOS_V2/cmsis_os2.c ****     space = mq->uxDummy4[1] - mq->uxDummy4[0];
1791:Middlewares/Third_Party/FreeRTOS/Source/CMSIS_RTOS_V2/cmsis_os2.c **** 
1792:Middlewares/Third_Party/FreeRTOS/Source/CMSIS_RTOS_V2/cmsis_os2.c ****     taskEXIT_CRITICAL_FROM_ISR(isrm);
1793:Middlewares/Third_Party/FreeRTOS/Source/CMSIS_RTOS_V2/cmsis_os2.c ****   }
1794:Middlewares/Third_Party/FreeRTOS/Source/CMSIS_RTOS_V2/cmsis_os2.c ****   else {
1795:Middlewares/Third_Party/FreeRTOS/Source/CMSIS_RTOS_V2/cmsis_os2.c ****     space = (uint32_t)uxQueueSpacesAvailable ((QueueHandle_t)mq);
 7329              		.loc 1 1795 0 is_stmt 1
 7330 0022 FFF7FEFF 		bl	uxQueueSpacesAvailable
 7331              	.LVL654:
 7332 0026 08BD     		pop	{r3, pc}
 7333              	.LVL655:
 7334              	.L773:
 7335              	.LBB654:
 7336              	.LBB655:
 7337              		.file 3 "Middlewares/Third_Party/FreeRTOS/Source/portable/GCC/ARM_CM4F/portmacro.h"
   1:Middlewares/Third_Party/FreeRTOS/Source/portable/GCC/ARM_CM4F/portmacro.h **** /*
   2:Middlewares/Third_Party/FreeRTOS/Source/portable/GCC/ARM_CM4F/portmacro.h ****  * FreeRTOS Kernel V10.2.1
   3:Middlewares/Third_Party/FreeRTOS/Source/portable/GCC/ARM_CM4F/portmacro.h ****  * Copyright (C) 2019 Amazon.com, Inc. or its affiliates.  All Rights Reserved.
   4:Middlewares/Third_Party/FreeRTOS/Source/portable/GCC/ARM_CM4F/portmacro.h ****  *
   5:Middlewares/Third_Party/FreeRTOS/Source/portable/GCC/ARM_CM4F/portmacro.h ****  * Permission is hereby granted, free of charge, to any person obtaining a copy of
   6:Middlewares/Third_Party/FreeRTOS/Source/portable/GCC/ARM_CM4F/portmacro.h ****  * this software and associated documentation files (the "Software"), to deal in
   7:Middlewares/Third_Party/FreeRTOS/Source/portable/GCC/ARM_CM4F/portmacro.h ****  * the Software without restriction, including without limitation the rights to
   8:Middlewares/Third_Party/FreeRTOS/Source/portable/GCC/ARM_CM4F/portmacro.h ****  * use, copy, modify, merge, publish, distribute, sublicense, and/or sell copies of
   9:Middlewares/Third_Party/FreeRTOS/Source/portable/GCC/ARM_CM4F/portmacro.h ****  * the Software, and to permit persons to whom the Software is furnished to do so,
  10:Middlewares/Third_Party/FreeRTOS/Source/portable/GCC/ARM_CM4F/portmacro.h ****  * subject to the following conditions:
  11:Middlewares/Third_Party/FreeRTOS/Source/portable/GCC/ARM_CM4F/portmacro.h ****  *
  12:Middlewares/Third_Party/FreeRTOS/Source/portable/GCC/ARM_CM4F/portmacro.h ****  * The above copyright notice and this permission notice shall be included in all
  13:Middlewares/Third_Party/FreeRTOS/Source/portable/GCC/ARM_CM4F/portmacro.h ****  * copies or substantial portions of the Software.
  14:Middlewares/Third_Party/FreeRTOS/Source/portable/GCC/ARM_CM4F/portmacro.h ****  *
ARM GAS  /tmp/ccZrYRqG.s 			page 180


  15:Middlewares/Third_Party/FreeRTOS/Source/portable/GCC/ARM_CM4F/portmacro.h ****  * THE SOFTWARE IS PROVIDED "AS IS", WITHOUT WARRANTY OF ANY KIND, EXPRESS OR
  16:Middlewares/Third_Party/FreeRTOS/Source/portable/GCC/ARM_CM4F/portmacro.h ****  * IMPLIED, INCLUDING BUT NOT LIMITED TO THE WARRANTIES OF MERCHANTABILITY, FITNESS
  17:Middlewares/Third_Party/FreeRTOS/Source/portable/GCC/ARM_CM4F/portmacro.h ****  * FOR A PARTICULAR PURPOSE AND NONINFRINGEMENT. IN NO EVENT SHALL THE AUTHORS OR
  18:Middlewares/Third_Party/FreeRTOS/Source/portable/GCC/ARM_CM4F/portmacro.h ****  * COPYRIGHT HOLDERS BE LIABLE FOR ANY CLAIM, DAMAGES OR OTHER LIABILITY, WHETHER
  19:Middlewares/Third_Party/FreeRTOS/Source/portable/GCC/ARM_CM4F/portmacro.h ****  * IN AN ACTION OF CONTRACT, TORT OR OTHERWISE, ARISING FROM, OUT OF OR IN
  20:Middlewares/Third_Party/FreeRTOS/Source/portable/GCC/ARM_CM4F/portmacro.h ****  * CONNECTION WITH THE SOFTWARE OR THE USE OR OTHER DEALINGS IN THE SOFTWARE.
  21:Middlewares/Third_Party/FreeRTOS/Source/portable/GCC/ARM_CM4F/portmacro.h ****  *
  22:Middlewares/Third_Party/FreeRTOS/Source/portable/GCC/ARM_CM4F/portmacro.h ****  * http://www.FreeRTOS.org
  23:Middlewares/Third_Party/FreeRTOS/Source/portable/GCC/ARM_CM4F/portmacro.h ****  * http://aws.amazon.com/freertos
  24:Middlewares/Third_Party/FreeRTOS/Source/portable/GCC/ARM_CM4F/portmacro.h ****  *
  25:Middlewares/Third_Party/FreeRTOS/Source/portable/GCC/ARM_CM4F/portmacro.h ****  * 1 tab == 4 spaces!
  26:Middlewares/Third_Party/FreeRTOS/Source/portable/GCC/ARM_CM4F/portmacro.h ****  */
  27:Middlewares/Third_Party/FreeRTOS/Source/portable/GCC/ARM_CM4F/portmacro.h **** 
  28:Middlewares/Third_Party/FreeRTOS/Source/portable/GCC/ARM_CM4F/portmacro.h **** 
  29:Middlewares/Third_Party/FreeRTOS/Source/portable/GCC/ARM_CM4F/portmacro.h **** #ifndef PORTMACRO_H
  30:Middlewares/Third_Party/FreeRTOS/Source/portable/GCC/ARM_CM4F/portmacro.h **** #define PORTMACRO_H
  31:Middlewares/Third_Party/FreeRTOS/Source/portable/GCC/ARM_CM4F/portmacro.h **** 
  32:Middlewares/Third_Party/FreeRTOS/Source/portable/GCC/ARM_CM4F/portmacro.h **** #ifdef __cplusplus
  33:Middlewares/Third_Party/FreeRTOS/Source/portable/GCC/ARM_CM4F/portmacro.h **** extern "C" {
  34:Middlewares/Third_Party/FreeRTOS/Source/portable/GCC/ARM_CM4F/portmacro.h **** #endif
  35:Middlewares/Third_Party/FreeRTOS/Source/portable/GCC/ARM_CM4F/portmacro.h **** 
  36:Middlewares/Third_Party/FreeRTOS/Source/portable/GCC/ARM_CM4F/portmacro.h **** /*-----------------------------------------------------------
  37:Middlewares/Third_Party/FreeRTOS/Source/portable/GCC/ARM_CM4F/portmacro.h ****  * Port specific definitions.
  38:Middlewares/Third_Party/FreeRTOS/Source/portable/GCC/ARM_CM4F/portmacro.h ****  *
  39:Middlewares/Third_Party/FreeRTOS/Source/portable/GCC/ARM_CM4F/portmacro.h ****  * The settings in this file configure FreeRTOS correctly for the
  40:Middlewares/Third_Party/FreeRTOS/Source/portable/GCC/ARM_CM4F/portmacro.h ****  * given hardware and compiler.
  41:Middlewares/Third_Party/FreeRTOS/Source/portable/GCC/ARM_CM4F/portmacro.h ****  *
  42:Middlewares/Third_Party/FreeRTOS/Source/portable/GCC/ARM_CM4F/portmacro.h ****  * These settings should not be altered.
  43:Middlewares/Third_Party/FreeRTOS/Source/portable/GCC/ARM_CM4F/portmacro.h ****  *-----------------------------------------------------------
  44:Middlewares/Third_Party/FreeRTOS/Source/portable/GCC/ARM_CM4F/portmacro.h ****  */
  45:Middlewares/Third_Party/FreeRTOS/Source/portable/GCC/ARM_CM4F/portmacro.h **** 
  46:Middlewares/Third_Party/FreeRTOS/Source/portable/GCC/ARM_CM4F/portmacro.h **** /* Type definitions. */
  47:Middlewares/Third_Party/FreeRTOS/Source/portable/GCC/ARM_CM4F/portmacro.h **** #define portCHAR		char
  48:Middlewares/Third_Party/FreeRTOS/Source/portable/GCC/ARM_CM4F/portmacro.h **** #define portFLOAT		float
  49:Middlewares/Third_Party/FreeRTOS/Source/portable/GCC/ARM_CM4F/portmacro.h **** #define portDOUBLE		double
  50:Middlewares/Third_Party/FreeRTOS/Source/portable/GCC/ARM_CM4F/portmacro.h **** #define portLONG		long
  51:Middlewares/Third_Party/FreeRTOS/Source/portable/GCC/ARM_CM4F/portmacro.h **** #define portSHORT		short
  52:Middlewares/Third_Party/FreeRTOS/Source/portable/GCC/ARM_CM4F/portmacro.h **** #define portSTACK_TYPE	uint32_t
  53:Middlewares/Third_Party/FreeRTOS/Source/portable/GCC/ARM_CM4F/portmacro.h **** #define portBASE_TYPE	long
  54:Middlewares/Third_Party/FreeRTOS/Source/portable/GCC/ARM_CM4F/portmacro.h **** 
  55:Middlewares/Third_Party/FreeRTOS/Source/portable/GCC/ARM_CM4F/portmacro.h **** typedef portSTACK_TYPE StackType_t;
  56:Middlewares/Third_Party/FreeRTOS/Source/portable/GCC/ARM_CM4F/portmacro.h **** typedef long BaseType_t;
  57:Middlewares/Third_Party/FreeRTOS/Source/portable/GCC/ARM_CM4F/portmacro.h **** typedef unsigned long UBaseType_t;
  58:Middlewares/Third_Party/FreeRTOS/Source/portable/GCC/ARM_CM4F/portmacro.h **** 
  59:Middlewares/Third_Party/FreeRTOS/Source/portable/GCC/ARM_CM4F/portmacro.h **** #if( configUSE_16_BIT_TICKS == 1 )
  60:Middlewares/Third_Party/FreeRTOS/Source/portable/GCC/ARM_CM4F/portmacro.h **** 	typedef uint16_t TickType_t;
  61:Middlewares/Third_Party/FreeRTOS/Source/portable/GCC/ARM_CM4F/portmacro.h **** 	#define portMAX_DELAY ( TickType_t ) 0xffff
  62:Middlewares/Third_Party/FreeRTOS/Source/portable/GCC/ARM_CM4F/portmacro.h **** #else
  63:Middlewares/Third_Party/FreeRTOS/Source/portable/GCC/ARM_CM4F/portmacro.h **** 	typedef uint32_t TickType_t;
  64:Middlewares/Third_Party/FreeRTOS/Source/portable/GCC/ARM_CM4F/portmacro.h **** 	#define portMAX_DELAY ( TickType_t ) 0xffffffffUL
  65:Middlewares/Third_Party/FreeRTOS/Source/portable/GCC/ARM_CM4F/portmacro.h **** 
  66:Middlewares/Third_Party/FreeRTOS/Source/portable/GCC/ARM_CM4F/portmacro.h **** 	/* 32-bit tick type on a 32-bit architecture, so reads of the tick count do
  67:Middlewares/Third_Party/FreeRTOS/Source/portable/GCC/ARM_CM4F/portmacro.h **** 	not need to be guarded with a critical section. */
  68:Middlewares/Third_Party/FreeRTOS/Source/portable/GCC/ARM_CM4F/portmacro.h **** 	#define portTICK_TYPE_IS_ATOMIC 1
  69:Middlewares/Third_Party/FreeRTOS/Source/portable/GCC/ARM_CM4F/portmacro.h **** #endif
  70:Middlewares/Third_Party/FreeRTOS/Source/portable/GCC/ARM_CM4F/portmacro.h **** /*-----------------------------------------------------------*/
  71:Middlewares/Third_Party/FreeRTOS/Source/portable/GCC/ARM_CM4F/portmacro.h **** 
ARM GAS  /tmp/ccZrYRqG.s 			page 181


  72:Middlewares/Third_Party/FreeRTOS/Source/portable/GCC/ARM_CM4F/portmacro.h **** /* Architecture specifics. */
  73:Middlewares/Third_Party/FreeRTOS/Source/portable/GCC/ARM_CM4F/portmacro.h **** #define portSTACK_GROWTH			( -1 )
  74:Middlewares/Third_Party/FreeRTOS/Source/portable/GCC/ARM_CM4F/portmacro.h **** #define portTICK_PERIOD_MS			( ( TickType_t ) 1000 / configTICK_RATE_HZ )
  75:Middlewares/Third_Party/FreeRTOS/Source/portable/GCC/ARM_CM4F/portmacro.h **** #define portBYTE_ALIGNMENT			8
  76:Middlewares/Third_Party/FreeRTOS/Source/portable/GCC/ARM_CM4F/portmacro.h **** /*-----------------------------------------------------------*/
  77:Middlewares/Third_Party/FreeRTOS/Source/portable/GCC/ARM_CM4F/portmacro.h **** 
  78:Middlewares/Third_Party/FreeRTOS/Source/portable/GCC/ARM_CM4F/portmacro.h **** /* Scheduler utilities. */
  79:Middlewares/Third_Party/FreeRTOS/Source/portable/GCC/ARM_CM4F/portmacro.h **** #define portYIELD() 															\
  80:Middlewares/Third_Party/FreeRTOS/Source/portable/GCC/ARM_CM4F/portmacro.h **** {																				\
  81:Middlewares/Third_Party/FreeRTOS/Source/portable/GCC/ARM_CM4F/portmacro.h **** 	/* Set a PendSV to request a context switch. */								\
  82:Middlewares/Third_Party/FreeRTOS/Source/portable/GCC/ARM_CM4F/portmacro.h **** 	portNVIC_INT_CTRL_REG = portNVIC_PENDSVSET_BIT;								\
  83:Middlewares/Third_Party/FreeRTOS/Source/portable/GCC/ARM_CM4F/portmacro.h **** 																				\
  84:Middlewares/Third_Party/FreeRTOS/Source/portable/GCC/ARM_CM4F/portmacro.h **** 	/* Barriers are normally not required but do ensure the code is completely	\
  85:Middlewares/Third_Party/FreeRTOS/Source/portable/GCC/ARM_CM4F/portmacro.h **** 	within the specified behaviour for the architecture. */						\
  86:Middlewares/Third_Party/FreeRTOS/Source/portable/GCC/ARM_CM4F/portmacro.h **** 	__asm volatile( "dsb" ::: "memory" );										\
  87:Middlewares/Third_Party/FreeRTOS/Source/portable/GCC/ARM_CM4F/portmacro.h **** 	__asm volatile( "isb" );													\
  88:Middlewares/Third_Party/FreeRTOS/Source/portable/GCC/ARM_CM4F/portmacro.h **** }
  89:Middlewares/Third_Party/FreeRTOS/Source/portable/GCC/ARM_CM4F/portmacro.h **** 
  90:Middlewares/Third_Party/FreeRTOS/Source/portable/GCC/ARM_CM4F/portmacro.h **** #define portNVIC_INT_CTRL_REG		( * ( ( volatile uint32_t * ) 0xe000ed04 ) )
  91:Middlewares/Third_Party/FreeRTOS/Source/portable/GCC/ARM_CM4F/portmacro.h **** #define portNVIC_PENDSVSET_BIT		( 1UL << 28UL )
  92:Middlewares/Third_Party/FreeRTOS/Source/portable/GCC/ARM_CM4F/portmacro.h **** #define portEND_SWITCHING_ISR( xSwitchRequired ) if( xSwitchRequired != pdFALSE ) portYIELD()
  93:Middlewares/Third_Party/FreeRTOS/Source/portable/GCC/ARM_CM4F/portmacro.h **** #define portYIELD_FROM_ISR( x ) portEND_SWITCHING_ISR( x )
  94:Middlewares/Third_Party/FreeRTOS/Source/portable/GCC/ARM_CM4F/portmacro.h **** /*-----------------------------------------------------------*/
  95:Middlewares/Third_Party/FreeRTOS/Source/portable/GCC/ARM_CM4F/portmacro.h **** 
  96:Middlewares/Third_Party/FreeRTOS/Source/portable/GCC/ARM_CM4F/portmacro.h **** /* Critical section management. */
  97:Middlewares/Third_Party/FreeRTOS/Source/portable/GCC/ARM_CM4F/portmacro.h **** extern void vPortEnterCritical( void );
  98:Middlewares/Third_Party/FreeRTOS/Source/portable/GCC/ARM_CM4F/portmacro.h **** extern void vPortExitCritical( void );
  99:Middlewares/Third_Party/FreeRTOS/Source/portable/GCC/ARM_CM4F/portmacro.h **** #define portSET_INTERRUPT_MASK_FROM_ISR()		ulPortRaiseBASEPRI()
 100:Middlewares/Third_Party/FreeRTOS/Source/portable/GCC/ARM_CM4F/portmacro.h **** #define portCLEAR_INTERRUPT_MASK_FROM_ISR(x)	vPortSetBASEPRI(x)
 101:Middlewares/Third_Party/FreeRTOS/Source/portable/GCC/ARM_CM4F/portmacro.h **** #define portDISABLE_INTERRUPTS()				vPortRaiseBASEPRI()
 102:Middlewares/Third_Party/FreeRTOS/Source/portable/GCC/ARM_CM4F/portmacro.h **** #define portENABLE_INTERRUPTS()					vPortSetBASEPRI(0)
 103:Middlewares/Third_Party/FreeRTOS/Source/portable/GCC/ARM_CM4F/portmacro.h **** #define portENTER_CRITICAL()					vPortEnterCritical()
 104:Middlewares/Third_Party/FreeRTOS/Source/portable/GCC/ARM_CM4F/portmacro.h **** #define portEXIT_CRITICAL()						vPortExitCritical()
 105:Middlewares/Third_Party/FreeRTOS/Source/portable/GCC/ARM_CM4F/portmacro.h **** 
 106:Middlewares/Third_Party/FreeRTOS/Source/portable/GCC/ARM_CM4F/portmacro.h **** /*-----------------------------------------------------------*/
 107:Middlewares/Third_Party/FreeRTOS/Source/portable/GCC/ARM_CM4F/portmacro.h **** 
 108:Middlewares/Third_Party/FreeRTOS/Source/portable/GCC/ARM_CM4F/portmacro.h **** /* Task function macros as described on the FreeRTOS.org WEB site.  These are
 109:Middlewares/Third_Party/FreeRTOS/Source/portable/GCC/ARM_CM4F/portmacro.h **** not necessary for to use this port.  They are defined so the common demo files
 110:Middlewares/Third_Party/FreeRTOS/Source/portable/GCC/ARM_CM4F/portmacro.h **** (which build with all the ports) will build. */
 111:Middlewares/Third_Party/FreeRTOS/Source/portable/GCC/ARM_CM4F/portmacro.h **** #define portTASK_FUNCTION_PROTO( vFunction, pvParameters ) void vFunction( void *pvParameters )
 112:Middlewares/Third_Party/FreeRTOS/Source/portable/GCC/ARM_CM4F/portmacro.h **** #define portTASK_FUNCTION( vFunction, pvParameters ) void vFunction( void *pvParameters )
 113:Middlewares/Third_Party/FreeRTOS/Source/portable/GCC/ARM_CM4F/portmacro.h **** /*-----------------------------------------------------------*/
 114:Middlewares/Third_Party/FreeRTOS/Source/portable/GCC/ARM_CM4F/portmacro.h **** 
 115:Middlewares/Third_Party/FreeRTOS/Source/portable/GCC/ARM_CM4F/portmacro.h **** /* Tickless idle/low power functionality. */
 116:Middlewares/Third_Party/FreeRTOS/Source/portable/GCC/ARM_CM4F/portmacro.h **** #ifndef portSUPPRESS_TICKS_AND_SLEEP
 117:Middlewares/Third_Party/FreeRTOS/Source/portable/GCC/ARM_CM4F/portmacro.h **** 	extern void vPortSuppressTicksAndSleep( TickType_t xExpectedIdleTime );
 118:Middlewares/Third_Party/FreeRTOS/Source/portable/GCC/ARM_CM4F/portmacro.h **** 	#define portSUPPRESS_TICKS_AND_SLEEP( xExpectedIdleTime ) vPortSuppressTicksAndSleep( xExpectedIdl
 119:Middlewares/Third_Party/FreeRTOS/Source/portable/GCC/ARM_CM4F/portmacro.h **** #endif
 120:Middlewares/Third_Party/FreeRTOS/Source/portable/GCC/ARM_CM4F/portmacro.h **** /*-----------------------------------------------------------*/
 121:Middlewares/Third_Party/FreeRTOS/Source/portable/GCC/ARM_CM4F/portmacro.h **** 
 122:Middlewares/Third_Party/FreeRTOS/Source/portable/GCC/ARM_CM4F/portmacro.h **** /* Architecture specific optimisations. */
 123:Middlewares/Third_Party/FreeRTOS/Source/portable/GCC/ARM_CM4F/portmacro.h **** #ifndef configUSE_PORT_OPTIMISED_TASK_SELECTION
 124:Middlewares/Third_Party/FreeRTOS/Source/portable/GCC/ARM_CM4F/portmacro.h **** 	#define configUSE_PORT_OPTIMISED_TASK_SELECTION 1
 125:Middlewares/Third_Party/FreeRTOS/Source/portable/GCC/ARM_CM4F/portmacro.h **** #endif
 126:Middlewares/Third_Party/FreeRTOS/Source/portable/GCC/ARM_CM4F/portmacro.h **** 
 127:Middlewares/Third_Party/FreeRTOS/Source/portable/GCC/ARM_CM4F/portmacro.h **** #if configUSE_PORT_OPTIMISED_TASK_SELECTION == 1
 128:Middlewares/Third_Party/FreeRTOS/Source/portable/GCC/ARM_CM4F/portmacro.h **** 
ARM GAS  /tmp/ccZrYRqG.s 			page 182


 129:Middlewares/Third_Party/FreeRTOS/Source/portable/GCC/ARM_CM4F/portmacro.h **** 	/* Generic helper function. */
 130:Middlewares/Third_Party/FreeRTOS/Source/portable/GCC/ARM_CM4F/portmacro.h **** 	__attribute__( ( always_inline ) ) static inline uint8_t ucPortCountLeadingZeros( uint32_t ulBitma
 131:Middlewares/Third_Party/FreeRTOS/Source/portable/GCC/ARM_CM4F/portmacro.h **** 	{
 132:Middlewares/Third_Party/FreeRTOS/Source/portable/GCC/ARM_CM4F/portmacro.h **** 	uint8_t ucReturn;
 133:Middlewares/Third_Party/FreeRTOS/Source/portable/GCC/ARM_CM4F/portmacro.h **** 
 134:Middlewares/Third_Party/FreeRTOS/Source/portable/GCC/ARM_CM4F/portmacro.h **** 		__asm volatile ( "clz %0, %1" : "=r" ( ucReturn ) : "r" ( ulBitmap ) : "memory" );
 135:Middlewares/Third_Party/FreeRTOS/Source/portable/GCC/ARM_CM4F/portmacro.h **** 		return ucReturn;
 136:Middlewares/Third_Party/FreeRTOS/Source/portable/GCC/ARM_CM4F/portmacro.h **** 	}
 137:Middlewares/Third_Party/FreeRTOS/Source/portable/GCC/ARM_CM4F/portmacro.h **** 
 138:Middlewares/Third_Party/FreeRTOS/Source/portable/GCC/ARM_CM4F/portmacro.h **** 	/* Check the configuration. */
 139:Middlewares/Third_Party/FreeRTOS/Source/portable/GCC/ARM_CM4F/portmacro.h **** 	#if( configMAX_PRIORITIES > 32 )
 140:Middlewares/Third_Party/FreeRTOS/Source/portable/GCC/ARM_CM4F/portmacro.h **** 		#error configUSE_PORT_OPTIMISED_TASK_SELECTION can only be set to 1 when configMAX_PRIORITIES is 
 141:Middlewares/Third_Party/FreeRTOS/Source/portable/GCC/ARM_CM4F/portmacro.h **** 	#endif
 142:Middlewares/Third_Party/FreeRTOS/Source/portable/GCC/ARM_CM4F/portmacro.h **** 
 143:Middlewares/Third_Party/FreeRTOS/Source/portable/GCC/ARM_CM4F/portmacro.h **** 	/* Store/clear the ready priorities in a bit map. */
 144:Middlewares/Third_Party/FreeRTOS/Source/portable/GCC/ARM_CM4F/portmacro.h **** 	#define portRECORD_READY_PRIORITY( uxPriority, uxReadyPriorities ) ( uxReadyPriorities ) |= ( 1UL 
 145:Middlewares/Third_Party/FreeRTOS/Source/portable/GCC/ARM_CM4F/portmacro.h **** 	#define portRESET_READY_PRIORITY( uxPriority, uxReadyPriorities ) ( uxReadyPriorities ) &= ~( 1UL 
 146:Middlewares/Third_Party/FreeRTOS/Source/portable/GCC/ARM_CM4F/portmacro.h **** 
 147:Middlewares/Third_Party/FreeRTOS/Source/portable/GCC/ARM_CM4F/portmacro.h **** 	/*-----------------------------------------------------------*/
 148:Middlewares/Third_Party/FreeRTOS/Source/portable/GCC/ARM_CM4F/portmacro.h **** 
 149:Middlewares/Third_Party/FreeRTOS/Source/portable/GCC/ARM_CM4F/portmacro.h **** 	#define portGET_HIGHEST_PRIORITY( uxTopPriority, uxReadyPriorities ) uxTopPriority = ( 31UL - ( ui
 150:Middlewares/Third_Party/FreeRTOS/Source/portable/GCC/ARM_CM4F/portmacro.h **** 
 151:Middlewares/Third_Party/FreeRTOS/Source/portable/GCC/ARM_CM4F/portmacro.h **** #endif /* configUSE_PORT_OPTIMISED_TASK_SELECTION */
 152:Middlewares/Third_Party/FreeRTOS/Source/portable/GCC/ARM_CM4F/portmacro.h **** 
 153:Middlewares/Third_Party/FreeRTOS/Source/portable/GCC/ARM_CM4F/portmacro.h **** /*-----------------------------------------------------------*/
 154:Middlewares/Third_Party/FreeRTOS/Source/portable/GCC/ARM_CM4F/portmacro.h **** 
 155:Middlewares/Third_Party/FreeRTOS/Source/portable/GCC/ARM_CM4F/portmacro.h **** #ifdef configASSERT
 156:Middlewares/Third_Party/FreeRTOS/Source/portable/GCC/ARM_CM4F/portmacro.h **** 	void vPortValidateInterruptPriority( void );
 157:Middlewares/Third_Party/FreeRTOS/Source/portable/GCC/ARM_CM4F/portmacro.h **** 	#define portASSERT_IF_INTERRUPT_PRIORITY_INVALID() 	vPortValidateInterruptPriority()
 158:Middlewares/Third_Party/FreeRTOS/Source/portable/GCC/ARM_CM4F/portmacro.h **** #endif
 159:Middlewares/Third_Party/FreeRTOS/Source/portable/GCC/ARM_CM4F/portmacro.h **** 
 160:Middlewares/Third_Party/FreeRTOS/Source/portable/GCC/ARM_CM4F/portmacro.h **** /* portNOP() is not required by this port. */
 161:Middlewares/Third_Party/FreeRTOS/Source/portable/GCC/ARM_CM4F/portmacro.h **** #define portNOP()
 162:Middlewares/Third_Party/FreeRTOS/Source/portable/GCC/ARM_CM4F/portmacro.h **** 
 163:Middlewares/Third_Party/FreeRTOS/Source/portable/GCC/ARM_CM4F/portmacro.h **** #define portINLINE	__inline
 164:Middlewares/Third_Party/FreeRTOS/Source/portable/GCC/ARM_CM4F/portmacro.h **** 
 165:Middlewares/Third_Party/FreeRTOS/Source/portable/GCC/ARM_CM4F/portmacro.h **** #ifndef portFORCE_INLINE
 166:Middlewares/Third_Party/FreeRTOS/Source/portable/GCC/ARM_CM4F/portmacro.h **** 	#define portFORCE_INLINE inline __attribute__(( always_inline))
 167:Middlewares/Third_Party/FreeRTOS/Source/portable/GCC/ARM_CM4F/portmacro.h **** #endif
 168:Middlewares/Third_Party/FreeRTOS/Source/portable/GCC/ARM_CM4F/portmacro.h **** 
 169:Middlewares/Third_Party/FreeRTOS/Source/portable/GCC/ARM_CM4F/portmacro.h **** portFORCE_INLINE static BaseType_t xPortIsInsideInterrupt( void )
 170:Middlewares/Third_Party/FreeRTOS/Source/portable/GCC/ARM_CM4F/portmacro.h **** {
 171:Middlewares/Third_Party/FreeRTOS/Source/portable/GCC/ARM_CM4F/portmacro.h **** uint32_t ulCurrentInterrupt;
 172:Middlewares/Third_Party/FreeRTOS/Source/portable/GCC/ARM_CM4F/portmacro.h **** BaseType_t xReturn;
 173:Middlewares/Third_Party/FreeRTOS/Source/portable/GCC/ARM_CM4F/portmacro.h **** 
 174:Middlewares/Third_Party/FreeRTOS/Source/portable/GCC/ARM_CM4F/portmacro.h **** 	/* Obtain the number of the currently executing interrupt. */
 175:Middlewares/Third_Party/FreeRTOS/Source/portable/GCC/ARM_CM4F/portmacro.h **** 	__asm volatile( "mrs %0, ipsr" : "=r"( ulCurrentInterrupt ) :: "memory" );
 176:Middlewares/Third_Party/FreeRTOS/Source/portable/GCC/ARM_CM4F/portmacro.h **** 
 177:Middlewares/Third_Party/FreeRTOS/Source/portable/GCC/ARM_CM4F/portmacro.h **** 	if( ulCurrentInterrupt == 0 )
 178:Middlewares/Third_Party/FreeRTOS/Source/portable/GCC/ARM_CM4F/portmacro.h **** 	{
 179:Middlewares/Third_Party/FreeRTOS/Source/portable/GCC/ARM_CM4F/portmacro.h **** 		xReturn = pdFALSE;
 180:Middlewares/Third_Party/FreeRTOS/Source/portable/GCC/ARM_CM4F/portmacro.h **** 	}
 181:Middlewares/Third_Party/FreeRTOS/Source/portable/GCC/ARM_CM4F/portmacro.h **** 	else
 182:Middlewares/Third_Party/FreeRTOS/Source/portable/GCC/ARM_CM4F/portmacro.h **** 	{
 183:Middlewares/Third_Party/FreeRTOS/Source/portable/GCC/ARM_CM4F/portmacro.h **** 		xReturn = pdTRUE;
 184:Middlewares/Third_Party/FreeRTOS/Source/portable/GCC/ARM_CM4F/portmacro.h **** 	}
 185:Middlewares/Third_Party/FreeRTOS/Source/portable/GCC/ARM_CM4F/portmacro.h **** 
ARM GAS  /tmp/ccZrYRqG.s 			page 183


 186:Middlewares/Third_Party/FreeRTOS/Source/portable/GCC/ARM_CM4F/portmacro.h **** 	return xReturn;
 187:Middlewares/Third_Party/FreeRTOS/Source/portable/GCC/ARM_CM4F/portmacro.h **** }
 188:Middlewares/Third_Party/FreeRTOS/Source/portable/GCC/ARM_CM4F/portmacro.h **** 
 189:Middlewares/Third_Party/FreeRTOS/Source/portable/GCC/ARM_CM4F/portmacro.h **** /*-----------------------------------------------------------*/
 190:Middlewares/Third_Party/FreeRTOS/Source/portable/GCC/ARM_CM4F/portmacro.h **** 
 191:Middlewares/Third_Party/FreeRTOS/Source/portable/GCC/ARM_CM4F/portmacro.h **** portFORCE_INLINE static void vPortRaiseBASEPRI( void )
 192:Middlewares/Third_Party/FreeRTOS/Source/portable/GCC/ARM_CM4F/portmacro.h **** {
 193:Middlewares/Third_Party/FreeRTOS/Source/portable/GCC/ARM_CM4F/portmacro.h **** uint32_t ulNewBASEPRI;
 194:Middlewares/Third_Party/FreeRTOS/Source/portable/GCC/ARM_CM4F/portmacro.h **** 
 195:Middlewares/Third_Party/FreeRTOS/Source/portable/GCC/ARM_CM4F/portmacro.h **** 	__asm volatile
 196:Middlewares/Third_Party/FreeRTOS/Source/portable/GCC/ARM_CM4F/portmacro.h **** 	(
 197:Middlewares/Third_Party/FreeRTOS/Source/portable/GCC/ARM_CM4F/portmacro.h **** 		"	mov %0, %1												\n"	\
 198:Middlewares/Third_Party/FreeRTOS/Source/portable/GCC/ARM_CM4F/portmacro.h **** 		"	msr basepri, %0											\n" \
 199:Middlewares/Third_Party/FreeRTOS/Source/portable/GCC/ARM_CM4F/portmacro.h **** 		"	isb														\n" \
 200:Middlewares/Third_Party/FreeRTOS/Source/portable/GCC/ARM_CM4F/portmacro.h **** 		"	dsb														\n" \
 201:Middlewares/Third_Party/FreeRTOS/Source/portable/GCC/ARM_CM4F/portmacro.h **** 		:"=r" (ulNewBASEPRI) : "i" ( configMAX_SYSCALL_INTERRUPT_PRIORITY ) : "memory"
 202:Middlewares/Third_Party/FreeRTOS/Source/portable/GCC/ARM_CM4F/portmacro.h **** 	);
 203:Middlewares/Third_Party/FreeRTOS/Source/portable/GCC/ARM_CM4F/portmacro.h **** }
 204:Middlewares/Third_Party/FreeRTOS/Source/portable/GCC/ARM_CM4F/portmacro.h **** 
 205:Middlewares/Third_Party/FreeRTOS/Source/portable/GCC/ARM_CM4F/portmacro.h **** /*-----------------------------------------------------------*/
 206:Middlewares/Third_Party/FreeRTOS/Source/portable/GCC/ARM_CM4F/portmacro.h **** 
 207:Middlewares/Third_Party/FreeRTOS/Source/portable/GCC/ARM_CM4F/portmacro.h **** portFORCE_INLINE static uint32_t ulPortRaiseBASEPRI( void )
 208:Middlewares/Third_Party/FreeRTOS/Source/portable/GCC/ARM_CM4F/portmacro.h **** {
 209:Middlewares/Third_Party/FreeRTOS/Source/portable/GCC/ARM_CM4F/portmacro.h **** uint32_t ulOriginalBASEPRI, ulNewBASEPRI;
 210:Middlewares/Third_Party/FreeRTOS/Source/portable/GCC/ARM_CM4F/portmacro.h **** 
 211:Middlewares/Third_Party/FreeRTOS/Source/portable/GCC/ARM_CM4F/portmacro.h **** 	__asm volatile
 7338              		.loc 3 211 0
 7339              		.syntax unified
 7340              	@ 211 "Middlewares/Third_Party/FreeRTOS/Source/portable/GCC/ARM_CM4F/portmacro.h" 1
 7341 0028 EFF31182 			mrs r2, basepri											
 7342 002c 4FF05001 		mov r1, #80												
 7343 0030 81F31188 		msr basepri, r1											
 7344 0034 BFF36F8F 		isb														
 7345 0038 BFF34F8F 		dsb														
 7346              	
 7347              	@ 0 "" 2
 7348              		.thumb
 7349              		.syntax unified
 7350              	.LBE655:
 7351              	.LBE654:
1790:Middlewares/Third_Party/FreeRTOS/Source/CMSIS_RTOS_V2/cmsis_os2.c **** 
 7352              		.loc 1 1790 0
 7353 003c D86B     		ldr	r0, [r3, #60]
 7354              	.LVL656:
 7355 003e 9B6B     		ldr	r3, [r3, #56]
 7356              	.LVL657:
 7357 0040 C01A     		subs	r0, r0, r3
 7358              	.LVL658:
 7359              	.LBB656:
 7360              	.LBB657:
 212:Middlewares/Third_Party/FreeRTOS/Source/portable/GCC/ARM_CM4F/portmacro.h **** 	(
 213:Middlewares/Third_Party/FreeRTOS/Source/portable/GCC/ARM_CM4F/portmacro.h **** 		"	mrs %0, basepri											\n" \
 214:Middlewares/Third_Party/FreeRTOS/Source/portable/GCC/ARM_CM4F/portmacro.h **** 		"	mov %1, %2												\n"	\
 215:Middlewares/Third_Party/FreeRTOS/Source/portable/GCC/ARM_CM4F/portmacro.h **** 		"	msr basepri, %1											\n" \
 216:Middlewares/Third_Party/FreeRTOS/Source/portable/GCC/ARM_CM4F/portmacro.h **** 		"	isb														\n" \
 217:Middlewares/Third_Party/FreeRTOS/Source/portable/GCC/ARM_CM4F/portmacro.h **** 		"	dsb														\n" \
 218:Middlewares/Third_Party/FreeRTOS/Source/portable/GCC/ARM_CM4F/portmacro.h **** 		:"=r" (ulOriginalBASEPRI), "=r" (ulNewBASEPRI) : "i" ( configMAX_SYSCALL_INTERRUPT_PRIORITY ) : "
ARM GAS  /tmp/ccZrYRqG.s 			page 184


 219:Middlewares/Third_Party/FreeRTOS/Source/portable/GCC/ARM_CM4F/portmacro.h **** 	);
 220:Middlewares/Third_Party/FreeRTOS/Source/portable/GCC/ARM_CM4F/portmacro.h **** 
 221:Middlewares/Third_Party/FreeRTOS/Source/portable/GCC/ARM_CM4F/portmacro.h **** 	/* This return will not be reached but is necessary to prevent compiler
 222:Middlewares/Third_Party/FreeRTOS/Source/portable/GCC/ARM_CM4F/portmacro.h **** 	warnings. */
 223:Middlewares/Third_Party/FreeRTOS/Source/portable/GCC/ARM_CM4F/portmacro.h **** 	return ulOriginalBASEPRI;
 224:Middlewares/Third_Party/FreeRTOS/Source/portable/GCC/ARM_CM4F/portmacro.h **** }
 225:Middlewares/Third_Party/FreeRTOS/Source/portable/GCC/ARM_CM4F/portmacro.h **** /*-----------------------------------------------------------*/
 226:Middlewares/Third_Party/FreeRTOS/Source/portable/GCC/ARM_CM4F/portmacro.h **** 
 227:Middlewares/Third_Party/FreeRTOS/Source/portable/GCC/ARM_CM4F/portmacro.h **** portFORCE_INLINE static void vPortSetBASEPRI( uint32_t ulNewMaskValue )
 228:Middlewares/Third_Party/FreeRTOS/Source/portable/GCC/ARM_CM4F/portmacro.h **** {
 229:Middlewares/Third_Party/FreeRTOS/Source/portable/GCC/ARM_CM4F/portmacro.h **** 	__asm volatile
 7361              		.loc 3 229 0
 7362              		.syntax unified
 7363              	@ 229 "Middlewares/Third_Party/FreeRTOS/Source/portable/GCC/ARM_CM4F/portmacro.h" 1
 7364 0042 82F31188 			msr basepri, r2	
 7365              	@ 0 "" 2
 7366              		.thumb
 7367              		.syntax unified
 7368 0046 08BD     		pop	{r3, pc}
 7369              	.LVL659:
 7370              	.L776:
 7371              	.LCFI133:
 7372              		.cfi_def_cfa_offset 0
 7373              		.cfi_restore 3
 7374              		.cfi_restore 14
 7375              	.LBE657:
 7376              	.LBE656:
1784:Middlewares/Third_Party/FreeRTOS/Source/CMSIS_RTOS_V2/cmsis_os2.c ****   }
 7377              		.loc 1 1784 0
 7378 0048 0020     		movs	r0, #0
 7379              	.LVL660:
1796:Middlewares/Third_Party/FreeRTOS/Source/CMSIS_RTOS_V2/cmsis_os2.c ****   }
1797:Middlewares/Third_Party/FreeRTOS/Source/CMSIS_RTOS_V2/cmsis_os2.c **** 
1798:Middlewares/Third_Party/FreeRTOS/Source/CMSIS_RTOS_V2/cmsis_os2.c ****   return (space);
 7380              		.loc 1 1798 0
 7381 004a 7047     		bx	lr
 7382              	.L782:
 7383              		.align	2
 7384              	.L781:
 7385 004c 00000000 		.word	.LANCHOR0
 7386              		.cfi_endproc
 7387              	.LFE167:
 7389              		.section	.text.osMessageQueueReset,"ax",%progbits
 7390              		.align	1
 7391              		.global	osMessageQueueReset
 7392              		.syntax unified
 7393              		.thumb
 7394              		.thumb_func
 7395              		.fpu fpv4-sp-d16
 7397              	osMessageQueueReset:
 7398              	.LFB168:
1799:Middlewares/Third_Party/FreeRTOS/Source/CMSIS_RTOS_V2/cmsis_os2.c **** }
1800:Middlewares/Third_Party/FreeRTOS/Source/CMSIS_RTOS_V2/cmsis_os2.c **** 
1801:Middlewares/Third_Party/FreeRTOS/Source/CMSIS_RTOS_V2/cmsis_os2.c **** osStatus_t osMessageQueueReset (osMessageQueueId_t mq_id) {
 7399              		.loc 1 1801 0
 7400              		.cfi_startproc
 7401              		@ args = 0, pretend = 0, frame = 0
ARM GAS  /tmp/ccZrYRqG.s 			page 185


 7402              		@ frame_needed = 0, uses_anonymous_args = 0
 7403              	.LVL661:
 7404 0000 08B5     		push	{r3, lr}
 7405              	.LCFI134:
 7406              		.cfi_def_cfa_offset 8
 7407              		.cfi_offset 3, -8
 7408              		.cfi_offset 14, -4
 7409              	.LVL662:
 7410              	.LBB658:
 7411              	.LBB659:
 209:Drivers/CMSIS/Include/cmsis_gcc.h ****   return(result);
 7412              		.loc 2 209 0
 7413              		.syntax unified
 7414              	@ 209 "Drivers/CMSIS/Include/cmsis_gcc.h" 1
 7415 0002 EFF30583 		MRS r3, ipsr
 7416              	@ 0 "" 2
 7417              		.thumb
 7418              		.syntax unified
 7419              	.LBE659:
 7420              	.LBE658:
1802:Middlewares/Third_Party/FreeRTOS/Source/CMSIS_RTOS_V2/cmsis_os2.c ****   QueueHandle_t hQueue = (QueueHandle_t)mq_id;
1803:Middlewares/Third_Party/FreeRTOS/Source/CMSIS_RTOS_V2/cmsis_os2.c ****   osStatus_t stat;
1804:Middlewares/Third_Party/FreeRTOS/Source/CMSIS_RTOS_V2/cmsis_os2.c **** 
1805:Middlewares/Third_Party/FreeRTOS/Source/CMSIS_RTOS_V2/cmsis_os2.c ****   if (IS_IRQ()) {
 7421              		.loc 1 1805 0
 7422 0006 7BB9     		cbnz	r3, .L787
 7423              	.LBB660:
 7424              	.LBB661:
 386:Drivers/CMSIS/Include/cmsis_gcc.h ****   return(result);
 7425              		.loc 2 386 0
 7426              		.syntax unified
 7427              	@ 386 "Drivers/CMSIS/Include/cmsis_gcc.h" 1
 7428 0008 EFF31083 		MRS r3, primask
 7429              	@ 0 "" 2
 7430              		.thumb
 7431              		.syntax unified
 7432              	.LBE661:
 7433              	.LBE660:
 7434              		.loc 1 1805 0
 7435 000c 13B9     		cbnz	r3, .L785
 7436              	.LBB662:
 7437              	.LBB663:
 7438              		.loc 2 465 0
 7439              		.syntax unified
 7440              	@ 465 "Drivers/CMSIS/Include/cmsis_gcc.h" 1
 7441 000e EFF31183 		MRS r3, basepri
 7442              	@ 0 "" 2
 7443              		.thumb
 7444              		.syntax unified
 7445              	.LBE663:
 7446              	.LBE662:
 7447              		.loc 1 1805 0
 7448 0012 1BB1     		cbz	r3, .L786
 7449              	.L785:
 7450              		.loc 1 1805 0 is_stmt 0 discriminator 4
 7451 0014 094B     		ldr	r3, .L791
 7452 0016 1B68     		ldr	r3, [r3]
ARM GAS  /tmp/ccZrYRqG.s 			page 186


 7453 0018 022B     		cmp	r3, #2
 7454 001a 08D0     		beq	.L788
 7455              	.L786:
1806:Middlewares/Third_Party/FreeRTOS/Source/CMSIS_RTOS_V2/cmsis_os2.c ****     stat = osErrorISR;
1807:Middlewares/Third_Party/FreeRTOS/Source/CMSIS_RTOS_V2/cmsis_os2.c ****   }
1808:Middlewares/Third_Party/FreeRTOS/Source/CMSIS_RTOS_V2/cmsis_os2.c ****   else if (hQueue == NULL) {
 7456              		.loc 1 1808 0 is_stmt 1
 7457 001c 50B1     		cbz	r0, .L789
 7458              	.LVL663:
1809:Middlewares/Third_Party/FreeRTOS/Source/CMSIS_RTOS_V2/cmsis_os2.c ****     stat = osErrorParameter;
1810:Middlewares/Third_Party/FreeRTOS/Source/CMSIS_RTOS_V2/cmsis_os2.c ****   }
1811:Middlewares/Third_Party/FreeRTOS/Source/CMSIS_RTOS_V2/cmsis_os2.c ****   else {
1812:Middlewares/Third_Party/FreeRTOS/Source/CMSIS_RTOS_V2/cmsis_os2.c ****     stat = osOK;
1813:Middlewares/Third_Party/FreeRTOS/Source/CMSIS_RTOS_V2/cmsis_os2.c ****     (void)xQueueReset (hQueue);
 7459              		.loc 1 1813 0
 7460 001e 0021     		movs	r1, #0
 7461 0020 FFF7FEFF 		bl	xQueueGenericReset
 7462              	.LVL664:
1812:Middlewares/Third_Party/FreeRTOS/Source/CMSIS_RTOS_V2/cmsis_os2.c ****     (void)xQueueReset (hQueue);
 7463              		.loc 1 1812 0
 7464 0024 0020     		movs	r0, #0
 7465 0026 08BD     		pop	{r3, pc}
 7466              	.LVL665:
 7467              	.L787:
1806:Middlewares/Third_Party/FreeRTOS/Source/CMSIS_RTOS_V2/cmsis_os2.c ****     stat = osErrorISR;
 7468              		.loc 1 1806 0
 7469 0028 6FF00500 		mvn	r0, #5
 7470              	.LVL666:
 7471 002c 08BD     		pop	{r3, pc}
 7472              	.LVL667:
 7473              	.L788:
 7474 002e 6FF00500 		mvn	r0, #5
 7475              	.LVL668:
 7476 0032 08BD     		pop	{r3, pc}
 7477              	.LVL669:
 7478              	.L789:
1809:Middlewares/Third_Party/FreeRTOS/Source/CMSIS_RTOS_V2/cmsis_os2.c ****     stat = osErrorParameter;
 7479              		.loc 1 1809 0
 7480 0034 6FF00300 		mvn	r0, #3
 7481              	.LVL670:
1814:Middlewares/Third_Party/FreeRTOS/Source/CMSIS_RTOS_V2/cmsis_os2.c ****   }
1815:Middlewares/Third_Party/FreeRTOS/Source/CMSIS_RTOS_V2/cmsis_os2.c **** 
1816:Middlewares/Third_Party/FreeRTOS/Source/CMSIS_RTOS_V2/cmsis_os2.c ****   return (stat);
1817:Middlewares/Third_Party/FreeRTOS/Source/CMSIS_RTOS_V2/cmsis_os2.c **** }
 7482              		.loc 1 1817 0
 7483 0038 08BD     		pop	{r3, pc}
 7484              	.L792:
 7485 003a 00BF     		.align	2
 7486              	.L791:
 7487 003c 00000000 		.word	.LANCHOR0
 7488              		.cfi_endproc
 7489              	.LFE168:
 7491              		.section	.text.osMessageQueueDelete,"ax",%progbits
 7492              		.align	1
 7493              		.global	osMessageQueueDelete
 7494              		.syntax unified
 7495              		.thumb
ARM GAS  /tmp/ccZrYRqG.s 			page 187


 7496              		.thumb_func
 7497              		.fpu fpv4-sp-d16
 7499              	osMessageQueueDelete:
 7500              	.LFB169:
1818:Middlewares/Third_Party/FreeRTOS/Source/CMSIS_RTOS_V2/cmsis_os2.c **** 
1819:Middlewares/Third_Party/FreeRTOS/Source/CMSIS_RTOS_V2/cmsis_os2.c **** osStatus_t osMessageQueueDelete (osMessageQueueId_t mq_id) {
 7501              		.loc 1 1819 0
 7502              		.cfi_startproc
 7503              		@ args = 0, pretend = 0, frame = 0
 7504              		@ frame_needed = 0, uses_anonymous_args = 0
 7505              	.LVL671:
 7506              	.LBB664:
 7507              	.LBB665:
 209:Drivers/CMSIS/Include/cmsis_gcc.h ****   return(result);
 7508              		.loc 2 209 0
 7509              		.syntax unified
 7510              	@ 209 "Drivers/CMSIS/Include/cmsis_gcc.h" 1
 7511 0000 EFF30583 		MRS r3, ipsr
 7512              	@ 0 "" 2
 7513              		.thumb
 7514              		.syntax unified
 7515              	.LBE665:
 7516              	.LBE664:
1820:Middlewares/Third_Party/FreeRTOS/Source/CMSIS_RTOS_V2/cmsis_os2.c ****   QueueHandle_t hQueue = (QueueHandle_t)mq_id;
1821:Middlewares/Third_Party/FreeRTOS/Source/CMSIS_RTOS_V2/cmsis_os2.c ****   osStatus_t stat;
1822:Middlewares/Third_Party/FreeRTOS/Source/CMSIS_RTOS_V2/cmsis_os2.c **** 
1823:Middlewares/Third_Party/FreeRTOS/Source/CMSIS_RTOS_V2/cmsis_os2.c **** #ifndef USE_FreeRTOS_HEAP_1
1824:Middlewares/Third_Party/FreeRTOS/Source/CMSIS_RTOS_V2/cmsis_os2.c ****   if (IS_IRQ()) {
 7517              		.loc 1 1824 0
 7518 0004 9BB9     		cbnz	r3, .L797
 7519              	.LBB666:
 7520              	.LBB667:
 386:Drivers/CMSIS/Include/cmsis_gcc.h ****   return(result);
 7521              		.loc 2 386 0
 7522              		.syntax unified
 7523              	@ 386 "Drivers/CMSIS/Include/cmsis_gcc.h" 1
 7524 0006 EFF31083 		MRS r3, primask
 7525              	@ 0 "" 2
 7526              		.thumb
 7527              		.syntax unified
 7528              	.LBE667:
 7529              	.LBE666:
 7530              		.loc 1 1824 0
 7531 000a 13B9     		cbnz	r3, .L795
 7532              	.LBB668:
 7533              	.LBB669:
 7534              		.loc 2 465 0
 7535              		.syntax unified
 7536              	@ 465 "Drivers/CMSIS/Include/cmsis_gcc.h" 1
 7537 000c EFF31183 		MRS r3, basepri
 7538              	@ 0 "" 2
 7539              		.thumb
 7540              		.syntax unified
 7541              	.LBE669:
 7542              	.LBE668:
 7543              		.loc 1 1824 0
 7544 0010 1BB1     		cbz	r3, .L796
ARM GAS  /tmp/ccZrYRqG.s 			page 188


 7545              	.L795:
 7546              		.loc 1 1824 0 is_stmt 0 discriminator 4
 7547 0012 0B4B     		ldr	r3, .L804
 7548 0014 1B68     		ldr	r3, [r3]
 7549 0016 022B     		cmp	r3, #2
 7550 0018 0CD0     		beq	.L798
 7551              	.L796:
1825:Middlewares/Third_Party/FreeRTOS/Source/CMSIS_RTOS_V2/cmsis_os2.c ****     stat = osErrorISR;
1826:Middlewares/Third_Party/FreeRTOS/Source/CMSIS_RTOS_V2/cmsis_os2.c ****   }
1827:Middlewares/Third_Party/FreeRTOS/Source/CMSIS_RTOS_V2/cmsis_os2.c ****   else if (hQueue == NULL) {
 7552              		.loc 1 1827 0 is_stmt 1
 7553 001a 70B1     		cbz	r0, .L799
1819:Middlewares/Third_Party/FreeRTOS/Source/CMSIS_RTOS_V2/cmsis_os2.c ****   QueueHandle_t hQueue = (QueueHandle_t)mq_id;
 7554              		.loc 1 1819 0
 7555 001c 10B5     		push	{r4, lr}
 7556              	.LCFI135:
 7557              		.cfi_def_cfa_offset 8
 7558              		.cfi_offset 4, -8
 7559              		.cfi_offset 14, -4
 7560 001e 0446     		mov	r4, r0
1828:Middlewares/Third_Party/FreeRTOS/Source/CMSIS_RTOS_V2/cmsis_os2.c ****     stat = osErrorParameter;
1829:Middlewares/Third_Party/FreeRTOS/Source/CMSIS_RTOS_V2/cmsis_os2.c ****   }
1830:Middlewares/Third_Party/FreeRTOS/Source/CMSIS_RTOS_V2/cmsis_os2.c ****   else {
1831:Middlewares/Third_Party/FreeRTOS/Source/CMSIS_RTOS_V2/cmsis_os2.c ****     #if (configQUEUE_REGISTRY_SIZE > 0)
1832:Middlewares/Third_Party/FreeRTOS/Source/CMSIS_RTOS_V2/cmsis_os2.c ****     vQueueUnregisterQueue (hQueue);
 7561              		.loc 1 1832 0
 7562 0020 FFF7FEFF 		bl	vQueueUnregisterQueue
 7563              	.LVL672:
1833:Middlewares/Third_Party/FreeRTOS/Source/CMSIS_RTOS_V2/cmsis_os2.c ****     #endif
1834:Middlewares/Third_Party/FreeRTOS/Source/CMSIS_RTOS_V2/cmsis_os2.c **** 
1835:Middlewares/Third_Party/FreeRTOS/Source/CMSIS_RTOS_V2/cmsis_os2.c ****     stat = osOK;
1836:Middlewares/Third_Party/FreeRTOS/Source/CMSIS_RTOS_V2/cmsis_os2.c ****     vQueueDelete (hQueue);
 7564              		.loc 1 1836 0
 7565 0024 2046     		mov	r0, r4
 7566 0026 FFF7FEFF 		bl	vQueueDelete
 7567              	.LVL673:
1835:Middlewares/Third_Party/FreeRTOS/Source/CMSIS_RTOS_V2/cmsis_os2.c ****     vQueueDelete (hQueue);
 7568              		.loc 1 1835 0
 7569 002a 0020     		movs	r0, #0
 7570 002c 10BD     		pop	{r4, pc}
 7571              	.LVL674:
 7572              	.L797:
 7573              	.LCFI136:
 7574              		.cfi_def_cfa_offset 0
 7575              		.cfi_restore 4
 7576              		.cfi_restore 14
1825:Middlewares/Third_Party/FreeRTOS/Source/CMSIS_RTOS_V2/cmsis_os2.c ****   }
 7577              		.loc 1 1825 0
 7578 002e 6FF00500 		mvn	r0, #5
 7579              	.LVL675:
 7580 0032 7047     		bx	lr
 7581              	.LVL676:
 7582              	.L798:
 7583 0034 6FF00500 		mvn	r0, #5
 7584              	.LVL677:
 7585 0038 7047     		bx	lr
 7586              	.LVL678:
ARM GAS  /tmp/ccZrYRqG.s 			page 189


 7587              	.L799:
1828:Middlewares/Third_Party/FreeRTOS/Source/CMSIS_RTOS_V2/cmsis_os2.c ****   }
 7588              		.loc 1 1828 0
 7589 003a 6FF00300 		mvn	r0, #3
 7590              	.LVL679:
1837:Middlewares/Third_Party/FreeRTOS/Source/CMSIS_RTOS_V2/cmsis_os2.c ****   }
1838:Middlewares/Third_Party/FreeRTOS/Source/CMSIS_RTOS_V2/cmsis_os2.c **** #else
1839:Middlewares/Third_Party/FreeRTOS/Source/CMSIS_RTOS_V2/cmsis_os2.c ****   stat = osError;
1840:Middlewares/Third_Party/FreeRTOS/Source/CMSIS_RTOS_V2/cmsis_os2.c **** #endif
1841:Middlewares/Third_Party/FreeRTOS/Source/CMSIS_RTOS_V2/cmsis_os2.c **** 
1842:Middlewares/Third_Party/FreeRTOS/Source/CMSIS_RTOS_V2/cmsis_os2.c ****   return (stat);
 7591              		.loc 1 1842 0
 7592 003e 7047     		bx	lr
 7593              	.L805:
 7594              		.align	2
 7595              	.L804:
 7596 0040 00000000 		.word	.LANCHOR0
 7597              		.cfi_endproc
 7598              	.LFE169:
 7600              		.section	.text.vApplicationGetIdleTaskMemory,"ax",%progbits
 7601              		.align	1
 7602              		.global	vApplicationGetIdleTaskMemory
 7603              		.syntax unified
 7604              		.thumb
 7605              		.thumb_func
 7606              		.fpu fpv4-sp-d16
 7608              	vApplicationGetIdleTaskMemory:
 7609              	.LFB170:
1843:Middlewares/Third_Party/FreeRTOS/Source/CMSIS_RTOS_V2/cmsis_os2.c **** }
1844:Middlewares/Third_Party/FreeRTOS/Source/CMSIS_RTOS_V2/cmsis_os2.c **** 
1845:Middlewares/Third_Party/FreeRTOS/Source/CMSIS_RTOS_V2/cmsis_os2.c **** /*---------------------------------------------------------------------------*/
1846:Middlewares/Third_Party/FreeRTOS/Source/CMSIS_RTOS_V2/cmsis_os2.c **** 
1847:Middlewares/Third_Party/FreeRTOS/Source/CMSIS_RTOS_V2/cmsis_os2.c **** /* Callback function prototypes */
1848:Middlewares/Third_Party/FreeRTOS/Source/CMSIS_RTOS_V2/cmsis_os2.c **** extern void vApplicationIdleHook (void);
1849:Middlewares/Third_Party/FreeRTOS/Source/CMSIS_RTOS_V2/cmsis_os2.c **** extern void vApplicationTickHook (void);
1850:Middlewares/Third_Party/FreeRTOS/Source/CMSIS_RTOS_V2/cmsis_os2.c **** extern void vApplicationMallocFailedHook (void);
1851:Middlewares/Third_Party/FreeRTOS/Source/CMSIS_RTOS_V2/cmsis_os2.c **** extern void vApplicationDaemonTaskStartupHook (void);
1852:Middlewares/Third_Party/FreeRTOS/Source/CMSIS_RTOS_V2/cmsis_os2.c **** extern void vApplicationStackOverflowHook (TaskHandle_t xTask, signed char *pcTaskName);
1853:Middlewares/Third_Party/FreeRTOS/Source/CMSIS_RTOS_V2/cmsis_os2.c **** 
1854:Middlewares/Third_Party/FreeRTOS/Source/CMSIS_RTOS_V2/cmsis_os2.c **** /**
1855:Middlewares/Third_Party/FreeRTOS/Source/CMSIS_RTOS_V2/cmsis_os2.c ****   Dummy implementation of the callback function vApplicationIdleHook().
1856:Middlewares/Third_Party/FreeRTOS/Source/CMSIS_RTOS_V2/cmsis_os2.c **** */
1857:Middlewares/Third_Party/FreeRTOS/Source/CMSIS_RTOS_V2/cmsis_os2.c **** #if (configUSE_IDLE_HOOK == 1)
1858:Middlewares/Third_Party/FreeRTOS/Source/CMSIS_RTOS_V2/cmsis_os2.c **** __WEAK void vApplicationIdleHook (void){}
1859:Middlewares/Third_Party/FreeRTOS/Source/CMSIS_RTOS_V2/cmsis_os2.c **** #endif
1860:Middlewares/Third_Party/FreeRTOS/Source/CMSIS_RTOS_V2/cmsis_os2.c **** 
1861:Middlewares/Third_Party/FreeRTOS/Source/CMSIS_RTOS_V2/cmsis_os2.c **** /**
1862:Middlewares/Third_Party/FreeRTOS/Source/CMSIS_RTOS_V2/cmsis_os2.c ****   Dummy implementation of the callback function vApplicationTickHook().
1863:Middlewares/Third_Party/FreeRTOS/Source/CMSIS_RTOS_V2/cmsis_os2.c **** */
1864:Middlewares/Third_Party/FreeRTOS/Source/CMSIS_RTOS_V2/cmsis_os2.c **** #if (configUSE_TICK_HOOK == 1)
1865:Middlewares/Third_Party/FreeRTOS/Source/CMSIS_RTOS_V2/cmsis_os2.c ****  __WEAK void vApplicationTickHook (void){}
1866:Middlewares/Third_Party/FreeRTOS/Source/CMSIS_RTOS_V2/cmsis_os2.c **** #endif
1867:Middlewares/Third_Party/FreeRTOS/Source/CMSIS_RTOS_V2/cmsis_os2.c **** 
1868:Middlewares/Third_Party/FreeRTOS/Source/CMSIS_RTOS_V2/cmsis_os2.c **** /**
1869:Middlewares/Third_Party/FreeRTOS/Source/CMSIS_RTOS_V2/cmsis_os2.c ****   Dummy implementation of the callback function vApplicationMallocFailedHook().
1870:Middlewares/Third_Party/FreeRTOS/Source/CMSIS_RTOS_V2/cmsis_os2.c **** */
1871:Middlewares/Third_Party/FreeRTOS/Source/CMSIS_RTOS_V2/cmsis_os2.c **** #if (configUSE_MALLOC_FAILED_HOOK == 1)
ARM GAS  /tmp/ccZrYRqG.s 			page 190


1872:Middlewares/Third_Party/FreeRTOS/Source/CMSIS_RTOS_V2/cmsis_os2.c **** __WEAK void vApplicationMallocFailedHook (void){}
1873:Middlewares/Third_Party/FreeRTOS/Source/CMSIS_RTOS_V2/cmsis_os2.c **** #endif
1874:Middlewares/Third_Party/FreeRTOS/Source/CMSIS_RTOS_V2/cmsis_os2.c **** 
1875:Middlewares/Third_Party/FreeRTOS/Source/CMSIS_RTOS_V2/cmsis_os2.c **** /**
1876:Middlewares/Third_Party/FreeRTOS/Source/CMSIS_RTOS_V2/cmsis_os2.c ****   Dummy implementation of the callback function vApplicationDaemonTaskStartupHook().
1877:Middlewares/Third_Party/FreeRTOS/Source/CMSIS_RTOS_V2/cmsis_os2.c **** */
1878:Middlewares/Third_Party/FreeRTOS/Source/CMSIS_RTOS_V2/cmsis_os2.c **** #if (configUSE_DAEMON_TASK_STARTUP_HOOK == 1)
1879:Middlewares/Third_Party/FreeRTOS/Source/CMSIS_RTOS_V2/cmsis_os2.c **** __WEAK void vApplicationDaemonTaskStartupHook (void){}
1880:Middlewares/Third_Party/FreeRTOS/Source/CMSIS_RTOS_V2/cmsis_os2.c **** #endif
1881:Middlewares/Third_Party/FreeRTOS/Source/CMSIS_RTOS_V2/cmsis_os2.c **** 
1882:Middlewares/Third_Party/FreeRTOS/Source/CMSIS_RTOS_V2/cmsis_os2.c **** /**
1883:Middlewares/Third_Party/FreeRTOS/Source/CMSIS_RTOS_V2/cmsis_os2.c ****   Dummy implementation of the callback function vApplicationStackOverflowHook().
1884:Middlewares/Third_Party/FreeRTOS/Source/CMSIS_RTOS_V2/cmsis_os2.c **** */
1885:Middlewares/Third_Party/FreeRTOS/Source/CMSIS_RTOS_V2/cmsis_os2.c **** #if (configCHECK_FOR_STACK_OVERFLOW > 0)
1886:Middlewares/Third_Party/FreeRTOS/Source/CMSIS_RTOS_V2/cmsis_os2.c **** __WEAK void vApplicationStackOverflowHook (TaskHandle_t xTask, signed char *pcTaskName) {
1887:Middlewares/Third_Party/FreeRTOS/Source/CMSIS_RTOS_V2/cmsis_os2.c ****   (void)xTask;
1888:Middlewares/Third_Party/FreeRTOS/Source/CMSIS_RTOS_V2/cmsis_os2.c ****   (void)pcTaskName;
1889:Middlewares/Third_Party/FreeRTOS/Source/CMSIS_RTOS_V2/cmsis_os2.c **** }
1890:Middlewares/Third_Party/FreeRTOS/Source/CMSIS_RTOS_V2/cmsis_os2.c **** #endif
1891:Middlewares/Third_Party/FreeRTOS/Source/CMSIS_RTOS_V2/cmsis_os2.c **** 
1892:Middlewares/Third_Party/FreeRTOS/Source/CMSIS_RTOS_V2/cmsis_os2.c **** /*---------------------------------------------------------------------------*/
1893:Middlewares/Third_Party/FreeRTOS/Source/CMSIS_RTOS_V2/cmsis_os2.c **** 
1894:Middlewares/Third_Party/FreeRTOS/Source/CMSIS_RTOS_V2/cmsis_os2.c **** /* External Idle and Timer task static memory allocation functions */
1895:Middlewares/Third_Party/FreeRTOS/Source/CMSIS_RTOS_V2/cmsis_os2.c **** extern void vApplicationGetIdleTaskMemory  (StaticTask_t **ppxIdleTaskTCBBuffer,  StackType_t **ppx
1896:Middlewares/Third_Party/FreeRTOS/Source/CMSIS_RTOS_V2/cmsis_os2.c **** extern void vApplicationGetTimerTaskMemory (StaticTask_t **ppxTimerTaskTCBBuffer, StackType_t **ppx
1897:Middlewares/Third_Party/FreeRTOS/Source/CMSIS_RTOS_V2/cmsis_os2.c **** 
1898:Middlewares/Third_Party/FreeRTOS/Source/CMSIS_RTOS_V2/cmsis_os2.c **** /* Idle task control block and stack */
1899:Middlewares/Third_Party/FreeRTOS/Source/CMSIS_RTOS_V2/cmsis_os2.c **** static StaticTask_t Idle_TCB;
1900:Middlewares/Third_Party/FreeRTOS/Source/CMSIS_RTOS_V2/cmsis_os2.c **** static StackType_t  Idle_Stack[configMINIMAL_STACK_SIZE];
1901:Middlewares/Third_Party/FreeRTOS/Source/CMSIS_RTOS_V2/cmsis_os2.c **** 
1902:Middlewares/Third_Party/FreeRTOS/Source/CMSIS_RTOS_V2/cmsis_os2.c **** /* Timer task control block and stack */
1903:Middlewares/Third_Party/FreeRTOS/Source/CMSIS_RTOS_V2/cmsis_os2.c **** static StaticTask_t Timer_TCB;
1904:Middlewares/Third_Party/FreeRTOS/Source/CMSIS_RTOS_V2/cmsis_os2.c **** static StackType_t  Timer_Stack[configTIMER_TASK_STACK_DEPTH];
1905:Middlewares/Third_Party/FreeRTOS/Source/CMSIS_RTOS_V2/cmsis_os2.c **** 
1906:Middlewares/Third_Party/FreeRTOS/Source/CMSIS_RTOS_V2/cmsis_os2.c **** /*
1907:Middlewares/Third_Party/FreeRTOS/Source/CMSIS_RTOS_V2/cmsis_os2.c ****   vApplicationGetIdleTaskMemory gets called when configSUPPORT_STATIC_ALLOCATION
1908:Middlewares/Third_Party/FreeRTOS/Source/CMSIS_RTOS_V2/cmsis_os2.c ****   equals to 1 and is required for static memory allocation support.
1909:Middlewares/Third_Party/FreeRTOS/Source/CMSIS_RTOS_V2/cmsis_os2.c **** */
1910:Middlewares/Third_Party/FreeRTOS/Source/CMSIS_RTOS_V2/cmsis_os2.c **** void vApplicationGetIdleTaskMemory (StaticTask_t **ppxIdleTaskTCBBuffer, StackType_t **ppxIdleTaskS
 7610              		.loc 1 1910 0
 7611              		.cfi_startproc
 7612              		@ args = 0, pretend = 0, frame = 0
 7613              		@ frame_needed = 0, uses_anonymous_args = 0
 7614              		@ link register save eliminated.
 7615              	.LVL680:
1911:Middlewares/Third_Party/FreeRTOS/Source/CMSIS_RTOS_V2/cmsis_os2.c ****   *ppxIdleTaskTCBBuffer   = &Idle_TCB;
 7616              		.loc 1 1911 0
 7617 0000 034B     		ldr	r3, .L807
 7618 0002 0360     		str	r3, [r0]
1912:Middlewares/Third_Party/FreeRTOS/Source/CMSIS_RTOS_V2/cmsis_os2.c ****   *ppxIdleTaskStackBuffer = &Idle_Stack[0];
 7619              		.loc 1 1912 0
 7620 0004 034B     		ldr	r3, .L807+4
 7621 0006 0B60     		str	r3, [r1]
1913:Middlewares/Third_Party/FreeRTOS/Source/CMSIS_RTOS_V2/cmsis_os2.c ****   *pulIdleTaskStackSize   = (uint32_t)configMINIMAL_STACK_SIZE;
 7622              		.loc 1 1913 0
 7623 0008 8023     		movs	r3, #128
 7624 000a 1360     		str	r3, [r2]
ARM GAS  /tmp/ccZrYRqG.s 			page 191


 7625 000c 7047     		bx	lr
 7626              	.L808:
 7627 000e 00BF     		.align	2
 7628              	.L807:
 7629 0010 00000000 		.word	.LANCHOR1
 7630 0014 00000000 		.word	.LANCHOR2
 7631              		.cfi_endproc
 7632              	.LFE170:
 7634              		.section	.text.vApplicationGetTimerTaskMemory,"ax",%progbits
 7635              		.align	1
 7636              		.global	vApplicationGetTimerTaskMemory
 7637              		.syntax unified
 7638              		.thumb
 7639              		.thumb_func
 7640              		.fpu fpv4-sp-d16
 7642              	vApplicationGetTimerTaskMemory:
 7643              	.LFB171:
1914:Middlewares/Third_Party/FreeRTOS/Source/CMSIS_RTOS_V2/cmsis_os2.c **** }
1915:Middlewares/Third_Party/FreeRTOS/Source/CMSIS_RTOS_V2/cmsis_os2.c **** 
1916:Middlewares/Third_Party/FreeRTOS/Source/CMSIS_RTOS_V2/cmsis_os2.c **** /*
1917:Middlewares/Third_Party/FreeRTOS/Source/CMSIS_RTOS_V2/cmsis_os2.c ****   vApplicationGetTimerTaskMemory gets called when configSUPPORT_STATIC_ALLOCATION
1918:Middlewares/Third_Party/FreeRTOS/Source/CMSIS_RTOS_V2/cmsis_os2.c ****   equals to 1 and is required for static memory allocation support.
1919:Middlewares/Third_Party/FreeRTOS/Source/CMSIS_RTOS_V2/cmsis_os2.c **** */
1920:Middlewares/Third_Party/FreeRTOS/Source/CMSIS_RTOS_V2/cmsis_os2.c **** void vApplicationGetTimerTaskMemory (StaticTask_t **ppxTimerTaskTCBBuffer, StackType_t **ppxTimerTa
 7644              		.loc 1 1920 0
 7645              		.cfi_startproc
 7646              		@ args = 0, pretend = 0, frame = 0
 7647              		@ frame_needed = 0, uses_anonymous_args = 0
 7648              		@ link register save eliminated.
 7649              	.LVL681:
1921:Middlewares/Third_Party/FreeRTOS/Source/CMSIS_RTOS_V2/cmsis_os2.c ****   *ppxTimerTaskTCBBuffer   = &Timer_TCB;
 7650              		.loc 1 1921 0
 7651 0000 034B     		ldr	r3, .L810
 7652 0002 0360     		str	r3, [r0]
1922:Middlewares/Third_Party/FreeRTOS/Source/CMSIS_RTOS_V2/cmsis_os2.c ****   *ppxTimerTaskStackBuffer = &Timer_Stack[0];
 7653              		.loc 1 1922 0
 7654 0004 034B     		ldr	r3, .L810+4
 7655 0006 0B60     		str	r3, [r1]
1923:Middlewares/Third_Party/FreeRTOS/Source/CMSIS_RTOS_V2/cmsis_os2.c ****   *pulTimerTaskStackSize   = (uint32_t)configTIMER_TASK_STACK_DEPTH;
 7656              		.loc 1 1923 0
 7657 0008 4FF48073 		mov	r3, #256
 7658 000c 1360     		str	r3, [r2]
 7659 000e 7047     		bx	lr
 7660              	.L811:
 7661              		.align	2
 7662              	.L810:
 7663 0010 00000000 		.word	.LANCHOR3
 7664 0014 00000000 		.word	.LANCHOR4
 7665              		.cfi_endproc
 7666              	.LFE171:
 7668              		.section	.bss.Idle_Stack,"aw",%nobits
 7669              		.align	2
 7670              		.set	.LANCHOR2,. + 0
 7673              	Idle_Stack:
 7674 0000 00000000 		.space	512
 7674      00000000 
 7674      00000000 
ARM GAS  /tmp/ccZrYRqG.s 			page 192


 7674      00000000 
 7674      00000000 
 7675              		.section	.bss.Idle_TCB,"aw",%nobits
 7676              		.align	2
 7677              		.set	.LANCHOR1,. + 0
 7680              	Idle_TCB:
 7681 0000 00000000 		.space	92
 7681      00000000 
 7681      00000000 
 7681      00000000 
 7681      00000000 
 7682              		.section	.bss.KernelState,"aw",%nobits
 7683              		.align	2
 7684              		.set	.LANCHOR0,. + 0
 7687              	KernelState:
 7688 0000 00000000 		.space	4
 7689              		.section	.bss.Timer_Stack,"aw",%nobits
 7690              		.align	2
 7691              		.set	.LANCHOR4,. + 0
 7694              	Timer_Stack:
 7695 0000 00000000 		.space	1024
 7695      00000000 
 7695      00000000 
 7695      00000000 
 7695      00000000 
 7696              		.section	.bss.Timer_TCB,"aw",%nobits
 7697              		.align	2
 7698              		.set	.LANCHOR3,. + 0
 7701              	Timer_TCB:
 7702 0000 00000000 		.space	92
 7702      00000000 
 7702      00000000 
 7702      00000000 
 7702      00000000 
 7703              		.section	.rodata.osKernelGetInfo.str1.4,"aMS",%progbits,1
 7704              		.align	2
 7705              	.LC0:
 7706 0000 46726565 		.ascii	"FreeRTOS V10.2.0\000"
 7706      52544F53 
 7706      20563130 
 7706      2E322E30 
 7706      00
 7707              		.text
 7708              	.Letext0:
 7709              		.file 4 "/usr/include/newlib/machine/_default_types.h"
 7710              		.file 5 "/usr/include/newlib/sys/lock.h"
 7711              		.file 6 "/usr/include/newlib/sys/_types.h"
 7712              		.file 7 "/usr/lib/gcc/arm-none-eabi/6.3.1/include/stddef.h"
 7713              		.file 8 "/usr/include/newlib/sys/reent.h"
 7714              		.file 9 "/usr/include/newlib/sys/_stdint.h"
 7715              		.file 10 "Middlewares/Third_Party/FreeRTOS/Source/CMSIS_RTOS_V2/cmsis_os2.h"
 7716              		.file 11 "Core/Inc/FreeRTOSConfig.h"
 7717              		.file 12 "Middlewares/Third_Party/FreeRTOS/Source/include/projdefs.h"
 7718              		.file 13 "Middlewares/Third_Party/FreeRTOS/Source/include/FreeRTOS.h"
 7719              		.file 14 "Middlewares/Third_Party/FreeRTOS/Source/include/task.h"
 7720              		.file 15 "Middlewares/Third_Party/FreeRTOS/Source/include/timers.h"
 7721              		.file 16 "Middlewares/Third_Party/FreeRTOS/Source/include/event_groups.h"
ARM GAS  /tmp/ccZrYRqG.s 			page 193


 7722              		.file 17 "Middlewares/Third_Party/FreeRTOS/Source/include/queue.h"
 7723              		.file 18 "Middlewares/Third_Party/FreeRTOS/Source/include/semphr.h"
 7724              		.file 19 "Middlewares/Third_Party/FreeRTOS/Source/include/portable.h"
ARM GAS  /tmp/ccZrYRqG.s 			page 194


DEFINED SYMBOLS
                            *ABS*:0000000000000000 cmsis_os2.c
     /tmp/ccZrYRqG.s:18     .text.TimerCallback:0000000000000000 $t
     /tmp/ccZrYRqG.s:24     .text.TimerCallback:0000000000000000 TimerCallback
     /tmp/ccZrYRqG.s:54     .text.osKernelInitialize:0000000000000000 $t
     /tmp/ccZrYRqG.s:61     .text.osKernelInitialize:0000000000000000 osKernelInitialize
     /tmp/ccZrYRqG.s:144    .text.osKernelInitialize:000000000000003c $d
     /tmp/ccZrYRqG.s:149    .text.osKernelGetInfo:0000000000000000 $t
     /tmp/ccZrYRqG.s:156    .text.osKernelGetInfo:0000000000000000 osKernelGetInfo
     /tmp/ccZrYRqG.s:203    .text.osKernelGetInfo:0000000000000024 $d
     /tmp/ccZrYRqG.s:209    .text.osKernelGetState:0000000000000000 $t
     /tmp/ccZrYRqG.s:216    .text.osKernelGetState:0000000000000000 osKernelGetState
     /tmp/ccZrYRqG.s:257    .text.osKernelGetState:0000000000000024 $d
     /tmp/ccZrYRqG.s:262    .text.osKernelStart:0000000000000000 $t
     /tmp/ccZrYRqG.s:269    .text.osKernelStart:0000000000000000 osKernelStart
     /tmp/ccZrYRqG.s:358    .text.osKernelStart:0000000000000044 $d
     /tmp/ccZrYRqG.s:363    .text.osKernelLock:0000000000000000 $t
     /tmp/ccZrYRqG.s:370    .text.osKernelLock:0000000000000000 osKernelLock
     /tmp/ccZrYRqG.s:462    .text.osKernelLock:0000000000000044 $d
     /tmp/ccZrYRqG.s:467    .text.osKernelUnlock:0000000000000000 $t
     /tmp/ccZrYRqG.s:474    .text.osKernelUnlock:0000000000000000 osKernelUnlock
     /tmp/ccZrYRqG.s:580    .text.osKernelUnlock:0000000000000058 $d
     /tmp/ccZrYRqG.s:585    .text.osKernelRestoreLock:0000000000000000 $t
     /tmp/ccZrYRqG.s:592    .text.osKernelRestoreLock:0000000000000000 osKernelRestoreLock
     /tmp/ccZrYRqG.s:713    .text.osKernelRestoreLock:0000000000000068 $d
     /tmp/ccZrYRqG.s:718    .text.osKernelGetTickCount:0000000000000000 $t
     /tmp/ccZrYRqG.s:725    .text.osKernelGetTickCount:0000000000000000 osKernelGetTickCount
     /tmp/ccZrYRqG.s:796    .text.osKernelGetTickCount:0000000000000028 $d
     /tmp/ccZrYRqG.s:801    .text.osKernelGetTickFreq:0000000000000000 $t
     /tmp/ccZrYRqG.s:808    .text.osKernelGetTickFreq:0000000000000000 osKernelGetTickFreq
     /tmp/ccZrYRqG.s:822    .text.osKernelGetSysTimerCount:0000000000000000 $t
     /tmp/ccZrYRqG.s:829    .text.osKernelGetSysTimerCount:0000000000000000 osKernelGetSysTimerCount
     /tmp/ccZrYRqG.s:918    .text.osKernelGetSysTimerCount:0000000000000034 $d
     /tmp/ccZrYRqG.s:924    .text.osKernelGetSysTimerFreq:0000000000000000 $t
     /tmp/ccZrYRqG.s:931    .text.osKernelGetSysTimerFreq:0000000000000000 osKernelGetSysTimerFreq
     /tmp/ccZrYRqG.s:945    .text.osKernelGetSysTimerFreq:0000000000000008 $d
     /tmp/ccZrYRqG.s:950    .text.osThreadNew:0000000000000000 $t
     /tmp/ccZrYRqG.s:957    .text.osThreadNew:0000000000000000 osThreadNew
     /tmp/ccZrYRqG.s:1184   .text.osThreadNew:00000000000000d0 $d
     /tmp/ccZrYRqG.s:1189   .text.osThreadGetName:0000000000000000 $t
     /tmp/ccZrYRqG.s:1196   .text.osThreadGetName:0000000000000000 osThreadGetName
     /tmp/ccZrYRqG.s:1281   .text.osThreadGetName:0000000000000030 $d
     /tmp/ccZrYRqG.s:1286   .text.osThreadGetId:0000000000000000 $t
     /tmp/ccZrYRqG.s:1293   .text.osThreadGetId:0000000000000000 osThreadGetId
     /tmp/ccZrYRqG.s:1313   .text.osThreadGetState:0000000000000000 $t
     /tmp/ccZrYRqG.s:1320   .text.osThreadGetState:0000000000000000 osThreadGetState
     /tmp/ccZrYRqG.s:1388   .text.osThreadGetState:000000000000002a $d
     /tmp/ccZrYRqG.s:1438   .text.osThreadGetState:0000000000000058 $d
     /tmp/ccZrYRqG.s:1443   .text.osThreadGetStackSpace:0000000000000000 $t
     /tmp/ccZrYRqG.s:1450   .text.osThreadGetStackSpace:0000000000000000 osThreadGetStackSpace
     /tmp/ccZrYRqG.s:1530   .text.osThreadGetStackSpace:000000000000002c $d
     /tmp/ccZrYRqG.s:1535   .text.osThreadSetPriority:0000000000000000 $t
     /tmp/ccZrYRqG.s:1542   .text.osThreadSetPriority:0000000000000000 osThreadSetPriority
     /tmp/ccZrYRqG.s:1647   .text.osThreadSetPriority:000000000000004c $d
     /tmp/ccZrYRqG.s:1652   .text.osThreadGetPriority:0000000000000000 $t
     /tmp/ccZrYRqG.s:1659   .text.osThreadGetPriority:0000000000000000 osThreadGetPriority
     /tmp/ccZrYRqG.s:1744   .text.osThreadGetPriority:0000000000000038 $d
ARM GAS  /tmp/ccZrYRqG.s 			page 195


     /tmp/ccZrYRqG.s:1749   .text.osThreadYield:0000000000000000 $t
     /tmp/ccZrYRqG.s:1756   .text.osThreadYield:0000000000000000 osThreadYield
     /tmp/ccZrYRqG.s:1839   .text.osThreadYield:000000000000003c $d
     /tmp/ccZrYRqG.s:1845   .text.osThreadSuspend:0000000000000000 $t
     /tmp/ccZrYRqG.s:1852   .text.osThreadSuspend:0000000000000000 osThreadSuspend
     /tmp/ccZrYRqG.s:1941   .text.osThreadSuspend:0000000000000038 $d
     /tmp/ccZrYRqG.s:1946   .text.osThreadResume:0000000000000000 $t
     /tmp/ccZrYRqG.s:1953   .text.osThreadResume:0000000000000000 osThreadResume
     /tmp/ccZrYRqG.s:2042   .text.osThreadResume:0000000000000038 $d
     /tmp/ccZrYRqG.s:2047   .text.osThreadExit:0000000000000000 $t
     /tmp/ccZrYRqG.s:2054   .text.osThreadExit:0000000000000000 osThreadExit
     /tmp/ccZrYRqG.s:2076   .text.osThreadTerminate:0000000000000000 $t
     /tmp/ccZrYRqG.s:2083   .text.osThreadTerminate:0000000000000000 osThreadTerminate
     /tmp/ccZrYRqG.s:2196   .text.osThreadTerminate:000000000000004c $d
     /tmp/ccZrYRqG.s:2201   .text.osThreadGetCount:0000000000000000 $t
     /tmp/ccZrYRqG.s:2208   .text.osThreadGetCount:0000000000000000 osThreadGetCount
     /tmp/ccZrYRqG.s:2292   .text.osThreadGetCount:0000000000000028 $d
     /tmp/ccZrYRqG.s:2297   .text.osThreadEnumerate:0000000000000000 $t
     /tmp/ccZrYRqG.s:2304   .text.osThreadEnumerate:0000000000000000 osThreadEnumerate
     /tmp/ccZrYRqG.s:2447   .text.osThreadEnumerate:000000000000007c $d
     /tmp/ccZrYRqG.s:2452   .text.osThreadFlagsSet:0000000000000000 $t
     /tmp/ccZrYRqG.s:2459   .text.osThreadFlagsSet:0000000000000000 osThreadFlagsSet
     /tmp/ccZrYRqG.s:2604   .text.osThreadFlagsSet:000000000000008c $d
     /tmp/ccZrYRqG.s:2610   .text.osThreadFlagsClear:0000000000000000 $t
     /tmp/ccZrYRqG.s:2617   .text.osThreadFlagsClear:0000000000000000 osThreadFlagsClear
     /tmp/ccZrYRqG.s:2748   .text.osThreadFlagsClear:0000000000000070 $d
     /tmp/ccZrYRqG.s:2753   .text.osThreadFlagsGet:0000000000000000 $t
     /tmp/ccZrYRqG.s:2760   .text.osThreadFlagsGet:0000000000000000 osThreadFlagsGet
     /tmp/ccZrYRqG.s:2849   .text.osThreadFlagsGet:0000000000000048 $d
     /tmp/ccZrYRqG.s:2854   .text.osThreadFlagsWait:0000000000000000 $t
     /tmp/ccZrYRqG.s:2861   .text.osThreadFlagsWait:0000000000000000 osThreadFlagsWait
     /tmp/ccZrYRqG.s:3068   .text.osThreadFlagsWait:00000000000000bc $d
     /tmp/ccZrYRqG.s:3073   .text.osDelay:0000000000000000 $t
     /tmp/ccZrYRqG.s:3080   .text.osDelay:0000000000000000 osDelay
     /tmp/ccZrYRqG.s:3168   .text.osDelay:0000000000000038 $d
     /tmp/ccZrYRqG.s:3173   .text.osDelayUntil:0000000000000000 $t
     /tmp/ccZrYRqG.s:3180   .text.osDelayUntil:0000000000000000 osDelayUntil
     /tmp/ccZrYRqG.s:3297   .text.osDelayUntil:000000000000004c $d
     /tmp/ccZrYRqG.s:3302   .text.osTimerNew:0000000000000000 $t
     /tmp/ccZrYRqG.s:3309   .text.osTimerNew:0000000000000000 osTimerNew
     /tmp/ccZrYRqG.s:3516   .text.osTimerNew:00000000000000a8 $d
     /tmp/ccZrYRqG.s:3522   .text.osTimerGetName:0000000000000000 $t
     /tmp/ccZrYRqG.s:3529   .text.osTimerGetName:0000000000000000 osTimerGetName
     /tmp/ccZrYRqG.s:3614   .text.osTimerGetName:0000000000000030 $d
     /tmp/ccZrYRqG.s:3619   .text.osTimerStart:0000000000000000 $t
     /tmp/ccZrYRqG.s:3626   .text.osTimerStart:0000000000000000 osTimerStart
     /tmp/ccZrYRqG.s:3741   .text.osTimerStart:0000000000000050 $d
     /tmp/ccZrYRqG.s:3746   .text.osTimerStop:0000000000000000 $t
     /tmp/ccZrYRqG.s:3753   .text.osTimerStop:0000000000000000 osTimerStop
     /tmp/ccZrYRqG.s:3880   .text.osTimerStop:0000000000000060 $d
     /tmp/ccZrYRqG.s:3885   .text.osTimerIsRunning:0000000000000000 $t
     /tmp/ccZrYRqG.s:3892   .text.osTimerIsRunning:0000000000000000 osTimerIsRunning
     /tmp/ccZrYRqG.s:3972   .text.osTimerIsRunning:000000000000002c $d
     /tmp/ccZrYRqG.s:3977   .text.osTimerDelete:0000000000000000 $t
     /tmp/ccZrYRqG.s:3984   .text.osTimerDelete:0000000000000000 osTimerDelete
     /tmp/ccZrYRqG.s:4117   .text.osTimerDelete:0000000000000060 $d
     /tmp/ccZrYRqG.s:4122   .text.osEventFlagsNew:0000000000000000 $t
ARM GAS  /tmp/ccZrYRqG.s 			page 196


     /tmp/ccZrYRqG.s:4129   .text.osEventFlagsNew:0000000000000000 osEventFlagsNew
     /tmp/ccZrYRqG.s:4263   .text.osEventFlagsNew:0000000000000064 $d
     /tmp/ccZrYRqG.s:4268   .text.osEventFlagsSet:0000000000000000 $t
     /tmp/ccZrYRqG.s:4275   .text.osEventFlagsSet:0000000000000000 osEventFlagsSet
     /tmp/ccZrYRqG.s:4424   .text.osEventFlagsSet:0000000000000070 $d
     /tmp/ccZrYRqG.s:4430   .text.osEventFlagsClear:0000000000000000 $t
     /tmp/ccZrYRqG.s:4437   .text.osEventFlagsClear:0000000000000000 osEventFlagsClear
     /tmp/ccZrYRqG.s:4554   .text.osEventFlagsClear:000000000000005c $d
     /tmp/ccZrYRqG.s:4559   .text.osEventFlagsGet:0000000000000000 $t
     /tmp/ccZrYRqG.s:4566   .text.osEventFlagsGet:0000000000000000 osEventFlagsGet
     /tmp/ccZrYRqG.s:4652   .text.osEventFlagsGet:0000000000000030 $d
     /tmp/ccZrYRqG.s:4657   .text.osEventFlagsWait:0000000000000000 $t
     /tmp/ccZrYRqG.s:4664   .text.osEventFlagsWait:0000000000000000 osEventFlagsWait
     /tmp/ccZrYRqG.s:4854   .text.osEventFlagsWait:0000000000000090 $d
     /tmp/ccZrYRqG.s:4859   .text.osEventFlagsDelete:0000000000000000 $t
     /tmp/ccZrYRqG.s:4866   .text.osEventFlagsDelete:0000000000000000 osEventFlagsDelete
     /tmp/ccZrYRqG.s:4955   .text.osEventFlagsDelete:0000000000000038 $d
     /tmp/ccZrYRqG.s:4960   .text.osMutexNew:0000000000000000 $t
     /tmp/ccZrYRqG.s:4967   .text.osMutexNew:0000000000000000 osMutexNew
     /tmp/ccZrYRqG.s:5190   .text.osMutexNew:00000000000000c0 $d
     /tmp/ccZrYRqG.s:5195   .text.osMutexAcquire:0000000000000000 $t
     /tmp/ccZrYRqG.s:5202   .text.osMutexAcquire:0000000000000000 osMutexAcquire
     /tmp/ccZrYRqG.s:5343   .text.osMutexAcquire:0000000000000074 $d
     /tmp/ccZrYRqG.s:5348   .text.osMutexRelease:0000000000000000 $t
     /tmp/ccZrYRqG.s:5355   .text.osMutexRelease:0000000000000000 osMutexRelease
     /tmp/ccZrYRqG.s:5488   .text.osMutexRelease:0000000000000068 $d
     /tmp/ccZrYRqG.s:5493   .text.osMutexGetOwner:0000000000000000 $t
     /tmp/ccZrYRqG.s:5500   .text.osMutexGetOwner:0000000000000000 osMutexGetOwner
     /tmp/ccZrYRqG.s:5587   .text.osMutexGetOwner:0000000000000034 $d
     /tmp/ccZrYRqG.s:5592   .text.osMutexDelete:0000000000000000 $t
     /tmp/ccZrYRqG.s:5599   .text.osMutexDelete:0000000000000000 osMutexDelete
     /tmp/ccZrYRqG.s:5704   .text.osMutexDelete:0000000000000044 $d
     /tmp/ccZrYRqG.s:5709   .text.osSemaphoreNew:0000000000000000 $t
     /tmp/ccZrYRqG.s:5716   .text.osSemaphoreNew:0000000000000000 osSemaphoreNew
     /tmp/ccZrYRqG.s:5956   .text.osSemaphoreNew:00000000000000e4 $d
     /tmp/ccZrYRqG.s:5961   .text.osSemaphoreAcquire:0000000000000000 $t
     /tmp/ccZrYRqG.s:5968   .text.osSemaphoreAcquire:0000000000000000 osSemaphoreAcquire
     /tmp/ccZrYRqG.s:6126   .text.osSemaphoreAcquire:0000000000000080 $d
     /tmp/ccZrYRqG.s:6132   .text.osSemaphoreRelease:0000000000000000 $t
     /tmp/ccZrYRqG.s:6139   .text.osSemaphoreRelease:0000000000000000 osSemaphoreRelease
     /tmp/ccZrYRqG.s:6282   .text.osSemaphoreRelease:0000000000000074 $d
     /tmp/ccZrYRqG.s:6288   .text.osSemaphoreGetCount:0000000000000000 $t
     /tmp/ccZrYRqG.s:6295   .text.osSemaphoreGetCount:0000000000000000 osSemaphoreGetCount
     /tmp/ccZrYRqG.s:6380   .text.osSemaphoreGetCount:0000000000000030 $d
     /tmp/ccZrYRqG.s:6385   .text.osSemaphoreDelete:0000000000000000 $t
     /tmp/ccZrYRqG.s:6392   .text.osSemaphoreDelete:0000000000000000 osSemaphoreDelete
     /tmp/ccZrYRqG.s:6489   .text.osSemaphoreDelete:0000000000000040 $d
     /tmp/ccZrYRqG.s:6494   .text.osMessageQueueNew:0000000000000000 $t
     /tmp/ccZrYRqG.s:6501   .text.osMessageQueueNew:0000000000000000 osMessageQueueNew
     /tmp/ccZrYRqG.s:6711   .text.osMessageQueueNew:00000000000000bc $d
     /tmp/ccZrYRqG.s:6716   .text.osMessageQueuePut:0000000000000000 $t
     /tmp/ccZrYRqG.s:6723   .text.osMessageQueuePut:0000000000000000 osMessageQueuePut
     /tmp/ccZrYRqG.s:6901   .text.osMessageQueuePut:000000000000009c $d
     /tmp/ccZrYRqG.s:6907   .text.osMessageQueueGet:0000000000000000 $t
     /tmp/ccZrYRqG.s:6914   .text.osMessageQueueGet:0000000000000000 osMessageQueueGet
     /tmp/ccZrYRqG.s:7091   .text.osMessageQueueGet:0000000000000098 $d
     /tmp/ccZrYRqG.s:7097   .text.osMessageQueueGetCapacity:0000000000000000 $t
ARM GAS  /tmp/ccZrYRqG.s 			page 197


     /tmp/ccZrYRqG.s:7104   .text.osMessageQueueGetCapacity:0000000000000000 osMessageQueueGetCapacity
     /tmp/ccZrYRqG.s:7129   .text.osMessageQueueGetMsgSize:0000000000000000 $t
     /tmp/ccZrYRqG.s:7136   .text.osMessageQueueGetMsgSize:0000000000000000 osMessageQueueGetMsgSize
     /tmp/ccZrYRqG.s:7161   .text.osMessageQueueGetCount:0000000000000000 $t
     /tmp/ccZrYRqG.s:7168   .text.osMessageQueueGetCount:0000000000000000 osMessageQueueGetCount
     /tmp/ccZrYRqG.s:7253   .text.osMessageQueueGetCount:0000000000000030 $d
     /tmp/ccZrYRqG.s:7258   .text.osMessageQueueGetSpace:0000000000000000 $t
     /tmp/ccZrYRqG.s:7265   .text.osMessageQueueGetSpace:0000000000000000 osMessageQueueGetSpace
     /tmp/ccZrYRqG.s:7385   .text.osMessageQueueGetSpace:000000000000004c $d
     /tmp/ccZrYRqG.s:7390   .text.osMessageQueueReset:0000000000000000 $t
     /tmp/ccZrYRqG.s:7397   .text.osMessageQueueReset:0000000000000000 osMessageQueueReset
     /tmp/ccZrYRqG.s:7487   .text.osMessageQueueReset:000000000000003c $d
     /tmp/ccZrYRqG.s:7492   .text.osMessageQueueDelete:0000000000000000 $t
     /tmp/ccZrYRqG.s:7499   .text.osMessageQueueDelete:0000000000000000 osMessageQueueDelete
     /tmp/ccZrYRqG.s:7596   .text.osMessageQueueDelete:0000000000000040 $d
     /tmp/ccZrYRqG.s:7601   .text.vApplicationGetIdleTaskMemory:0000000000000000 $t
     /tmp/ccZrYRqG.s:7608   .text.vApplicationGetIdleTaskMemory:0000000000000000 vApplicationGetIdleTaskMemory
     /tmp/ccZrYRqG.s:7629   .text.vApplicationGetIdleTaskMemory:0000000000000010 $d
     /tmp/ccZrYRqG.s:7635   .text.vApplicationGetTimerTaskMemory:0000000000000000 $t
     /tmp/ccZrYRqG.s:7642   .text.vApplicationGetTimerTaskMemory:0000000000000000 vApplicationGetTimerTaskMemory
     /tmp/ccZrYRqG.s:7663   .text.vApplicationGetTimerTaskMemory:0000000000000010 $d
     /tmp/ccZrYRqG.s:7669   .bss.Idle_Stack:0000000000000000 $d
     /tmp/ccZrYRqG.s:7673   .bss.Idle_Stack:0000000000000000 Idle_Stack
     /tmp/ccZrYRqG.s:7676   .bss.Idle_TCB:0000000000000000 $d
     /tmp/ccZrYRqG.s:7680   .bss.Idle_TCB:0000000000000000 Idle_TCB
     /tmp/ccZrYRqG.s:7683   .bss.KernelState:0000000000000000 $d
     /tmp/ccZrYRqG.s:7687   .bss.KernelState:0000000000000000 KernelState
     /tmp/ccZrYRqG.s:7690   .bss.Timer_Stack:0000000000000000 $d
     /tmp/ccZrYRqG.s:7694   .bss.Timer_Stack:0000000000000000 Timer_Stack
     /tmp/ccZrYRqG.s:7697   .bss.Timer_TCB:0000000000000000 $d
     /tmp/ccZrYRqG.s:7701   .bss.Timer_TCB:0000000000000000 Timer_TCB
     /tmp/ccZrYRqG.s:7704   .rodata.osKernelGetInfo.str1.4:0000000000000000 $d
                     .debug_frame:0000000000000010 $d
     /tmp/ccZrYRqG.s:1393   .text.osThreadGetState:000000000000002f $d
     /tmp/ccZrYRqG.s:1393   .text.osThreadGetState:0000000000000030 $t

UNDEFINED SYMBOLS
pvTimerGetTimerID
memcpy
xTaskGetSchedulerState
vTaskStartScheduler
vTaskSuspendAll
xTaskResumeAll
xTaskGetTickCount
xTaskGetTickCountFromISR
SystemCoreClock
xTaskCreateStatic
xTaskCreate
pcTaskGetName
xTaskGetCurrentTaskHandle
eTaskGetState
uxTaskGetStackHighWaterMark
vTaskPrioritySet
uxTaskPriorityGet
vTaskSuspend
vTaskResume
vTaskDelete
ARM GAS  /tmp/ccZrYRqG.s 			page 198


uxTaskGetNumberOfTasks
pvPortMalloc
uxTaskGetSystemState
vPortFree
xTaskGenericNotify
xTaskGenericNotifyFromISR
xTaskNotifyWait
vTaskDelay
vTaskDelayUntil
xTimerCreate
xTimerCreateStatic
pcTimerGetName
xTimerGenericCommand
xTimerIsTimerActive
xEventGroupCreate
xEventGroupCreateStatic
xEventGroupSetBits
xEventGroupSetBitsFromISR
xEventGroupClearBits
xEventGroupGetBitsFromISR
xEventGroupClearBitsFromISR
xEventGroupWaitBits
vEventGroupDelete
xQueueCreateMutex
xQueueCreateMutexStatic
vQueueAddToRegistry
xQueueTakeMutexRecursive
xQueueSemaphoreTake
xQueueGiveMutexRecursive
xQueueGenericSend
xQueueGetMutexHolder
vQueueUnregisterQueue
vQueueDelete
xQueueCreateCountingSemaphore
xQueueGenericCreate
xQueueGenericCreateStatic
xQueueCreateCountingSemaphoreStatic
xQueueReceiveFromISR
xQueueGiveFromISR
uxQueueMessagesWaiting
uxQueueMessagesWaitingFromISR
xQueueGenericSendFromISR
xQueueReceive
uxQueueSpacesAvailable
xQueueGenericReset
