ARM GAS  /tmp/ccjoX6ph.s 			page 1


   1              		.cpu cortex-m4
   2              		.eabi_attribute 27, 1
   3              		.eabi_attribute 28, 1
   4              		.eabi_attribute 20, 1
   5              		.eabi_attribute 21, 1
   6              		.eabi_attribute 23, 3
   7              		.eabi_attribute 24, 1
   8              		.eabi_attribute 25, 1
   9              		.eabi_attribute 26, 1
  10              		.eabi_attribute 30, 1
  11              		.eabi_attribute 34, 1
  12              		.eabi_attribute 18, 4
  13              		.file	"stm32f4xx_hal_msp.c"
  14              		.text
  15              	.Ltext0:
  16              		.cfi_sections	.debug_frame
  17              		.section	.text.HAL_MspInit,"ax",%progbits
  18              		.align	1
  19              		.global	HAL_MspInit
  20              		.syntax unified
  21              		.thumb
  22              		.thumb_func
  23              		.fpu fpv4-sp-d16
  25              	HAL_MspInit:
  26              	.LFB130:
  27              		.file 1 "Core/Src/stm32f4xx_hal_msp.c"
   1:Core/Src/stm32f4xx_hal_msp.c **** /* USER CODE BEGIN Header */
   2:Core/Src/stm32f4xx_hal_msp.c **** /**
   3:Core/Src/stm32f4xx_hal_msp.c ****   ******************************************************************************
   4:Core/Src/stm32f4xx_hal_msp.c ****   * @file         stm32f4xx_hal_msp.c
   5:Core/Src/stm32f4xx_hal_msp.c ****   * @brief        This file provides code for the MSP Initialization
   6:Core/Src/stm32f4xx_hal_msp.c ****   *               and de-Initialization codes.
   7:Core/Src/stm32f4xx_hal_msp.c ****   ******************************************************************************
   8:Core/Src/stm32f4xx_hal_msp.c ****   * @attention
   9:Core/Src/stm32f4xx_hal_msp.c ****   *
  10:Core/Src/stm32f4xx_hal_msp.c ****   * <h2><center>&copy; Copyright (c) 2021 STMicroelectronics.
  11:Core/Src/stm32f4xx_hal_msp.c ****   * All rights reserved.</center></h2>
  12:Core/Src/stm32f4xx_hal_msp.c ****   *
  13:Core/Src/stm32f4xx_hal_msp.c ****   * This software component is licensed by ST under Ultimate Liberty license
  14:Core/Src/stm32f4xx_hal_msp.c ****   * SLA0044, the "License"; You may not use this file except in compliance with
  15:Core/Src/stm32f4xx_hal_msp.c ****   * the License. You may obtain a copy of the License at:
  16:Core/Src/stm32f4xx_hal_msp.c ****   *                             www.st.com/SLA0044
  17:Core/Src/stm32f4xx_hal_msp.c ****   *
  18:Core/Src/stm32f4xx_hal_msp.c ****   ******************************************************************************
  19:Core/Src/stm32f4xx_hal_msp.c ****   */
  20:Core/Src/stm32f4xx_hal_msp.c **** /* USER CODE END Header */
  21:Core/Src/stm32f4xx_hal_msp.c **** 
  22:Core/Src/stm32f4xx_hal_msp.c **** /* Includes ------------------------------------------------------------------*/
  23:Core/Src/stm32f4xx_hal_msp.c **** #include "main.h"
  24:Core/Src/stm32f4xx_hal_msp.c **** /* USER CODE BEGIN Includes */
  25:Core/Src/stm32f4xx_hal_msp.c **** 
  26:Core/Src/stm32f4xx_hal_msp.c **** /* USER CODE END Includes */
  27:Core/Src/stm32f4xx_hal_msp.c **** extern DMA_HandleTypeDef hdma_tim2_ch1;
  28:Core/Src/stm32f4xx_hal_msp.c **** 
  29:Core/Src/stm32f4xx_hal_msp.c **** extern DMA_HandleTypeDef hdma_tim2_ch2_ch4;
  30:Core/Src/stm32f4xx_hal_msp.c **** 
  31:Core/Src/stm32f4xx_hal_msp.c **** extern DMA_HandleTypeDef hdma_tim2_up_ch3;
ARM GAS  /tmp/ccjoX6ph.s 			page 2


  32:Core/Src/stm32f4xx_hal_msp.c **** 
  33:Core/Src/stm32f4xx_hal_msp.c **** /* Private typedef -----------------------------------------------------------*/
  34:Core/Src/stm32f4xx_hal_msp.c **** /* USER CODE BEGIN TD */
  35:Core/Src/stm32f4xx_hal_msp.c **** 
  36:Core/Src/stm32f4xx_hal_msp.c **** /* USER CODE END TD */
  37:Core/Src/stm32f4xx_hal_msp.c **** 
  38:Core/Src/stm32f4xx_hal_msp.c **** /* Private define ------------------------------------------------------------*/
  39:Core/Src/stm32f4xx_hal_msp.c **** /* USER CODE BEGIN Define */
  40:Core/Src/stm32f4xx_hal_msp.c **** 
  41:Core/Src/stm32f4xx_hal_msp.c **** /* USER CODE END Define */
  42:Core/Src/stm32f4xx_hal_msp.c **** 
  43:Core/Src/stm32f4xx_hal_msp.c **** /* Private macro -------------------------------------------------------------*/
  44:Core/Src/stm32f4xx_hal_msp.c **** /* USER CODE BEGIN Macro */
  45:Core/Src/stm32f4xx_hal_msp.c **** 
  46:Core/Src/stm32f4xx_hal_msp.c **** /* USER CODE END Macro */
  47:Core/Src/stm32f4xx_hal_msp.c **** 
  48:Core/Src/stm32f4xx_hal_msp.c **** /* Private variables ---------------------------------------------------------*/
  49:Core/Src/stm32f4xx_hal_msp.c **** /* USER CODE BEGIN PV */
  50:Core/Src/stm32f4xx_hal_msp.c **** 
  51:Core/Src/stm32f4xx_hal_msp.c **** /* USER CODE END PV */
  52:Core/Src/stm32f4xx_hal_msp.c **** 
  53:Core/Src/stm32f4xx_hal_msp.c **** /* Private function prototypes -----------------------------------------------*/
  54:Core/Src/stm32f4xx_hal_msp.c **** /* USER CODE BEGIN PFP */
  55:Core/Src/stm32f4xx_hal_msp.c **** 
  56:Core/Src/stm32f4xx_hal_msp.c **** /* USER CODE END PFP */
  57:Core/Src/stm32f4xx_hal_msp.c **** 
  58:Core/Src/stm32f4xx_hal_msp.c **** /* External functions --------------------------------------------------------*/
  59:Core/Src/stm32f4xx_hal_msp.c **** /* USER CODE BEGIN ExternalFunctions */
  60:Core/Src/stm32f4xx_hal_msp.c **** 
  61:Core/Src/stm32f4xx_hal_msp.c **** /* USER CODE END ExternalFunctions */
  62:Core/Src/stm32f4xx_hal_msp.c **** 
  63:Core/Src/stm32f4xx_hal_msp.c **** /* USER CODE BEGIN 0 */
  64:Core/Src/stm32f4xx_hal_msp.c **** 
  65:Core/Src/stm32f4xx_hal_msp.c **** /* USER CODE END 0 */
  66:Core/Src/stm32f4xx_hal_msp.c **** /**
  67:Core/Src/stm32f4xx_hal_msp.c ****   * Initializes the Global MSP.
  68:Core/Src/stm32f4xx_hal_msp.c ****   */
  69:Core/Src/stm32f4xx_hal_msp.c **** void HAL_MspInit(void)
  70:Core/Src/stm32f4xx_hal_msp.c **** {
  28              		.loc 1 70 0
  29              		.cfi_startproc
  30              		@ args = 0, pretend = 0, frame = 8
  31              		@ frame_needed = 0, uses_anonymous_args = 0
  32 0000 00B5     		push	{lr}
  33              	.LCFI0:
  34              		.cfi_def_cfa_offset 4
  35              		.cfi_offset 14, -4
  36 0002 83B0     		sub	sp, sp, #12
  37              	.LCFI1:
  38              		.cfi_def_cfa_offset 16
  39              	.LBB2:
  71:Core/Src/stm32f4xx_hal_msp.c ****   /* USER CODE BEGIN MspInit 0 */
  72:Core/Src/stm32f4xx_hal_msp.c **** 
  73:Core/Src/stm32f4xx_hal_msp.c ****   /* USER CODE END MspInit 0 */
  74:Core/Src/stm32f4xx_hal_msp.c **** 
  75:Core/Src/stm32f4xx_hal_msp.c ****   __HAL_RCC_SYSCFG_CLK_ENABLE();
  40              		.loc 1 75 0
ARM GAS  /tmp/ccjoX6ph.s 			page 3


  41 0004 0022     		movs	r2, #0
  42 0006 0092     		str	r2, [sp]
  43 0008 0D4B     		ldr	r3, .L3
  44 000a 596C     		ldr	r1, [r3, #68]
  45 000c 41F48041 		orr	r1, r1, #16384
  46 0010 5964     		str	r1, [r3, #68]
  47 0012 596C     		ldr	r1, [r3, #68]
  48 0014 01F48041 		and	r1, r1, #16384
  49 0018 0091     		str	r1, [sp]
  50 001a 0099     		ldr	r1, [sp]
  51              	.LBE2:
  52              	.LBB3:
  76:Core/Src/stm32f4xx_hal_msp.c ****   __HAL_RCC_PWR_CLK_ENABLE();
  53              		.loc 1 76 0
  54 001c 0192     		str	r2, [sp, #4]
  55 001e 196C     		ldr	r1, [r3, #64]
  56 0020 41F08051 		orr	r1, r1, #268435456
  57 0024 1964     		str	r1, [r3, #64]
  58 0026 1B6C     		ldr	r3, [r3, #64]
  59 0028 03F08053 		and	r3, r3, #268435456
  60 002c 0193     		str	r3, [sp, #4]
  61 002e 019B     		ldr	r3, [sp, #4]
  62              	.LBE3:
  77:Core/Src/stm32f4xx_hal_msp.c **** 
  78:Core/Src/stm32f4xx_hal_msp.c ****   /* System interrupt init*/
  79:Core/Src/stm32f4xx_hal_msp.c ****   /* PendSV_IRQn interrupt configuration */
  80:Core/Src/stm32f4xx_hal_msp.c ****   HAL_NVIC_SetPriority(PendSV_IRQn, 15, 0);
  63              		.loc 1 80 0
  64 0030 0F21     		movs	r1, #15
  65 0032 6FF00100 		mvn	r0, #1
  66 0036 FFF7FEFF 		bl	HAL_NVIC_SetPriority
  67              	.LVL0:
  81:Core/Src/stm32f4xx_hal_msp.c **** 
  82:Core/Src/stm32f4xx_hal_msp.c ****   /* USER CODE BEGIN MspInit 1 */
  83:Core/Src/stm32f4xx_hal_msp.c **** 
  84:Core/Src/stm32f4xx_hal_msp.c ****   /* USER CODE END MspInit 1 */
  85:Core/Src/stm32f4xx_hal_msp.c **** }
  68              		.loc 1 85 0
  69 003a 03B0     		add	sp, sp, #12
  70              	.LCFI2:
  71              		.cfi_def_cfa_offset 4
  72              		@ sp needed
  73 003c 5DF804FB 		ldr	pc, [sp], #4
  74              	.L4:
  75              		.align	2
  76              	.L3:
  77 0040 00380240 		.word	1073887232
  78              		.cfi_endproc
  79              	.LFE130:
  81              		.section	.text.HAL_CAN_MspInit,"ax",%progbits
  82              		.align	1
  83              		.global	HAL_CAN_MspInit
  84              		.syntax unified
  85              		.thumb
  86              		.thumb_func
  87              		.fpu fpv4-sp-d16
  89              	HAL_CAN_MspInit:
ARM GAS  /tmp/ccjoX6ph.s 			page 4


  90              	.LFB131:
  86:Core/Src/stm32f4xx_hal_msp.c **** 
  87:Core/Src/stm32f4xx_hal_msp.c **** /**
  88:Core/Src/stm32f4xx_hal_msp.c **** * @brief CAN MSP Initialization
  89:Core/Src/stm32f4xx_hal_msp.c **** * This function configures the hardware resources used in this example
  90:Core/Src/stm32f4xx_hal_msp.c **** * @param hcan: CAN handle pointer
  91:Core/Src/stm32f4xx_hal_msp.c **** * @retval None
  92:Core/Src/stm32f4xx_hal_msp.c **** */
  93:Core/Src/stm32f4xx_hal_msp.c **** void HAL_CAN_MspInit(CAN_HandleTypeDef* hcan)
  94:Core/Src/stm32f4xx_hal_msp.c **** {
  91              		.loc 1 94 0
  92              		.cfi_startproc
  93              		@ args = 0, pretend = 0, frame = 48
  94              		@ frame_needed = 0, uses_anonymous_args = 0
  95              	.LVL1:
  96 0000 10B5     		push	{r4, lr}
  97              	.LCFI3:
  98              		.cfi_def_cfa_offset 8
  99              		.cfi_offset 4, -8
 100              		.cfi_offset 14, -4
 101 0002 8CB0     		sub	sp, sp, #48
 102              	.LCFI4:
 103              		.cfi_def_cfa_offset 56
  95:Core/Src/stm32f4xx_hal_msp.c ****   GPIO_InitTypeDef GPIO_InitStruct = {0};
 104              		.loc 1 95 0
 105 0004 0023     		movs	r3, #0
 106 0006 0793     		str	r3, [sp, #28]
 107 0008 0893     		str	r3, [sp, #32]
 108 000a 0993     		str	r3, [sp, #36]
 109 000c 0A93     		str	r3, [sp, #40]
 110 000e 0B93     		str	r3, [sp, #44]
  96:Core/Src/stm32f4xx_hal_msp.c ****   if(hcan->Instance==CAN1)
 111              		.loc 1 96 0
 112 0010 0368     		ldr	r3, [r0]
 113 0012 474A     		ldr	r2, .L13
 114 0014 9342     		cmp	r3, r2
 115 0016 07D0     		beq	.L10
  97:Core/Src/stm32f4xx_hal_msp.c ****   {
  98:Core/Src/stm32f4xx_hal_msp.c ****   /* USER CODE BEGIN CAN1_MspInit 0 */
  99:Core/Src/stm32f4xx_hal_msp.c **** 
 100:Core/Src/stm32f4xx_hal_msp.c ****   /* USER CODE END CAN1_MspInit 0 */
 101:Core/Src/stm32f4xx_hal_msp.c ****     /* Peripheral clock enable */
 102:Core/Src/stm32f4xx_hal_msp.c ****     __HAL_RCC_CAN1_CLK_ENABLE();
 103:Core/Src/stm32f4xx_hal_msp.c **** 
 104:Core/Src/stm32f4xx_hal_msp.c ****     __HAL_RCC_GPIOB_CLK_ENABLE();
 105:Core/Src/stm32f4xx_hal_msp.c ****     /**CAN1 GPIO Configuration
 106:Core/Src/stm32f4xx_hal_msp.c ****     PB8     ------> CAN1_RX
 107:Core/Src/stm32f4xx_hal_msp.c ****     PB9     ------> CAN1_TX
 108:Core/Src/stm32f4xx_hal_msp.c ****     */
 109:Core/Src/stm32f4xx_hal_msp.c ****     GPIO_InitStruct.Pin = GPIO_PIN_8|GPIO_PIN_9;
 110:Core/Src/stm32f4xx_hal_msp.c ****     GPIO_InitStruct.Mode = GPIO_MODE_AF_PP;
 111:Core/Src/stm32f4xx_hal_msp.c ****     GPIO_InitStruct.Pull = GPIO_NOPULL;
 112:Core/Src/stm32f4xx_hal_msp.c ****     GPIO_InitStruct.Speed = GPIO_SPEED_FREQ_VERY_HIGH;
 113:Core/Src/stm32f4xx_hal_msp.c ****     GPIO_InitStruct.Alternate = GPIO_AF8_CAN1;
 114:Core/Src/stm32f4xx_hal_msp.c ****     HAL_GPIO_Init(GPIOB, &GPIO_InitStruct);
 115:Core/Src/stm32f4xx_hal_msp.c **** 
 116:Core/Src/stm32f4xx_hal_msp.c ****     /* CAN1 interrupt Init */
ARM GAS  /tmp/ccjoX6ph.s 			page 5


 117:Core/Src/stm32f4xx_hal_msp.c ****     HAL_NVIC_SetPriority(CAN1_RX0_IRQn, 5, 0);
 118:Core/Src/stm32f4xx_hal_msp.c ****     HAL_NVIC_EnableIRQ(CAN1_RX0_IRQn);
 119:Core/Src/stm32f4xx_hal_msp.c ****   /* USER CODE BEGIN CAN1_MspInit 1 */
 120:Core/Src/stm32f4xx_hal_msp.c **** 
 121:Core/Src/stm32f4xx_hal_msp.c ****   /* USER CODE END CAN1_MspInit 1 */
 122:Core/Src/stm32f4xx_hal_msp.c ****   }
 123:Core/Src/stm32f4xx_hal_msp.c ****   else if(hcan->Instance==CAN2)
 116              		.loc 1 123 0
 117 0018 464A     		ldr	r2, .L13+4
 118 001a 9342     		cmp	r3, r2
 119 001c 30D0     		beq	.L11
 124:Core/Src/stm32f4xx_hal_msp.c ****   {
 125:Core/Src/stm32f4xx_hal_msp.c ****   /* USER CODE BEGIN CAN2_MspInit 0 */
 126:Core/Src/stm32f4xx_hal_msp.c **** 
 127:Core/Src/stm32f4xx_hal_msp.c ****   /* USER CODE END CAN2_MspInit 0 */
 128:Core/Src/stm32f4xx_hal_msp.c ****     /* Peripheral clock enable */
 129:Core/Src/stm32f4xx_hal_msp.c ****     __HAL_RCC_CAN2_CLK_ENABLE();
 130:Core/Src/stm32f4xx_hal_msp.c **** 
 131:Core/Src/stm32f4xx_hal_msp.c ****     __HAL_RCC_GPIOB_CLK_ENABLE();
 132:Core/Src/stm32f4xx_hal_msp.c ****     /**CAN2 GPIO Configuration
 133:Core/Src/stm32f4xx_hal_msp.c ****     PB12     ------> CAN2_RX
 134:Core/Src/stm32f4xx_hal_msp.c ****     PB13     ------> CAN2_TX
 135:Core/Src/stm32f4xx_hal_msp.c ****     */
 136:Core/Src/stm32f4xx_hal_msp.c ****     GPIO_InitStruct.Pin = GPIO_PIN_12|GPIO_PIN_13;
 137:Core/Src/stm32f4xx_hal_msp.c ****     GPIO_InitStruct.Mode = GPIO_MODE_AF_PP;
 138:Core/Src/stm32f4xx_hal_msp.c ****     GPIO_InitStruct.Pull = GPIO_NOPULL;
 139:Core/Src/stm32f4xx_hal_msp.c ****     GPIO_InitStruct.Speed = GPIO_SPEED_FREQ_VERY_HIGH;
 140:Core/Src/stm32f4xx_hal_msp.c ****     GPIO_InitStruct.Alternate = GPIO_AF9_CAN2;
 141:Core/Src/stm32f4xx_hal_msp.c ****     HAL_GPIO_Init(GPIOB, &GPIO_InitStruct);
 142:Core/Src/stm32f4xx_hal_msp.c **** 
 143:Core/Src/stm32f4xx_hal_msp.c ****     /* CAN2 interrupt Init */
 144:Core/Src/stm32f4xx_hal_msp.c ****     HAL_NVIC_SetPriority(CAN2_RX1_IRQn, 5, 0);
 145:Core/Src/stm32f4xx_hal_msp.c ****     HAL_NVIC_EnableIRQ(CAN2_RX1_IRQn);
 146:Core/Src/stm32f4xx_hal_msp.c ****   /* USER CODE BEGIN CAN2_MspInit 1 */
 147:Core/Src/stm32f4xx_hal_msp.c **** 
 148:Core/Src/stm32f4xx_hal_msp.c ****   /* USER CODE END CAN2_MspInit 1 */
 149:Core/Src/stm32f4xx_hal_msp.c ****   }
 150:Core/Src/stm32f4xx_hal_msp.c ****   else if(hcan->Instance==CAN3)
 120              		.loc 1 150 0
 121 001e 464A     		ldr	r2, .L13+8
 122 0020 9342     		cmp	r3, r2
 123 0022 59D0     		beq	.L12
 124              	.LVL2:
 125              	.L5:
 151:Core/Src/stm32f4xx_hal_msp.c ****   {
 152:Core/Src/stm32f4xx_hal_msp.c ****   /* USER CODE BEGIN CAN3_MspInit 0 */
 153:Core/Src/stm32f4xx_hal_msp.c **** 
 154:Core/Src/stm32f4xx_hal_msp.c ****   /* USER CODE END CAN3_MspInit 0 */
 155:Core/Src/stm32f4xx_hal_msp.c ****     /* Peripheral clock enable */
 156:Core/Src/stm32f4xx_hal_msp.c ****     __HAL_RCC_CAN3_CLK_ENABLE();
 157:Core/Src/stm32f4xx_hal_msp.c **** 
 158:Core/Src/stm32f4xx_hal_msp.c ****     __HAL_RCC_GPIOB_CLK_ENABLE();
 159:Core/Src/stm32f4xx_hal_msp.c ****     /**CAN3 GPIO Configuration
 160:Core/Src/stm32f4xx_hal_msp.c ****     PB3     ------> CAN3_RX
 161:Core/Src/stm32f4xx_hal_msp.c ****     PB4     ------> CAN3_TX
 162:Core/Src/stm32f4xx_hal_msp.c ****     */
 163:Core/Src/stm32f4xx_hal_msp.c ****     GPIO_InitStruct.Pin = GPIO_PIN_3|GPIO_PIN_4;
ARM GAS  /tmp/ccjoX6ph.s 			page 6


 164:Core/Src/stm32f4xx_hal_msp.c ****     GPIO_InitStruct.Mode = GPIO_MODE_AF_PP;
 165:Core/Src/stm32f4xx_hal_msp.c ****     GPIO_InitStruct.Pull = GPIO_NOPULL;
 166:Core/Src/stm32f4xx_hal_msp.c ****     GPIO_InitStruct.Speed = GPIO_SPEED_FREQ_VERY_HIGH;
 167:Core/Src/stm32f4xx_hal_msp.c ****     GPIO_InitStruct.Alternate = GPIO_AF11_CAN3;
 168:Core/Src/stm32f4xx_hal_msp.c ****     HAL_GPIO_Init(GPIOB, &GPIO_InitStruct);
 169:Core/Src/stm32f4xx_hal_msp.c **** 
 170:Core/Src/stm32f4xx_hal_msp.c ****     /* CAN3 interrupt Init */
 171:Core/Src/stm32f4xx_hal_msp.c ****     HAL_NVIC_SetPriority(CAN3_RX0_IRQn, 5, 0);
 172:Core/Src/stm32f4xx_hal_msp.c ****     HAL_NVIC_EnableIRQ(CAN3_RX0_IRQn);
 173:Core/Src/stm32f4xx_hal_msp.c ****   /* USER CODE BEGIN CAN3_MspInit 1 */
 174:Core/Src/stm32f4xx_hal_msp.c **** 
 175:Core/Src/stm32f4xx_hal_msp.c ****   /* USER CODE END CAN3_MspInit 1 */
 176:Core/Src/stm32f4xx_hal_msp.c ****   }
 177:Core/Src/stm32f4xx_hal_msp.c **** 
 178:Core/Src/stm32f4xx_hal_msp.c **** }
 126              		.loc 1 178 0
 127 0024 0CB0     		add	sp, sp, #48
 128              	.LCFI5:
 129              		.cfi_remember_state
 130              		.cfi_def_cfa_offset 8
 131              		@ sp needed
 132 0026 10BD     		pop	{r4, pc}
 133              	.LVL3:
 134              	.L10:
 135              	.LCFI6:
 136              		.cfi_restore_state
 137              	.LBB4:
 102:Core/Src/stm32f4xx_hal_msp.c **** 
 138              		.loc 1 102 0
 139 0028 0024     		movs	r4, #0
 140 002a 0194     		str	r4, [sp, #4]
 141 002c 434B     		ldr	r3, .L13+12
 142 002e 1A6C     		ldr	r2, [r3, #64]
 143 0030 42F00072 		orr	r2, r2, #33554432
 144 0034 1A64     		str	r2, [r3, #64]
 145 0036 1A6C     		ldr	r2, [r3, #64]
 146 0038 02F00072 		and	r2, r2, #33554432
 147 003c 0192     		str	r2, [sp, #4]
 148 003e 019A     		ldr	r2, [sp, #4]
 149              	.LBE4:
 150              	.LBB5:
 104:Core/Src/stm32f4xx_hal_msp.c ****     /**CAN1 GPIO Configuration
 151              		.loc 1 104 0
 152 0040 0294     		str	r4, [sp, #8]
 153 0042 1A6B     		ldr	r2, [r3, #48]
 154 0044 42F00202 		orr	r2, r2, #2
 155 0048 1A63     		str	r2, [r3, #48]
 156 004a 1B6B     		ldr	r3, [r3, #48]
 157 004c 03F00203 		and	r3, r3, #2
 158 0050 0293     		str	r3, [sp, #8]
 159 0052 029B     		ldr	r3, [sp, #8]
 160              	.LBE5:
 109:Core/Src/stm32f4xx_hal_msp.c ****     GPIO_InitStruct.Mode = GPIO_MODE_AF_PP;
 161              		.loc 1 109 0
 162 0054 4FF44073 		mov	r3, #768
 163 0058 0793     		str	r3, [sp, #28]
 110:Core/Src/stm32f4xx_hal_msp.c ****     GPIO_InitStruct.Pull = GPIO_NOPULL;
ARM GAS  /tmp/ccjoX6ph.s 			page 7


 164              		.loc 1 110 0
 165 005a 0223     		movs	r3, #2
 166 005c 0893     		str	r3, [sp, #32]
 112:Core/Src/stm32f4xx_hal_msp.c ****     GPIO_InitStruct.Alternate = GPIO_AF8_CAN1;
 167              		.loc 1 112 0
 168 005e 0323     		movs	r3, #3
 169 0060 0A93     		str	r3, [sp, #40]
 113:Core/Src/stm32f4xx_hal_msp.c ****     HAL_GPIO_Init(GPIOB, &GPIO_InitStruct);
 170              		.loc 1 113 0
 171 0062 0823     		movs	r3, #8
 172 0064 0B93     		str	r3, [sp, #44]
 114:Core/Src/stm32f4xx_hal_msp.c **** 
 173              		.loc 1 114 0
 174 0066 07A9     		add	r1, sp, #28
 175 0068 3548     		ldr	r0, .L13+16
 176              	.LVL4:
 177 006a FFF7FEFF 		bl	HAL_GPIO_Init
 178              	.LVL5:
 117:Core/Src/stm32f4xx_hal_msp.c ****     HAL_NVIC_EnableIRQ(CAN1_RX0_IRQn);
 179              		.loc 1 117 0
 180 006e 2246     		mov	r2, r4
 181 0070 0521     		movs	r1, #5
 182 0072 1420     		movs	r0, #20
 183 0074 FFF7FEFF 		bl	HAL_NVIC_SetPriority
 184              	.LVL6:
 118:Core/Src/stm32f4xx_hal_msp.c ****   /* USER CODE BEGIN CAN1_MspInit 1 */
 185              		.loc 1 118 0
 186 0078 1420     		movs	r0, #20
 187 007a FFF7FEFF 		bl	HAL_NVIC_EnableIRQ
 188              	.LVL7:
 189 007e D1E7     		b	.L5
 190              	.LVL8:
 191              	.L11:
 192              	.LBB6:
 129:Core/Src/stm32f4xx_hal_msp.c **** 
 193              		.loc 1 129 0
 194 0080 0024     		movs	r4, #0
 195 0082 0394     		str	r4, [sp, #12]
 196 0084 2D4B     		ldr	r3, .L13+12
 197 0086 1A6C     		ldr	r2, [r3, #64]
 198 0088 42F08062 		orr	r2, r2, #67108864
 199 008c 1A64     		str	r2, [r3, #64]
 200 008e 1A6C     		ldr	r2, [r3, #64]
 201 0090 02F08062 		and	r2, r2, #67108864
 202 0094 0392     		str	r2, [sp, #12]
 203 0096 039A     		ldr	r2, [sp, #12]
 204              	.LBE6:
 205              	.LBB7:
 131:Core/Src/stm32f4xx_hal_msp.c ****     /**CAN2 GPIO Configuration
 206              		.loc 1 131 0
 207 0098 0494     		str	r4, [sp, #16]
 208 009a 1A6B     		ldr	r2, [r3, #48]
 209 009c 42F00202 		orr	r2, r2, #2
 210 00a0 1A63     		str	r2, [r3, #48]
 211 00a2 1B6B     		ldr	r3, [r3, #48]
 212 00a4 03F00203 		and	r3, r3, #2
 213 00a8 0493     		str	r3, [sp, #16]
ARM GAS  /tmp/ccjoX6ph.s 			page 8


 214 00aa 049B     		ldr	r3, [sp, #16]
 215              	.LBE7:
 136:Core/Src/stm32f4xx_hal_msp.c ****     GPIO_InitStruct.Mode = GPIO_MODE_AF_PP;
 216              		.loc 1 136 0
 217 00ac 4FF44053 		mov	r3, #12288
 218 00b0 0793     		str	r3, [sp, #28]
 137:Core/Src/stm32f4xx_hal_msp.c ****     GPIO_InitStruct.Pull = GPIO_NOPULL;
 219              		.loc 1 137 0
 220 00b2 0223     		movs	r3, #2
 221 00b4 0893     		str	r3, [sp, #32]
 139:Core/Src/stm32f4xx_hal_msp.c ****     GPIO_InitStruct.Alternate = GPIO_AF9_CAN2;
 222              		.loc 1 139 0
 223 00b6 0323     		movs	r3, #3
 224 00b8 0A93     		str	r3, [sp, #40]
 140:Core/Src/stm32f4xx_hal_msp.c ****     HAL_GPIO_Init(GPIOB, &GPIO_InitStruct);
 225              		.loc 1 140 0
 226 00ba 0923     		movs	r3, #9
 227 00bc 0B93     		str	r3, [sp, #44]
 141:Core/Src/stm32f4xx_hal_msp.c **** 
 228              		.loc 1 141 0
 229 00be 07A9     		add	r1, sp, #28
 230 00c0 1F48     		ldr	r0, .L13+16
 231              	.LVL9:
 232 00c2 FFF7FEFF 		bl	HAL_GPIO_Init
 233              	.LVL10:
 144:Core/Src/stm32f4xx_hal_msp.c ****     HAL_NVIC_EnableIRQ(CAN2_RX1_IRQn);
 234              		.loc 1 144 0
 235 00c6 2246     		mov	r2, r4
 236 00c8 0521     		movs	r1, #5
 237 00ca 4120     		movs	r0, #65
 238 00cc FFF7FEFF 		bl	HAL_NVIC_SetPriority
 239              	.LVL11:
 145:Core/Src/stm32f4xx_hal_msp.c ****   /* USER CODE BEGIN CAN2_MspInit 1 */
 240              		.loc 1 145 0
 241 00d0 4120     		movs	r0, #65
 242 00d2 FFF7FEFF 		bl	HAL_NVIC_EnableIRQ
 243              	.LVL12:
 244 00d6 A5E7     		b	.L5
 245              	.LVL13:
 246              	.L12:
 247              	.LBB8:
 156:Core/Src/stm32f4xx_hal_msp.c **** 
 248              		.loc 1 156 0
 249 00d8 0024     		movs	r4, #0
 250 00da 0594     		str	r4, [sp, #20]
 251 00dc 174B     		ldr	r3, .L13+12
 252 00de 1A6C     		ldr	r2, [r3, #64]
 253 00e0 42F00062 		orr	r2, r2, #134217728
 254 00e4 1A64     		str	r2, [r3, #64]
 255 00e6 1A6C     		ldr	r2, [r3, #64]
 256 00e8 02F00062 		and	r2, r2, #134217728
 257 00ec 0592     		str	r2, [sp, #20]
 258 00ee 059A     		ldr	r2, [sp, #20]
 259              	.LBE8:
 260              	.LBB9:
 158:Core/Src/stm32f4xx_hal_msp.c ****     /**CAN3 GPIO Configuration
 261              		.loc 1 158 0
ARM GAS  /tmp/ccjoX6ph.s 			page 9


 262 00f0 0694     		str	r4, [sp, #24]
 263 00f2 1A6B     		ldr	r2, [r3, #48]
 264 00f4 42F00202 		orr	r2, r2, #2
 265 00f8 1A63     		str	r2, [r3, #48]
 266 00fa 1B6B     		ldr	r3, [r3, #48]
 267 00fc 03F00203 		and	r3, r3, #2
 268 0100 0693     		str	r3, [sp, #24]
 269 0102 069B     		ldr	r3, [sp, #24]
 270              	.LBE9:
 163:Core/Src/stm32f4xx_hal_msp.c ****     GPIO_InitStruct.Mode = GPIO_MODE_AF_PP;
 271              		.loc 1 163 0
 272 0104 1823     		movs	r3, #24
 273 0106 0793     		str	r3, [sp, #28]
 164:Core/Src/stm32f4xx_hal_msp.c ****     GPIO_InitStruct.Pull = GPIO_NOPULL;
 274              		.loc 1 164 0
 275 0108 0223     		movs	r3, #2
 276 010a 0893     		str	r3, [sp, #32]
 166:Core/Src/stm32f4xx_hal_msp.c ****     GPIO_InitStruct.Alternate = GPIO_AF11_CAN3;
 277              		.loc 1 166 0
 278 010c 0323     		movs	r3, #3
 279 010e 0A93     		str	r3, [sp, #40]
 167:Core/Src/stm32f4xx_hal_msp.c ****     HAL_GPIO_Init(GPIOB, &GPIO_InitStruct);
 280              		.loc 1 167 0
 281 0110 0B23     		movs	r3, #11
 282 0112 0B93     		str	r3, [sp, #44]
 168:Core/Src/stm32f4xx_hal_msp.c **** 
 283              		.loc 1 168 0
 284 0114 07A9     		add	r1, sp, #28
 285 0116 0A48     		ldr	r0, .L13+16
 286              	.LVL14:
 287 0118 FFF7FEFF 		bl	HAL_GPIO_Init
 288              	.LVL15:
 171:Core/Src/stm32f4xx_hal_msp.c ****     HAL_NVIC_EnableIRQ(CAN3_RX0_IRQn);
 289              		.loc 1 171 0
 290 011c 2246     		mov	r2, r4
 291 011e 0521     		movs	r1, #5
 292 0120 4B20     		movs	r0, #75
 293 0122 FFF7FEFF 		bl	HAL_NVIC_SetPriority
 294              	.LVL16:
 172:Core/Src/stm32f4xx_hal_msp.c ****   /* USER CODE BEGIN CAN3_MspInit 1 */
 295              		.loc 1 172 0
 296 0126 4B20     		movs	r0, #75
 297 0128 FFF7FEFF 		bl	HAL_NVIC_EnableIRQ
 298              	.LVL17:
 299              		.loc 1 178 0
 300 012c 7AE7     		b	.L5
 301              	.L14:
 302 012e 00BF     		.align	2
 303              	.L13:
 304 0130 00640040 		.word	1073767424
 305 0134 00680040 		.word	1073768448
 306 0138 006C0040 		.word	1073769472
 307 013c 00380240 		.word	1073887232
 308 0140 00040240 		.word	1073873920
 309              		.cfi_endproc
 310              	.LFE131:
 312              		.section	.text.HAL_CAN_MspDeInit,"ax",%progbits
ARM GAS  /tmp/ccjoX6ph.s 			page 10


 313              		.align	1
 314              		.global	HAL_CAN_MspDeInit
 315              		.syntax unified
 316              		.thumb
 317              		.thumb_func
 318              		.fpu fpv4-sp-d16
 320              	HAL_CAN_MspDeInit:
 321              	.LFB132:
 179:Core/Src/stm32f4xx_hal_msp.c **** 
 180:Core/Src/stm32f4xx_hal_msp.c **** /**
 181:Core/Src/stm32f4xx_hal_msp.c **** * @brief CAN MSP De-Initialization
 182:Core/Src/stm32f4xx_hal_msp.c **** * This function freeze the hardware resources used in this example
 183:Core/Src/stm32f4xx_hal_msp.c **** * @param hcan: CAN handle pointer
 184:Core/Src/stm32f4xx_hal_msp.c **** * @retval None
 185:Core/Src/stm32f4xx_hal_msp.c **** */
 186:Core/Src/stm32f4xx_hal_msp.c **** void HAL_CAN_MspDeInit(CAN_HandleTypeDef* hcan)
 187:Core/Src/stm32f4xx_hal_msp.c **** {
 322              		.loc 1 187 0
 323              		.cfi_startproc
 324              		@ args = 0, pretend = 0, frame = 0
 325              		@ frame_needed = 0, uses_anonymous_args = 0
 326              	.LVL18:
 327 0000 08B5     		push	{r3, lr}
 328              	.LCFI7:
 329              		.cfi_def_cfa_offset 8
 330              		.cfi_offset 3, -8
 331              		.cfi_offset 14, -4
 188:Core/Src/stm32f4xx_hal_msp.c ****   if(hcan->Instance==CAN1)
 332              		.loc 1 188 0
 333 0002 0368     		ldr	r3, [r0]
 334 0004 1A4A     		ldr	r2, .L23
 335 0006 9342     		cmp	r3, r2
 336 0008 06D0     		beq	.L20
 189:Core/Src/stm32f4xx_hal_msp.c ****   {
 190:Core/Src/stm32f4xx_hal_msp.c ****   /* USER CODE BEGIN CAN1_MspDeInit 0 */
 191:Core/Src/stm32f4xx_hal_msp.c **** 
 192:Core/Src/stm32f4xx_hal_msp.c ****   /* USER CODE END CAN1_MspDeInit 0 */
 193:Core/Src/stm32f4xx_hal_msp.c ****     /* Peripheral clock disable */
 194:Core/Src/stm32f4xx_hal_msp.c ****     __HAL_RCC_CAN1_CLK_DISABLE();
 195:Core/Src/stm32f4xx_hal_msp.c **** 
 196:Core/Src/stm32f4xx_hal_msp.c ****     /**CAN1 GPIO Configuration
 197:Core/Src/stm32f4xx_hal_msp.c ****     PB8     ------> CAN1_RX
 198:Core/Src/stm32f4xx_hal_msp.c ****     PB9     ------> CAN1_TX
 199:Core/Src/stm32f4xx_hal_msp.c ****     */
 200:Core/Src/stm32f4xx_hal_msp.c ****     HAL_GPIO_DeInit(GPIOB, GPIO_PIN_8|GPIO_PIN_9);
 201:Core/Src/stm32f4xx_hal_msp.c **** 
 202:Core/Src/stm32f4xx_hal_msp.c ****     /* CAN1 interrupt DeInit */
 203:Core/Src/stm32f4xx_hal_msp.c ****     HAL_NVIC_DisableIRQ(CAN1_RX0_IRQn);
 204:Core/Src/stm32f4xx_hal_msp.c ****   /* USER CODE BEGIN CAN1_MspDeInit 1 */
 205:Core/Src/stm32f4xx_hal_msp.c **** 
 206:Core/Src/stm32f4xx_hal_msp.c ****   /* USER CODE END CAN1_MspDeInit 1 */
 207:Core/Src/stm32f4xx_hal_msp.c ****   }
 208:Core/Src/stm32f4xx_hal_msp.c ****   else if(hcan->Instance==CAN2)
 337              		.loc 1 208 0
 338 000a 1A4A     		ldr	r2, .L23+4
 339 000c 9342     		cmp	r3, r2
 340 000e 12D0     		beq	.L21
ARM GAS  /tmp/ccjoX6ph.s 			page 11


 209:Core/Src/stm32f4xx_hal_msp.c ****   {
 210:Core/Src/stm32f4xx_hal_msp.c ****   /* USER CODE BEGIN CAN2_MspDeInit 0 */
 211:Core/Src/stm32f4xx_hal_msp.c **** 
 212:Core/Src/stm32f4xx_hal_msp.c ****   /* USER CODE END CAN2_MspDeInit 0 */
 213:Core/Src/stm32f4xx_hal_msp.c ****     /* Peripheral clock disable */
 214:Core/Src/stm32f4xx_hal_msp.c ****     __HAL_RCC_CAN2_CLK_DISABLE();
 215:Core/Src/stm32f4xx_hal_msp.c **** 
 216:Core/Src/stm32f4xx_hal_msp.c ****     /**CAN2 GPIO Configuration
 217:Core/Src/stm32f4xx_hal_msp.c ****     PB12     ------> CAN2_RX
 218:Core/Src/stm32f4xx_hal_msp.c ****     PB13     ------> CAN2_TX
 219:Core/Src/stm32f4xx_hal_msp.c ****     */
 220:Core/Src/stm32f4xx_hal_msp.c ****     HAL_GPIO_DeInit(GPIOB, GPIO_PIN_12|GPIO_PIN_13);
 221:Core/Src/stm32f4xx_hal_msp.c **** 
 222:Core/Src/stm32f4xx_hal_msp.c ****     /* CAN2 interrupt DeInit */
 223:Core/Src/stm32f4xx_hal_msp.c ****     HAL_NVIC_DisableIRQ(CAN2_RX1_IRQn);
 224:Core/Src/stm32f4xx_hal_msp.c ****   /* USER CODE BEGIN CAN2_MspDeInit 1 */
 225:Core/Src/stm32f4xx_hal_msp.c **** 
 226:Core/Src/stm32f4xx_hal_msp.c ****   /* USER CODE END CAN2_MspDeInit 1 */
 227:Core/Src/stm32f4xx_hal_msp.c ****   }
 228:Core/Src/stm32f4xx_hal_msp.c ****   else if(hcan->Instance==CAN3)
 341              		.loc 1 228 0
 342 0010 194A     		ldr	r2, .L23+8
 343 0012 9342     		cmp	r3, r2
 344 0014 1ED0     		beq	.L22
 345              	.LVL19:
 346              	.L15:
 347 0016 08BD     		pop	{r3, pc}
 348              	.LVL20:
 349              	.L20:
 194:Core/Src/stm32f4xx_hal_msp.c **** 
 350              		.loc 1 194 0
 351 0018 02F5EA32 		add	r2, r2, #119808
 352 001c 136C     		ldr	r3, [r2, #64]
 353 001e 23F00073 		bic	r3, r3, #33554432
 354 0022 1364     		str	r3, [r2, #64]
 200:Core/Src/stm32f4xx_hal_msp.c **** 
 355              		.loc 1 200 0
 356 0024 4FF44071 		mov	r1, #768
 357 0028 1448     		ldr	r0, .L23+12
 358              	.LVL21:
 359 002a FFF7FEFF 		bl	HAL_GPIO_DeInit
 360              	.LVL22:
 203:Core/Src/stm32f4xx_hal_msp.c ****   /* USER CODE BEGIN CAN1_MspDeInit 1 */
 361              		.loc 1 203 0
 362 002e 1420     		movs	r0, #20
 363 0030 FFF7FEFF 		bl	HAL_NVIC_DisableIRQ
 364              	.LVL23:
 365 0034 08BD     		pop	{r3, pc}
 366              	.LVL24:
 367              	.L21:
 214:Core/Src/stm32f4xx_hal_msp.c **** 
 368              		.loc 1 214 0
 369 0036 02F5E832 		add	r2, r2, #118784
 370 003a 136C     		ldr	r3, [r2, #64]
 371 003c 23F08063 		bic	r3, r3, #67108864
 372 0040 1364     		str	r3, [r2, #64]
 220:Core/Src/stm32f4xx_hal_msp.c **** 
ARM GAS  /tmp/ccjoX6ph.s 			page 12


 373              		.loc 1 220 0
 374 0042 4FF44051 		mov	r1, #12288
 375 0046 0D48     		ldr	r0, .L23+12
 376              	.LVL25:
 377 0048 FFF7FEFF 		bl	HAL_GPIO_DeInit
 378              	.LVL26:
 223:Core/Src/stm32f4xx_hal_msp.c ****   /* USER CODE BEGIN CAN2_MspDeInit 1 */
 379              		.loc 1 223 0
 380 004c 4120     		movs	r0, #65
 381 004e FFF7FEFF 		bl	HAL_NVIC_DisableIRQ
 382              	.LVL27:
 383 0052 08BD     		pop	{r3, pc}
 384              	.LVL28:
 385              	.L22:
 229:Core/Src/stm32f4xx_hal_msp.c ****   {
 230:Core/Src/stm32f4xx_hal_msp.c ****   /* USER CODE BEGIN CAN3_MspDeInit 0 */
 231:Core/Src/stm32f4xx_hal_msp.c **** 
 232:Core/Src/stm32f4xx_hal_msp.c ****   /* USER CODE END CAN3_MspDeInit 0 */
 233:Core/Src/stm32f4xx_hal_msp.c ****     /* Peripheral clock disable */
 234:Core/Src/stm32f4xx_hal_msp.c ****     __HAL_RCC_CAN3_CLK_DISABLE();
 386              		.loc 1 234 0
 387 0054 02F5E632 		add	r2, r2, #117760
 388 0058 136C     		ldr	r3, [r2, #64]
 389 005a 23F00063 		bic	r3, r3, #134217728
 390 005e 1364     		str	r3, [r2, #64]
 235:Core/Src/stm32f4xx_hal_msp.c **** 
 236:Core/Src/stm32f4xx_hal_msp.c ****     /**CAN3 GPIO Configuration
 237:Core/Src/stm32f4xx_hal_msp.c ****     PB3     ------> CAN3_RX
 238:Core/Src/stm32f4xx_hal_msp.c ****     PB4     ------> CAN3_TX
 239:Core/Src/stm32f4xx_hal_msp.c ****     */
 240:Core/Src/stm32f4xx_hal_msp.c ****     HAL_GPIO_DeInit(GPIOB, GPIO_PIN_3|GPIO_PIN_4);
 391              		.loc 1 240 0
 392 0060 1821     		movs	r1, #24
 393 0062 0648     		ldr	r0, .L23+12
 394              	.LVL29:
 395 0064 FFF7FEFF 		bl	HAL_GPIO_DeInit
 396              	.LVL30:
 241:Core/Src/stm32f4xx_hal_msp.c **** 
 242:Core/Src/stm32f4xx_hal_msp.c ****     /* CAN3 interrupt DeInit */
 243:Core/Src/stm32f4xx_hal_msp.c ****     HAL_NVIC_DisableIRQ(CAN3_RX0_IRQn);
 397              		.loc 1 243 0
 398 0068 4B20     		movs	r0, #75
 399 006a FFF7FEFF 		bl	HAL_NVIC_DisableIRQ
 400              	.LVL31:
 244:Core/Src/stm32f4xx_hal_msp.c ****   /* USER CODE BEGIN CAN3_MspDeInit 1 */
 245:Core/Src/stm32f4xx_hal_msp.c **** 
 246:Core/Src/stm32f4xx_hal_msp.c ****   /* USER CODE END CAN3_MspDeInit 1 */
 247:Core/Src/stm32f4xx_hal_msp.c ****   }
 248:Core/Src/stm32f4xx_hal_msp.c **** 
 249:Core/Src/stm32f4xx_hal_msp.c **** }
 401              		.loc 1 249 0
 402 006e D2E7     		b	.L15
 403              	.L24:
 404              		.align	2
 405              	.L23:
 406 0070 00640040 		.word	1073767424
 407 0074 00680040 		.word	1073768448
ARM GAS  /tmp/ccjoX6ph.s 			page 13


 408 0078 006C0040 		.word	1073769472
 409 007c 00040240 		.word	1073873920
 410              		.cfi_endproc
 411              	.LFE132:
 413              		.section	.text.HAL_TIM_OC_MspInit,"ax",%progbits
 414              		.align	1
 415              		.global	HAL_TIM_OC_MspInit
 416              		.syntax unified
 417              		.thumb
 418              		.thumb_func
 419              		.fpu fpv4-sp-d16
 421              	HAL_TIM_OC_MspInit:
 422              	.LFB133:
 250:Core/Src/stm32f4xx_hal_msp.c **** 
 251:Core/Src/stm32f4xx_hal_msp.c **** /**
 252:Core/Src/stm32f4xx_hal_msp.c **** * @brief TIM_OC MSP Initialization
 253:Core/Src/stm32f4xx_hal_msp.c **** * This function configures the hardware resources used in this example
 254:Core/Src/stm32f4xx_hal_msp.c **** * @param htim_oc: TIM_OC handle pointer
 255:Core/Src/stm32f4xx_hal_msp.c **** * @retval None
 256:Core/Src/stm32f4xx_hal_msp.c **** */
 257:Core/Src/stm32f4xx_hal_msp.c **** void HAL_TIM_OC_MspInit(TIM_HandleTypeDef* htim_oc)
 258:Core/Src/stm32f4xx_hal_msp.c **** {
 423              		.loc 1 258 0
 424              		.cfi_startproc
 425              		@ args = 0, pretend = 0, frame = 8
 426              		@ frame_needed = 0, uses_anonymous_args = 0
 427              	.LVL32:
 259:Core/Src/stm32f4xx_hal_msp.c ****   if(htim_oc->Instance==TIM2)
 428              		.loc 1 259 0
 429 0000 0368     		ldr	r3, [r0]
 430 0002 B3F1804F 		cmp	r3, #1073741824
 431 0006 00D0     		beq	.L34
 432 0008 7047     		bx	lr
 433              	.L34:
 258:Core/Src/stm32f4xx_hal_msp.c ****   if(htim_oc->Instance==TIM2)
 434              		.loc 1 258 0
 435 000a 10B5     		push	{r4, lr}
 436              	.LCFI8:
 437              		.cfi_def_cfa_offset 8
 438              		.cfi_offset 4, -8
 439              		.cfi_offset 14, -4
 440 000c 82B0     		sub	sp, sp, #8
 441              	.LCFI9:
 442              		.cfi_def_cfa_offset 16
 443 000e 0446     		mov	r4, r0
 444              	.LBB10:
 260:Core/Src/stm32f4xx_hal_msp.c ****   {
 261:Core/Src/stm32f4xx_hal_msp.c ****   /* USER CODE BEGIN TIM2_MspInit 0 */
 262:Core/Src/stm32f4xx_hal_msp.c **** 
 263:Core/Src/stm32f4xx_hal_msp.c ****   /* USER CODE END TIM2_MspInit 0 */
 264:Core/Src/stm32f4xx_hal_msp.c ****     /* Peripheral clock enable */
 265:Core/Src/stm32f4xx_hal_msp.c ****     __HAL_RCC_TIM2_CLK_ENABLE();
 445              		.loc 1 265 0
 446 0010 0023     		movs	r3, #0
 447 0012 0193     		str	r3, [sp, #4]
 448 0014 3A4A     		ldr	r2, .L38
 449 0016 116C     		ldr	r1, [r2, #64]
ARM GAS  /tmp/ccjoX6ph.s 			page 14


 450 0018 41F00101 		orr	r1, r1, #1
 451 001c 1164     		str	r1, [r2, #64]
 452 001e 126C     		ldr	r2, [r2, #64]
 453 0020 02F00102 		and	r2, r2, #1
 454 0024 0192     		str	r2, [sp, #4]
 455 0026 019A     		ldr	r2, [sp, #4]
 456              	.LBE10:
 266:Core/Src/stm32f4xx_hal_msp.c **** 
 267:Core/Src/stm32f4xx_hal_msp.c ****     /* TIM2 DMA Init */
 268:Core/Src/stm32f4xx_hal_msp.c ****     /* TIM2_CH1 Init */
 269:Core/Src/stm32f4xx_hal_msp.c ****     hdma_tim2_ch1.Instance = DMA1_Stream5;
 457              		.loc 1 269 0
 458 0028 3648     		ldr	r0, .L38+4
 459              	.LVL33:
 460 002a 374A     		ldr	r2, .L38+8
 461 002c 0260     		str	r2, [r0]
 270:Core/Src/stm32f4xx_hal_msp.c ****     hdma_tim2_ch1.Init.Channel = DMA_CHANNEL_3;
 462              		.loc 1 270 0
 463 002e 4FF0C062 		mov	r2, #100663296
 464 0032 4260     		str	r2, [r0, #4]
 271:Core/Src/stm32f4xx_hal_msp.c ****     hdma_tim2_ch1.Init.Direction = DMA_MEMORY_TO_PERIPH;
 465              		.loc 1 271 0
 466 0034 4022     		movs	r2, #64
 467 0036 8260     		str	r2, [r0, #8]
 272:Core/Src/stm32f4xx_hal_msp.c ****     hdma_tim2_ch1.Init.PeriphInc = DMA_PINC_DISABLE;
 468              		.loc 1 272 0
 469 0038 C360     		str	r3, [r0, #12]
 273:Core/Src/stm32f4xx_hal_msp.c ****     hdma_tim2_ch1.Init.MemInc = DMA_MINC_DISABLE;
 470              		.loc 1 273 0
 471 003a 0361     		str	r3, [r0, #16]
 274:Core/Src/stm32f4xx_hal_msp.c ****     hdma_tim2_ch1.Init.PeriphDataAlignment = DMA_PDATAALIGN_WORD;
 472              		.loc 1 274 0
 473 003c 4FF48052 		mov	r2, #4096
 474 0040 4261     		str	r2, [r0, #20]
 275:Core/Src/stm32f4xx_hal_msp.c ****     hdma_tim2_ch1.Init.MemDataAlignment = DMA_MDATAALIGN_WORD;
 475              		.loc 1 275 0
 476 0042 4FF48042 		mov	r2, #16384
 477 0046 8261     		str	r2, [r0, #24]
 276:Core/Src/stm32f4xx_hal_msp.c ****     hdma_tim2_ch1.Init.Mode = DMA_NORMAL;
 478              		.loc 1 276 0
 479 0048 C361     		str	r3, [r0, #28]
 277:Core/Src/stm32f4xx_hal_msp.c ****     hdma_tim2_ch1.Init.Priority = DMA_PRIORITY_HIGH;
 480              		.loc 1 277 0
 481 004a 4FF40032 		mov	r2, #131072
 482 004e 0262     		str	r2, [r0, #32]
 278:Core/Src/stm32f4xx_hal_msp.c ****     hdma_tim2_ch1.Init.FIFOMode = DMA_FIFOMODE_DISABLE;
 483              		.loc 1 278 0
 484 0050 4362     		str	r3, [r0, #36]
 279:Core/Src/stm32f4xx_hal_msp.c ****     if (HAL_DMA_Init(&hdma_tim2_ch1) != HAL_OK)
 485              		.loc 1 279 0
 486 0052 FFF7FEFF 		bl	HAL_DMA_Init
 487              	.LVL34:
 488 0056 0028     		cmp	r0, #0
 489 0058 49D1     		bne	.L35
 490              	.L27:
 280:Core/Src/stm32f4xx_hal_msp.c ****     {
 281:Core/Src/stm32f4xx_hal_msp.c ****       Error_Handler();
ARM GAS  /tmp/ccjoX6ph.s 			page 15


 282:Core/Src/stm32f4xx_hal_msp.c ****     }
 283:Core/Src/stm32f4xx_hal_msp.c **** 
 284:Core/Src/stm32f4xx_hal_msp.c ****     __HAL_LINKDMA(htim_oc,hdma[TIM_DMA_ID_CC1],hdma_tim2_ch1);
 491              		.loc 1 284 0
 492 005a 2A4B     		ldr	r3, .L38+4
 493 005c 6362     		str	r3, [r4, #36]
 494 005e 9C63     		str	r4, [r3, #56]
 285:Core/Src/stm32f4xx_hal_msp.c **** 
 286:Core/Src/stm32f4xx_hal_msp.c ****     /* TIM2_CH2_CH4 Init */
 287:Core/Src/stm32f4xx_hal_msp.c ****     hdma_tim2_ch2_ch4.Instance = DMA1_Stream6;
 495              		.loc 1 287 0
 496 0060 2A48     		ldr	r0, .L38+12
 497 0062 2B4B     		ldr	r3, .L38+16
 498 0064 0360     		str	r3, [r0]
 288:Core/Src/stm32f4xx_hal_msp.c ****     hdma_tim2_ch2_ch4.Init.Channel = DMA_CHANNEL_3;
 499              		.loc 1 288 0
 500 0066 4FF0C063 		mov	r3, #100663296
 501 006a 4360     		str	r3, [r0, #4]
 289:Core/Src/stm32f4xx_hal_msp.c ****     hdma_tim2_ch2_ch4.Init.Direction = DMA_MEMORY_TO_PERIPH;
 502              		.loc 1 289 0
 503 006c 4023     		movs	r3, #64
 504 006e 8360     		str	r3, [r0, #8]
 290:Core/Src/stm32f4xx_hal_msp.c ****     hdma_tim2_ch2_ch4.Init.PeriphInc = DMA_PINC_DISABLE;
 505              		.loc 1 290 0
 506 0070 0023     		movs	r3, #0
 507 0072 C360     		str	r3, [r0, #12]
 291:Core/Src/stm32f4xx_hal_msp.c ****     hdma_tim2_ch2_ch4.Init.MemInc = DMA_MINC_ENABLE;
 508              		.loc 1 291 0
 509 0074 4FF48062 		mov	r2, #1024
 510 0078 0261     		str	r2, [r0, #16]
 292:Core/Src/stm32f4xx_hal_msp.c ****     hdma_tim2_ch2_ch4.Init.PeriphDataAlignment = DMA_PDATAALIGN_WORD;
 511              		.loc 1 292 0
 512 007a 4FF48052 		mov	r2, #4096
 513 007e 4261     		str	r2, [r0, #20]
 293:Core/Src/stm32f4xx_hal_msp.c ****     hdma_tim2_ch2_ch4.Init.MemDataAlignment = DMA_MDATAALIGN_WORD;
 514              		.loc 1 293 0
 515 0080 4FF48042 		mov	r2, #16384
 516 0084 8261     		str	r2, [r0, #24]
 294:Core/Src/stm32f4xx_hal_msp.c ****     hdma_tim2_ch2_ch4.Init.Mode = DMA_NORMAL;
 517              		.loc 1 294 0
 518 0086 C361     		str	r3, [r0, #28]
 295:Core/Src/stm32f4xx_hal_msp.c ****     hdma_tim2_ch2_ch4.Init.Priority = DMA_PRIORITY_HIGH;
 519              		.loc 1 295 0
 520 0088 4FF40032 		mov	r2, #131072
 521 008c 0262     		str	r2, [r0, #32]
 296:Core/Src/stm32f4xx_hal_msp.c ****     hdma_tim2_ch2_ch4.Init.FIFOMode = DMA_FIFOMODE_DISABLE;
 522              		.loc 1 296 0
 523 008e 4362     		str	r3, [r0, #36]
 297:Core/Src/stm32f4xx_hal_msp.c ****     if (HAL_DMA_Init(&hdma_tim2_ch2_ch4) != HAL_OK)
 524              		.loc 1 297 0
 525 0090 FFF7FEFF 		bl	HAL_DMA_Init
 526              	.LVL35:
 527 0094 0028     		cmp	r0, #0
 528 0096 2DD1     		bne	.L36
 529              	.L28:
 298:Core/Src/stm32f4xx_hal_msp.c ****     {
 299:Core/Src/stm32f4xx_hal_msp.c ****       Error_Handler();
ARM GAS  /tmp/ccjoX6ph.s 			page 16


 300:Core/Src/stm32f4xx_hal_msp.c ****     }
 301:Core/Src/stm32f4xx_hal_msp.c **** 
 302:Core/Src/stm32f4xx_hal_msp.c ****     /* Several peripheral DMA handle pointers point to the same DMA handle.
 303:Core/Src/stm32f4xx_hal_msp.c ****      Be aware that there is only one stream to perform all the requested DMAs. */
 304:Core/Src/stm32f4xx_hal_msp.c ****     __HAL_LINKDMA(htim_oc,hdma[TIM_DMA_ID_CC2],hdma_tim2_ch2_ch4);
 530              		.loc 1 304 0
 531 0098 1C4B     		ldr	r3, .L38+12
 532 009a A362     		str	r3, [r4, #40]
 305:Core/Src/stm32f4xx_hal_msp.c ****     __HAL_LINKDMA(htim_oc,hdma[TIM_DMA_ID_CC4],hdma_tim2_ch2_ch4);
 533              		.loc 1 305 0
 534 009c 2363     		str	r3, [r4, #48]
 535 009e 9C63     		str	r4, [r3, #56]
 306:Core/Src/stm32f4xx_hal_msp.c **** 
 307:Core/Src/stm32f4xx_hal_msp.c ****     /* TIM2_UP_CH3 Init */
 308:Core/Src/stm32f4xx_hal_msp.c ****     hdma_tim2_up_ch3.Instance = DMA1_Stream1;
 536              		.loc 1 308 0
 537 00a0 1C48     		ldr	r0, .L38+20
 538 00a2 1D4B     		ldr	r3, .L38+24
 539 00a4 0360     		str	r3, [r0]
 309:Core/Src/stm32f4xx_hal_msp.c ****     hdma_tim2_up_ch3.Init.Channel = DMA_CHANNEL_3;
 540              		.loc 1 309 0
 541 00a6 4FF0C063 		mov	r3, #100663296
 542 00aa 4360     		str	r3, [r0, #4]
 310:Core/Src/stm32f4xx_hal_msp.c ****     hdma_tim2_up_ch3.Init.Direction = DMA_MEMORY_TO_PERIPH;
 543              		.loc 1 310 0
 544 00ac 4023     		movs	r3, #64
 545 00ae 8360     		str	r3, [r0, #8]
 311:Core/Src/stm32f4xx_hal_msp.c ****     hdma_tim2_up_ch3.Init.PeriphInc = DMA_PINC_DISABLE;
 546              		.loc 1 311 0
 547 00b0 0023     		movs	r3, #0
 548 00b2 C360     		str	r3, [r0, #12]
 312:Core/Src/stm32f4xx_hal_msp.c ****     hdma_tim2_up_ch3.Init.MemInc = DMA_MINC_DISABLE;
 549              		.loc 1 312 0
 550 00b4 0361     		str	r3, [r0, #16]
 313:Core/Src/stm32f4xx_hal_msp.c ****     hdma_tim2_up_ch3.Init.PeriphDataAlignment = DMA_PDATAALIGN_WORD;
 551              		.loc 1 313 0
 552 00b6 4FF48052 		mov	r2, #4096
 553 00ba 4261     		str	r2, [r0, #20]
 314:Core/Src/stm32f4xx_hal_msp.c ****     hdma_tim2_up_ch3.Init.MemDataAlignment = DMA_MDATAALIGN_WORD;
 554              		.loc 1 314 0
 555 00bc 4FF48042 		mov	r2, #16384
 556 00c0 8261     		str	r2, [r0, #24]
 315:Core/Src/stm32f4xx_hal_msp.c ****     hdma_tim2_up_ch3.Init.Mode = DMA_NORMAL;
 557              		.loc 1 315 0
 558 00c2 C361     		str	r3, [r0, #28]
 316:Core/Src/stm32f4xx_hal_msp.c ****     hdma_tim2_up_ch3.Init.Priority = DMA_PRIORITY_HIGH;
 559              		.loc 1 316 0
 560 00c4 4FF40032 		mov	r2, #131072
 561 00c8 0262     		str	r2, [r0, #32]
 317:Core/Src/stm32f4xx_hal_msp.c ****     hdma_tim2_up_ch3.Init.FIFOMode = DMA_FIFOMODE_DISABLE;
 562              		.loc 1 317 0
 563 00ca 4362     		str	r3, [r0, #36]
 318:Core/Src/stm32f4xx_hal_msp.c ****     if (HAL_DMA_Init(&hdma_tim2_up_ch3) != HAL_OK)
 564              		.loc 1 318 0
 565 00cc FFF7FEFF 		bl	HAL_DMA_Init
 566              	.LVL36:
 567 00d0 98B9     		cbnz	r0, .L37
ARM GAS  /tmp/ccjoX6ph.s 			page 17


 568              	.L29:
 319:Core/Src/stm32f4xx_hal_msp.c ****     {
 320:Core/Src/stm32f4xx_hal_msp.c ****       Error_Handler();
 321:Core/Src/stm32f4xx_hal_msp.c ****     }
 322:Core/Src/stm32f4xx_hal_msp.c **** 
 323:Core/Src/stm32f4xx_hal_msp.c ****     /* Several peripheral DMA handle pointers point to the same DMA handle.
 324:Core/Src/stm32f4xx_hal_msp.c ****      Be aware that there is only one stream to perform all the requested DMAs. */
 325:Core/Src/stm32f4xx_hal_msp.c ****     __HAL_LINKDMA(htim_oc,hdma[TIM_DMA_ID_UPDATE],hdma_tim2_up_ch3);
 569              		.loc 1 325 0
 570 00d2 104B     		ldr	r3, .L38+20
 571 00d4 2362     		str	r3, [r4, #32]
 326:Core/Src/stm32f4xx_hal_msp.c ****     __HAL_LINKDMA(htim_oc,hdma[TIM_DMA_ID_CC3],hdma_tim2_up_ch3);
 572              		.loc 1 326 0
 573 00d6 E362     		str	r3, [r4, #44]
 574 00d8 9C63     		str	r4, [r3, #56]
 327:Core/Src/stm32f4xx_hal_msp.c **** 
 328:Core/Src/stm32f4xx_hal_msp.c ****     /* TIM2 interrupt Init */
 329:Core/Src/stm32f4xx_hal_msp.c ****     HAL_NVIC_SetPriority(TIM2_IRQn, 5, 0);
 575              		.loc 1 329 0
 576 00da 0022     		movs	r2, #0
 577 00dc 0521     		movs	r1, #5
 578 00de 1C20     		movs	r0, #28
 579 00e0 FFF7FEFF 		bl	HAL_NVIC_SetPriority
 580              	.LVL37:
 330:Core/Src/stm32f4xx_hal_msp.c ****     HAL_NVIC_EnableIRQ(TIM2_IRQn);
 581              		.loc 1 330 0
 582 00e4 1C20     		movs	r0, #28
 583 00e6 FFF7FEFF 		bl	HAL_NVIC_EnableIRQ
 584              	.LVL38:
 331:Core/Src/stm32f4xx_hal_msp.c ****   /* USER CODE BEGIN TIM2_MspInit 1 */
 332:Core/Src/stm32f4xx_hal_msp.c **** 
 333:Core/Src/stm32f4xx_hal_msp.c ****   /* USER CODE END TIM2_MspInit 1 */
 334:Core/Src/stm32f4xx_hal_msp.c ****   }
 335:Core/Src/stm32f4xx_hal_msp.c **** 
 336:Core/Src/stm32f4xx_hal_msp.c **** }
 585              		.loc 1 336 0
 586 00ea 02B0     		add	sp, sp, #8
 587              	.LCFI10:
 588              		.cfi_remember_state
 589              		.cfi_def_cfa_offset 8
 590              		@ sp needed
 591 00ec 10BD     		pop	{r4, pc}
 592              	.LVL39:
 593              	.L35:
 594              	.LCFI11:
 595              		.cfi_restore_state
 281:Core/Src/stm32f4xx_hal_msp.c ****     }
 596              		.loc 1 281 0
 597 00ee FFF7FEFF 		bl	Error_Handler
 598              	.LVL40:
 599 00f2 B2E7     		b	.L27
 600              	.L36:
 299:Core/Src/stm32f4xx_hal_msp.c ****     }
 601              		.loc 1 299 0
 602 00f4 FFF7FEFF 		bl	Error_Handler
 603              	.LVL41:
 604 00f8 CEE7     		b	.L28
ARM GAS  /tmp/ccjoX6ph.s 			page 18


 605              	.L37:
 320:Core/Src/stm32f4xx_hal_msp.c ****     }
 606              		.loc 1 320 0
 607 00fa FFF7FEFF 		bl	Error_Handler
 608              	.LVL42:
 609 00fe E8E7     		b	.L29
 610              	.L39:
 611              		.align	2
 612              	.L38:
 613 0100 00380240 		.word	1073887232
 614 0104 00000000 		.word	hdma_tim2_ch1
 615 0108 88600240 		.word	1073897608
 616 010c 00000000 		.word	hdma_tim2_ch2_ch4
 617 0110 A0600240 		.word	1073897632
 618 0114 00000000 		.word	hdma_tim2_up_ch3
 619 0118 28600240 		.word	1073897512
 620              		.cfi_endproc
 621              	.LFE133:
 623              		.section	.text.HAL_TIM_OC_MspDeInit,"ax",%progbits
 624              		.align	1
 625              		.global	HAL_TIM_OC_MspDeInit
 626              		.syntax unified
 627              		.thumb
 628              		.thumb_func
 629              		.fpu fpv4-sp-d16
 631              	HAL_TIM_OC_MspDeInit:
 632              	.LFB134:
 337:Core/Src/stm32f4xx_hal_msp.c **** 
 338:Core/Src/stm32f4xx_hal_msp.c **** /**
 339:Core/Src/stm32f4xx_hal_msp.c **** * @brief TIM_OC MSP De-Initialization
 340:Core/Src/stm32f4xx_hal_msp.c **** * This function freeze the hardware resources used in this example
 341:Core/Src/stm32f4xx_hal_msp.c **** * @param htim_oc: TIM_OC handle pointer
 342:Core/Src/stm32f4xx_hal_msp.c **** * @retval None
 343:Core/Src/stm32f4xx_hal_msp.c **** */
 344:Core/Src/stm32f4xx_hal_msp.c **** void HAL_TIM_OC_MspDeInit(TIM_HandleTypeDef* htim_oc)
 345:Core/Src/stm32f4xx_hal_msp.c **** {
 633              		.loc 1 345 0
 634              		.cfi_startproc
 635              		@ args = 0, pretend = 0, frame = 0
 636              		@ frame_needed = 0, uses_anonymous_args = 0
 637              	.LVL43:
 346:Core/Src/stm32f4xx_hal_msp.c ****   if(htim_oc->Instance==TIM2)
 638              		.loc 1 346 0
 639 0000 0368     		ldr	r3, [r0]
 640 0002 B3F1804F 		cmp	r3, #1073741824
 641 0006 00D0     		beq	.L46
 642 0008 7047     		bx	lr
 643              	.L46:
 345:Core/Src/stm32f4xx_hal_msp.c ****   if(htim_oc->Instance==TIM2)
 644              		.loc 1 345 0
 645 000a 10B5     		push	{r4, lr}
 646              	.LCFI12:
 647              		.cfi_def_cfa_offset 8
 648              		.cfi_offset 4, -8
 649              		.cfi_offset 14, -4
 650 000c 0446     		mov	r4, r0
 347:Core/Src/stm32f4xx_hal_msp.c ****   {
ARM GAS  /tmp/ccjoX6ph.s 			page 19


 348:Core/Src/stm32f4xx_hal_msp.c ****   /* USER CODE BEGIN TIM2_MspDeInit 0 */
 349:Core/Src/stm32f4xx_hal_msp.c **** 
 350:Core/Src/stm32f4xx_hal_msp.c ****   /* USER CODE END TIM2_MspDeInit 0 */
 351:Core/Src/stm32f4xx_hal_msp.c ****     /* Peripheral clock disable */
 352:Core/Src/stm32f4xx_hal_msp.c ****     __HAL_RCC_TIM2_CLK_DISABLE();
 651              		.loc 1 352 0
 652 000e 0C4A     		ldr	r2, .L47
 653 0010 136C     		ldr	r3, [r2, #64]
 654 0012 23F00103 		bic	r3, r3, #1
 655 0016 1364     		str	r3, [r2, #64]
 353:Core/Src/stm32f4xx_hal_msp.c **** 
 354:Core/Src/stm32f4xx_hal_msp.c ****     /* TIM2 DMA DeInit */
 355:Core/Src/stm32f4xx_hal_msp.c ****     HAL_DMA_DeInit(htim_oc->hdma[TIM_DMA_ID_CC1]);
 656              		.loc 1 355 0
 657 0018 406A     		ldr	r0, [r0, #36]
 658              	.LVL44:
 659 001a FFF7FEFF 		bl	HAL_DMA_DeInit
 660              	.LVL45:
 356:Core/Src/stm32f4xx_hal_msp.c ****     HAL_DMA_DeInit(htim_oc->hdma[TIM_DMA_ID_CC2]);
 661              		.loc 1 356 0
 662 001e A06A     		ldr	r0, [r4, #40]
 663 0020 FFF7FEFF 		bl	HAL_DMA_DeInit
 664              	.LVL46:
 357:Core/Src/stm32f4xx_hal_msp.c ****     HAL_DMA_DeInit(htim_oc->hdma[TIM_DMA_ID_CC4]);
 665              		.loc 1 357 0
 666 0024 206B     		ldr	r0, [r4, #48]
 667 0026 FFF7FEFF 		bl	HAL_DMA_DeInit
 668              	.LVL47:
 358:Core/Src/stm32f4xx_hal_msp.c ****     HAL_DMA_DeInit(htim_oc->hdma[TIM_DMA_ID_UPDATE]);
 669              		.loc 1 358 0
 670 002a 206A     		ldr	r0, [r4, #32]
 671 002c FFF7FEFF 		bl	HAL_DMA_DeInit
 672              	.LVL48:
 359:Core/Src/stm32f4xx_hal_msp.c ****     HAL_DMA_DeInit(htim_oc->hdma[TIM_DMA_ID_CC3]);
 673              		.loc 1 359 0
 674 0030 E06A     		ldr	r0, [r4, #44]
 675 0032 FFF7FEFF 		bl	HAL_DMA_DeInit
 676              	.LVL49:
 360:Core/Src/stm32f4xx_hal_msp.c **** 
 361:Core/Src/stm32f4xx_hal_msp.c ****     /* TIM2 interrupt DeInit */
 362:Core/Src/stm32f4xx_hal_msp.c ****     HAL_NVIC_DisableIRQ(TIM2_IRQn);
 677              		.loc 1 362 0
 678 0036 1C20     		movs	r0, #28
 679 0038 FFF7FEFF 		bl	HAL_NVIC_DisableIRQ
 680              	.LVL50:
 681 003c 10BD     		pop	{r4, pc}
 682              	.LVL51:
 683              	.L48:
 684 003e 00BF     		.align	2
 685              	.L47:
 686 0040 00380240 		.word	1073887232
 687              		.cfi_endproc
 688              	.LFE134:
 690              		.text
 691              	.Letext0:
 692              		.file 2 "/usr/include/newlib/machine/_default_types.h"
 693              		.file 3 "/usr/include/newlib/sys/_stdint.h"
ARM GAS  /tmp/ccjoX6ph.s 			page 20


 694              		.file 4 "Drivers/CMSIS/Include/core_cm4.h"
 695              		.file 5 "Drivers/CMSIS/Device/ST/STM32F4xx/Include/system_stm32f4xx.h"
 696              		.file 6 "Drivers/CMSIS/Device/ST/STM32F4xx/Include/stm32f413xx.h"
 697              		.file 7 "Drivers/CMSIS/Device/ST/STM32F4xx/Include/stm32f4xx.h"
 698              		.file 8 "Drivers/STM32F4xx_HAL_Driver/Inc/stm32f4xx_hal_def.h"
 699              		.file 9 "Drivers/STM32F4xx_HAL_Driver/Inc/stm32f4xx_hal_gpio.h"
 700              		.file 10 "Drivers/STM32F4xx_HAL_Driver/Inc/stm32f4xx_hal_dma.h"
 701              		.file 11 "Drivers/STM32F4xx_HAL_Driver/Inc/stm32f4xx_hal_can.h"
 702              		.file 12 "Drivers/STM32F4xx_HAL_Driver/Inc/stm32f4xx_hal_tim.h"
 703              		.file 13 "Drivers/STM32F4xx_HAL_Driver/Inc/stm32f4xx_hal.h"
 704              		.file 14 "Drivers/STM32F4xx_HAL_Driver/Inc/stm32f4xx_hal_cortex.h"
 705              		.file 15 "Core/Inc/main.h"
ARM GAS  /tmp/ccjoX6ph.s 			page 21


DEFINED SYMBOLS
                            *ABS*:0000000000000000 stm32f4xx_hal_msp.c
     /tmp/ccjoX6ph.s:18     .text.HAL_MspInit:0000000000000000 $t
     /tmp/ccjoX6ph.s:25     .text.HAL_MspInit:0000000000000000 HAL_MspInit
     /tmp/ccjoX6ph.s:77     .text.HAL_MspInit:0000000000000040 $d
     /tmp/ccjoX6ph.s:82     .text.HAL_CAN_MspInit:0000000000000000 $t
     /tmp/ccjoX6ph.s:89     .text.HAL_CAN_MspInit:0000000000000000 HAL_CAN_MspInit
     /tmp/ccjoX6ph.s:304    .text.HAL_CAN_MspInit:0000000000000130 $d
     /tmp/ccjoX6ph.s:313    .text.HAL_CAN_MspDeInit:0000000000000000 $t
     /tmp/ccjoX6ph.s:320    .text.HAL_CAN_MspDeInit:0000000000000000 HAL_CAN_MspDeInit
     /tmp/ccjoX6ph.s:406    .text.HAL_CAN_MspDeInit:0000000000000070 $d
     /tmp/ccjoX6ph.s:414    .text.HAL_TIM_OC_MspInit:0000000000000000 $t
     /tmp/ccjoX6ph.s:421    .text.HAL_TIM_OC_MspInit:0000000000000000 HAL_TIM_OC_MspInit
     /tmp/ccjoX6ph.s:613    .text.HAL_TIM_OC_MspInit:0000000000000100 $d
     /tmp/ccjoX6ph.s:624    .text.HAL_TIM_OC_MspDeInit:0000000000000000 $t
     /tmp/ccjoX6ph.s:631    .text.HAL_TIM_OC_MspDeInit:0000000000000000 HAL_TIM_OC_MspDeInit
     /tmp/ccjoX6ph.s:686    .text.HAL_TIM_OC_MspDeInit:0000000000000040 $d
                     .debug_frame:0000000000000010 $d

UNDEFINED SYMBOLS
HAL_NVIC_SetPriority
HAL_GPIO_Init
HAL_NVIC_EnableIRQ
HAL_GPIO_DeInit
HAL_NVIC_DisableIRQ
HAL_DMA_Init
Error_Handler
hdma_tim2_ch1
hdma_tim2_ch2_ch4
hdma_tim2_up_ch3
HAL_DMA_DeInit
