ARM GAS  /tmp/ccptBLEB.s 			page 1


   1              		.cpu cortex-m4
   2              		.eabi_attribute 27, 1
   3              		.eabi_attribute 28, 1
   4              		.eabi_attribute 20, 1
   5              		.eabi_attribute 21, 1
   6              		.eabi_attribute 23, 3
   7              		.eabi_attribute 24, 1
   8              		.eabi_attribute 25, 1
   9              		.eabi_attribute 26, 1
  10              		.eabi_attribute 30, 1
  11              		.eabi_attribute 34, 1
  12              		.eabi_attribute 18, 4
  13              		.file	"stm32f4xx_hal_timebase_tim.c"
  14              		.text
  15              	.Ltext0:
  16              		.cfi_sections	.debug_frame
  17              		.section	.text.HAL_InitTick,"ax",%progbits
  18              		.align	1
  19              		.global	HAL_InitTick
  20              		.syntax unified
  21              		.thumb
  22              		.thumb_func
  23              		.fpu fpv4-sp-d16
  25              	HAL_InitTick:
  26              	.LFB130:
  27              		.file 1 "Core/Src/stm32f4xx_hal_timebase_tim.c"
   1:Core/Src/stm32f4xx_hal_timebase_tim.c **** /* USER CODE BEGIN Header */
   2:Core/Src/stm32f4xx_hal_timebase_tim.c **** /**
   3:Core/Src/stm32f4xx_hal_timebase_tim.c ****   ******************************************************************************
   4:Core/Src/stm32f4xx_hal_timebase_tim.c ****   * @file    stm32f4xx_hal_timebase_TIM.c
   5:Core/Src/stm32f4xx_hal_timebase_tim.c ****   * @brief   HAL time base based on the hardware TIM.
   6:Core/Src/stm32f4xx_hal_timebase_tim.c ****   ******************************************************************************
   7:Core/Src/stm32f4xx_hal_timebase_tim.c ****   * @attention
   8:Core/Src/stm32f4xx_hal_timebase_tim.c ****   *
   9:Core/Src/stm32f4xx_hal_timebase_tim.c ****   * <h2><center>&copy; Copyright (c) 2021 STMicroelectronics.
  10:Core/Src/stm32f4xx_hal_timebase_tim.c ****   * All rights reserved.</center></h2>
  11:Core/Src/stm32f4xx_hal_timebase_tim.c ****   *
  12:Core/Src/stm32f4xx_hal_timebase_tim.c ****   * This software component is licensed by ST under Ultimate Liberty license
  13:Core/Src/stm32f4xx_hal_timebase_tim.c ****   * SLA0044, the "License"; You may not use this file except in compliance with
  14:Core/Src/stm32f4xx_hal_timebase_tim.c ****   * the License. You may obtain a copy of the License at:
  15:Core/Src/stm32f4xx_hal_timebase_tim.c ****   *                             www.st.com/SLA0044
  16:Core/Src/stm32f4xx_hal_timebase_tim.c ****   *
  17:Core/Src/stm32f4xx_hal_timebase_tim.c ****   ******************************************************************************
  18:Core/Src/stm32f4xx_hal_timebase_tim.c ****   */
  19:Core/Src/stm32f4xx_hal_timebase_tim.c **** /* USER CODE END Header */
  20:Core/Src/stm32f4xx_hal_timebase_tim.c **** 
  21:Core/Src/stm32f4xx_hal_timebase_tim.c **** /* Includes ------------------------------------------------------------------*/
  22:Core/Src/stm32f4xx_hal_timebase_tim.c **** #include "stm32f4xx_hal.h"
  23:Core/Src/stm32f4xx_hal_timebase_tim.c **** #include "stm32f4xx_hal_tim.h"
  24:Core/Src/stm32f4xx_hal_timebase_tim.c **** 
  25:Core/Src/stm32f4xx_hal_timebase_tim.c **** /* Private typedef -----------------------------------------------------------*/
  26:Core/Src/stm32f4xx_hal_timebase_tim.c **** /* Private define ------------------------------------------------------------*/
  27:Core/Src/stm32f4xx_hal_timebase_tim.c **** /* Private macro -------------------------------------------------------------*/
  28:Core/Src/stm32f4xx_hal_timebase_tim.c **** /* Private variables ---------------------------------------------------------*/
  29:Core/Src/stm32f4xx_hal_timebase_tim.c **** TIM_HandleTypeDef        htim7;
  30:Core/Src/stm32f4xx_hal_timebase_tim.c **** /* Private function prototypes -----------------------------------------------*/
  31:Core/Src/stm32f4xx_hal_timebase_tim.c **** /* Private functions ---------------------------------------------------------*/
ARM GAS  /tmp/ccptBLEB.s 			page 2


  32:Core/Src/stm32f4xx_hal_timebase_tim.c **** 
  33:Core/Src/stm32f4xx_hal_timebase_tim.c **** /**
  34:Core/Src/stm32f4xx_hal_timebase_tim.c ****   * @brief  This function configures the TIM7 as a time base source.
  35:Core/Src/stm32f4xx_hal_timebase_tim.c ****   *         The time source is configured  to have 1ms time base with a dedicated
  36:Core/Src/stm32f4xx_hal_timebase_tim.c ****   *         Tick interrupt priority.
  37:Core/Src/stm32f4xx_hal_timebase_tim.c ****   * @note   This function is called  automatically at the beginning of program after
  38:Core/Src/stm32f4xx_hal_timebase_tim.c ****   *         reset by HAL_Init() or at any time when clock is configured, by HAL_RCC_ClockConfig().
  39:Core/Src/stm32f4xx_hal_timebase_tim.c ****   * @param  TickPriority: Tick interrupt priority.
  40:Core/Src/stm32f4xx_hal_timebase_tim.c ****   * @retval HAL status
  41:Core/Src/stm32f4xx_hal_timebase_tim.c ****   */
  42:Core/Src/stm32f4xx_hal_timebase_tim.c **** HAL_StatusTypeDef HAL_InitTick(uint32_t TickPriority)
  43:Core/Src/stm32f4xx_hal_timebase_tim.c **** {
  28              		.loc 1 43 0
  29              		.cfi_startproc
  30              		@ args = 0, pretend = 0, frame = 32
  31              		@ frame_needed = 0, uses_anonymous_args = 0
  32              	.LVL0:
  33 0000 10B5     		push	{r4, lr}
  34              		.cfi_def_cfa_offset 8
  35              		.cfi_offset 4, -8
  36              		.cfi_offset 14, -4
  37 0002 88B0     		sub	sp, sp, #32
  38              		.cfi_def_cfa_offset 40
  39              	.LVL1:
  44:Core/Src/stm32f4xx_hal_timebase_tim.c ****   RCC_ClkInitTypeDef    clkconfig;
  45:Core/Src/stm32f4xx_hal_timebase_tim.c ****   uint32_t              uwTimclock = 0;
  46:Core/Src/stm32f4xx_hal_timebase_tim.c ****   uint32_t              uwPrescalerValue = 0;
  47:Core/Src/stm32f4xx_hal_timebase_tim.c ****   uint32_t              pFLatency;
  48:Core/Src/stm32f4xx_hal_timebase_tim.c ****   /*Configure the TIM7 IRQ priority */
  49:Core/Src/stm32f4xx_hal_timebase_tim.c ****   HAL_NVIC_SetPriority(TIM7_IRQn, TickPriority ,0);
  40              		.loc 1 49 0
  41 0004 0022     		movs	r2, #0
  42 0006 0146     		mov	r1, r0
  43 0008 3720     		movs	r0, #55
  44              	.LVL2:
  45 000a FFF7FEFF 		bl	HAL_NVIC_SetPriority
  46              	.LVL3:
  50:Core/Src/stm32f4xx_hal_timebase_tim.c **** 
  51:Core/Src/stm32f4xx_hal_timebase_tim.c ****   /* Enable the TIM7 global Interrupt */
  52:Core/Src/stm32f4xx_hal_timebase_tim.c ****   HAL_NVIC_EnableIRQ(TIM7_IRQn);
  47              		.loc 1 52 0
  48 000e 3720     		movs	r0, #55
  49 0010 FFF7FEFF 		bl	HAL_NVIC_EnableIRQ
  50              	.LVL4:
  51              	.LBB2:
  53:Core/Src/stm32f4xx_hal_timebase_tim.c ****   /* Enable TIM7 clock */
  54:Core/Src/stm32f4xx_hal_timebase_tim.c ****   __HAL_RCC_TIM7_CLK_ENABLE();
  52              		.loc 1 54 0
  53 0014 0024     		movs	r4, #0
  54 0016 0194     		str	r4, [sp, #4]
  55 0018 144B     		ldr	r3, .L6
  56 001a 1A6C     		ldr	r2, [r3, #64]
  57 001c 42F02002 		orr	r2, r2, #32
  58 0020 1A64     		str	r2, [r3, #64]
  59 0022 1B6C     		ldr	r3, [r3, #64]
  60 0024 03F02003 		and	r3, r3, #32
  61 0028 0193     		str	r3, [sp, #4]
ARM GAS  /tmp/ccptBLEB.s 			page 3


  62 002a 019B     		ldr	r3, [sp, #4]
  63              	.LBE2:
  55:Core/Src/stm32f4xx_hal_timebase_tim.c **** 
  56:Core/Src/stm32f4xx_hal_timebase_tim.c ****   /* Get clock configuration */
  57:Core/Src/stm32f4xx_hal_timebase_tim.c ****   HAL_RCC_GetClockConfig(&clkconfig, &pFLatency);
  64              		.loc 1 57 0
  65 002c 02A9     		add	r1, sp, #8
  66 002e 03A8     		add	r0, sp, #12
  67 0030 FFF7FEFF 		bl	HAL_RCC_GetClockConfig
  68              	.LVL5:
  58:Core/Src/stm32f4xx_hal_timebase_tim.c **** 
  59:Core/Src/stm32f4xx_hal_timebase_tim.c ****   /* Compute TIM7 clock */
  60:Core/Src/stm32f4xx_hal_timebase_tim.c ****   uwTimclock = 2*HAL_RCC_GetPCLK1Freq();
  69              		.loc 1 60 0
  70 0034 FFF7FEFF 		bl	HAL_RCC_GetPCLK1Freq
  71              	.LVL6:
  72 0038 4300     		lsls	r3, r0, #1
  73              	.LVL7:
  61:Core/Src/stm32f4xx_hal_timebase_tim.c ****   /* Compute the prescaler value to have TIM7 counter clock equal to 1MHz */
  62:Core/Src/stm32f4xx_hal_timebase_tim.c ****   uwPrescalerValue = (uint32_t) ((uwTimclock / 1000000U) - 1U);
  74              		.loc 1 62 0
  75 003a 0D48     		ldr	r0, .L6+4
  76 003c A0FB0323 		umull	r2, r3, r0, r3
  77              	.LVL8:
  78 0040 9B0C     		lsrs	r3, r3, #18
  79 0042 013B     		subs	r3, r3, #1
  80              	.LVL9:
  63:Core/Src/stm32f4xx_hal_timebase_tim.c **** 
  64:Core/Src/stm32f4xx_hal_timebase_tim.c ****   /* Initialize TIM7 */
  65:Core/Src/stm32f4xx_hal_timebase_tim.c ****   htim7.Instance = TIM7;
  81              		.loc 1 65 0
  82 0044 0B48     		ldr	r0, .L6+8
  83 0046 0C4A     		ldr	r2, .L6+12
  84 0048 0260     		str	r2, [r0]
  66:Core/Src/stm32f4xx_hal_timebase_tim.c **** 
  67:Core/Src/stm32f4xx_hal_timebase_tim.c ****   /* Initialize TIMx peripheral as follow:
  68:Core/Src/stm32f4xx_hal_timebase_tim.c ****   + Period = [(TIM7CLK/1000) - 1]. to have a (1/1000) s time base.
  69:Core/Src/stm32f4xx_hal_timebase_tim.c ****   + Prescaler = (uwTimclock/1000000 - 1) to have a 1MHz counter clock.
  70:Core/Src/stm32f4xx_hal_timebase_tim.c ****   + ClockDivision = 0
  71:Core/Src/stm32f4xx_hal_timebase_tim.c ****   + Counter direction = Up
  72:Core/Src/stm32f4xx_hal_timebase_tim.c ****   */
  73:Core/Src/stm32f4xx_hal_timebase_tim.c ****   htim7.Init.Period = (1000000U / 1000U) - 1U;
  85              		.loc 1 73 0
  86 004a 40F2E732 		movw	r2, #999
  87 004e C260     		str	r2, [r0, #12]
  74:Core/Src/stm32f4xx_hal_timebase_tim.c ****   htim7.Init.Prescaler = uwPrescalerValue;
  88              		.loc 1 74 0
  89 0050 4360     		str	r3, [r0, #4]
  75:Core/Src/stm32f4xx_hal_timebase_tim.c ****   htim7.Init.ClockDivision = 0;
  90              		.loc 1 75 0
  91 0052 0461     		str	r4, [r0, #16]
  76:Core/Src/stm32f4xx_hal_timebase_tim.c ****   htim7.Init.CounterMode = TIM_COUNTERMODE_UP;
  92              		.loc 1 76 0
  93 0054 8460     		str	r4, [r0, #8]
  77:Core/Src/stm32f4xx_hal_timebase_tim.c ****   if(HAL_TIM_Base_Init(&htim7) == HAL_OK)
  94              		.loc 1 77 0
  95 0056 FFF7FEFF 		bl	HAL_TIM_Base_Init
ARM GAS  /tmp/ccptBLEB.s 			page 4


  96              	.LVL10:
  97 005a 10B1     		cbz	r0, .L5
  78:Core/Src/stm32f4xx_hal_timebase_tim.c ****   {
  79:Core/Src/stm32f4xx_hal_timebase_tim.c ****     /* Start the TIM time Base generation in interrupt mode */
  80:Core/Src/stm32f4xx_hal_timebase_tim.c ****     return HAL_TIM_Base_Start_IT(&htim7);
  81:Core/Src/stm32f4xx_hal_timebase_tim.c ****   }
  82:Core/Src/stm32f4xx_hal_timebase_tim.c **** 
  83:Core/Src/stm32f4xx_hal_timebase_tim.c ****   /* Return function status */
  84:Core/Src/stm32f4xx_hal_timebase_tim.c ****   return HAL_ERROR;
  98              		.loc 1 84 0
  99 005c 0120     		movs	r0, #1
 100              	.L2:
  85:Core/Src/stm32f4xx_hal_timebase_tim.c **** }
 101              		.loc 1 85 0
 102 005e 08B0     		add	sp, sp, #32
 103              		.cfi_remember_state
 104              		.cfi_def_cfa_offset 8
 105              		@ sp needed
 106 0060 10BD     		pop	{r4, pc}
 107              	.L5:
 108              		.cfi_restore_state
  80:Core/Src/stm32f4xx_hal_timebase_tim.c ****   }
 109              		.loc 1 80 0
 110 0062 0448     		ldr	r0, .L6+8
 111 0064 FFF7FEFF 		bl	HAL_TIM_Base_Start_IT
 112              	.LVL11:
 113 0068 F9E7     		b	.L2
 114              	.L7:
 115 006a 00BF     		.align	2
 116              	.L6:
 117 006c 00380240 		.word	1073887232
 118 0070 83DE1B43 		.word	1125899907
 119 0074 00000000 		.word	htim7
 120 0078 00140040 		.word	1073746944
 121              		.cfi_endproc
 122              	.LFE130:
 124              		.section	.text.HAL_SuspendTick,"ax",%progbits
 125              		.align	1
 126              		.global	HAL_SuspendTick
 127              		.syntax unified
 128              		.thumb
 129              		.thumb_func
 130              		.fpu fpv4-sp-d16
 132              	HAL_SuspendTick:
 133              	.LFB131:
  86:Core/Src/stm32f4xx_hal_timebase_tim.c **** 
  87:Core/Src/stm32f4xx_hal_timebase_tim.c **** /**
  88:Core/Src/stm32f4xx_hal_timebase_tim.c ****   * @brief  Suspend Tick increment.
  89:Core/Src/stm32f4xx_hal_timebase_tim.c ****   * @note   Disable the tick increment by disabling TIM7 update interrupt.
  90:Core/Src/stm32f4xx_hal_timebase_tim.c ****   * @param  None
  91:Core/Src/stm32f4xx_hal_timebase_tim.c ****   * @retval None
  92:Core/Src/stm32f4xx_hal_timebase_tim.c ****   */
  93:Core/Src/stm32f4xx_hal_timebase_tim.c **** void HAL_SuspendTick(void)
  94:Core/Src/stm32f4xx_hal_timebase_tim.c **** {
 134              		.loc 1 94 0
 135              		.cfi_startproc
 136              		@ args = 0, pretend = 0, frame = 0
ARM GAS  /tmp/ccptBLEB.s 			page 5


 137              		@ frame_needed = 0, uses_anonymous_args = 0
 138              		@ link register save eliminated.
  95:Core/Src/stm32f4xx_hal_timebase_tim.c ****   /* Disable TIM7 update Interrupt */
  96:Core/Src/stm32f4xx_hal_timebase_tim.c ****   __HAL_TIM_DISABLE_IT(&htim7, TIM_IT_UPDATE);
 139              		.loc 1 96 0
 140 0000 034B     		ldr	r3, .L9
 141 0002 1A68     		ldr	r2, [r3]
 142 0004 D368     		ldr	r3, [r2, #12]
 143 0006 23F00103 		bic	r3, r3, #1
 144 000a D360     		str	r3, [r2, #12]
 145 000c 7047     		bx	lr
 146              	.L10:
 147 000e 00BF     		.align	2
 148              	.L9:
 149 0010 00000000 		.word	htim7
 150              		.cfi_endproc
 151              	.LFE131:
 153              		.section	.text.HAL_ResumeTick,"ax",%progbits
 154              		.align	1
 155              		.global	HAL_ResumeTick
 156              		.syntax unified
 157              		.thumb
 158              		.thumb_func
 159              		.fpu fpv4-sp-d16
 161              	HAL_ResumeTick:
 162              	.LFB132:
  97:Core/Src/stm32f4xx_hal_timebase_tim.c **** }
  98:Core/Src/stm32f4xx_hal_timebase_tim.c **** 
  99:Core/Src/stm32f4xx_hal_timebase_tim.c **** /**
 100:Core/Src/stm32f4xx_hal_timebase_tim.c ****   * @brief  Resume Tick increment.
 101:Core/Src/stm32f4xx_hal_timebase_tim.c ****   * @note   Enable the tick increment by Enabling TIM7 update interrupt.
 102:Core/Src/stm32f4xx_hal_timebase_tim.c ****   * @param  None
 103:Core/Src/stm32f4xx_hal_timebase_tim.c ****   * @retval None
 104:Core/Src/stm32f4xx_hal_timebase_tim.c ****   */
 105:Core/Src/stm32f4xx_hal_timebase_tim.c **** void HAL_ResumeTick(void)
 106:Core/Src/stm32f4xx_hal_timebase_tim.c **** {
 163              		.loc 1 106 0
 164              		.cfi_startproc
 165              		@ args = 0, pretend = 0, frame = 0
 166              		@ frame_needed = 0, uses_anonymous_args = 0
 167              		@ link register save eliminated.
 107:Core/Src/stm32f4xx_hal_timebase_tim.c ****   /* Enable TIM7 Update interrupt */
 108:Core/Src/stm32f4xx_hal_timebase_tim.c ****   __HAL_TIM_ENABLE_IT(&htim7, TIM_IT_UPDATE);
 168              		.loc 1 108 0
 169 0000 034B     		ldr	r3, .L12
 170 0002 1A68     		ldr	r2, [r3]
 171 0004 D368     		ldr	r3, [r2, #12]
 172 0006 43F00103 		orr	r3, r3, #1
 173 000a D360     		str	r3, [r2, #12]
 174 000c 7047     		bx	lr
 175              	.L13:
 176 000e 00BF     		.align	2
 177              	.L12:
 178 0010 00000000 		.word	htim7
 179              		.cfi_endproc
 180              	.LFE132:
 182              		.comm	htim7,64,4
ARM GAS  /tmp/ccptBLEB.s 			page 6


 183              		.text
 184              	.Letext0:
 185              		.file 2 "/usr/include/newlib/machine/_default_types.h"
 186              		.file 3 "/usr/include/newlib/sys/_stdint.h"
 187              		.file 4 "Drivers/CMSIS/Include/core_cm4.h"
 188              		.file 5 "Drivers/CMSIS/Device/ST/STM32F4xx/Include/system_stm32f4xx.h"
 189              		.file 6 "Drivers/CMSIS/Device/ST/STM32F4xx/Include/stm32f413xx.h"
 190              		.file 7 "Drivers/STM32F4xx_HAL_Driver/Inc/stm32f4xx_hal_def.h"
 191              		.file 8 "Drivers/STM32F4xx_HAL_Driver/Inc/stm32f4xx_hal_rcc.h"
 192              		.file 9 "Drivers/STM32F4xx_HAL_Driver/Inc/stm32f4xx_hal_dma.h"
 193              		.file 10 "Drivers/STM32F4xx_HAL_Driver/Inc/stm32f4xx_hal_tim.h"
 194              		.file 11 "Drivers/STM32F4xx_HAL_Driver/Inc/stm32f4xx_hal.h"
 195              		.file 12 "Drivers/STM32F4xx_HAL_Driver/Inc/stm32f4xx_hal_cortex.h"
ARM GAS  /tmp/ccptBLEB.s 			page 7

