ARM GAS  /tmp/cc9Iu9BV.s 			page 1


   1              		.cpu cortex-m4
   2              		.eabi_attribute 27, 1
   3              		.eabi_attribute 28, 1
   4              		.eabi_attribute 20, 1
   5              		.eabi_attribute 21, 1
   6              		.eabi_attribute 23, 3
   7              		.eabi_attribute 24, 1
   8              		.eabi_attribute 25, 1
   9              		.eabi_attribute 26, 1
  10              		.eabi_attribute 30, 1
  11              		.eabi_attribute 34, 1
  12              		.eabi_attribute 18, 4
  13              		.file	"stream_buffer.c"
  14              		.text
  15              	.Ltext0:
  16              		.cfi_sections	.debug_frame
  17              		.section	.text.prvBytesInBuffer,"ax",%progbits
  18              		.align	1
  19              		.syntax unified
  20              		.thumb
  21              		.thumb_func
  22              		.fpu fpv4-sp-d16
  24              	prvBytesInBuffer:
  25              	.LFB24:
  26              		.file 1 "Middlewares/Third_Party/FreeRTOS/Source/stream_buffer.c"
   1:Middlewares/Third_Party/FreeRTOS/Source/stream_buffer.c **** /*
   2:Middlewares/Third_Party/FreeRTOS/Source/stream_buffer.c ****  * FreeRTOS Kernel V10.2.1
   3:Middlewares/Third_Party/FreeRTOS/Source/stream_buffer.c ****  * Copyright (C) 2019 Amazon.com, Inc. or its affiliates.  All Rights Reserved.
   4:Middlewares/Third_Party/FreeRTOS/Source/stream_buffer.c ****  *
   5:Middlewares/Third_Party/FreeRTOS/Source/stream_buffer.c ****  * Permission is hereby granted, free of charge, to any person obtaining a copy of
   6:Middlewares/Third_Party/FreeRTOS/Source/stream_buffer.c ****  * this software and associated documentation files (the "Software"), to deal in
   7:Middlewares/Third_Party/FreeRTOS/Source/stream_buffer.c ****  * the Software without restriction, including without limitation the rights to
   8:Middlewares/Third_Party/FreeRTOS/Source/stream_buffer.c ****  * use, copy, modify, merge, publish, distribute, sublicense, and/or sell copies of
   9:Middlewares/Third_Party/FreeRTOS/Source/stream_buffer.c ****  * the Software, and to permit persons to whom the Software is furnished to do so,
  10:Middlewares/Third_Party/FreeRTOS/Source/stream_buffer.c ****  * subject to the following conditions:
  11:Middlewares/Third_Party/FreeRTOS/Source/stream_buffer.c ****  *
  12:Middlewares/Third_Party/FreeRTOS/Source/stream_buffer.c ****  * The above copyright notice and this permission notice shall be included in all
  13:Middlewares/Third_Party/FreeRTOS/Source/stream_buffer.c ****  * copies or substantial portions of the Software.
  14:Middlewares/Third_Party/FreeRTOS/Source/stream_buffer.c ****  *
  15:Middlewares/Third_Party/FreeRTOS/Source/stream_buffer.c ****  * THE SOFTWARE IS PROVIDED "AS IS", WITHOUT WARRANTY OF ANY KIND, EXPRESS OR
  16:Middlewares/Third_Party/FreeRTOS/Source/stream_buffer.c ****  * IMPLIED, INCLUDING BUT NOT LIMITED TO THE WARRANTIES OF MERCHANTABILITY, FITNESS
  17:Middlewares/Third_Party/FreeRTOS/Source/stream_buffer.c ****  * FOR A PARTICULAR PURPOSE AND NONINFRINGEMENT. IN NO EVENT SHALL THE AUTHORS OR
  18:Middlewares/Third_Party/FreeRTOS/Source/stream_buffer.c ****  * COPYRIGHT HOLDERS BE LIABLE FOR ANY CLAIM, DAMAGES OR OTHER LIABILITY, WHETHER
  19:Middlewares/Third_Party/FreeRTOS/Source/stream_buffer.c ****  * IN AN ACTION OF CONTRACT, TORT OR OTHERWISE, ARISING FROM, OUT OF OR IN
  20:Middlewares/Third_Party/FreeRTOS/Source/stream_buffer.c ****  * CONNECTION WITH THE SOFTWARE OR THE USE OR OTHER DEALINGS IN THE SOFTWARE.
  21:Middlewares/Third_Party/FreeRTOS/Source/stream_buffer.c ****  *
  22:Middlewares/Third_Party/FreeRTOS/Source/stream_buffer.c ****  * http://www.FreeRTOS.org
  23:Middlewares/Third_Party/FreeRTOS/Source/stream_buffer.c ****  * http://aws.amazon.com/freertos
  24:Middlewares/Third_Party/FreeRTOS/Source/stream_buffer.c ****  *
  25:Middlewares/Third_Party/FreeRTOS/Source/stream_buffer.c ****  * 1 tab == 4 spaces!
  26:Middlewares/Third_Party/FreeRTOS/Source/stream_buffer.c ****  */
  27:Middlewares/Third_Party/FreeRTOS/Source/stream_buffer.c **** 
  28:Middlewares/Third_Party/FreeRTOS/Source/stream_buffer.c **** /* Standard includes. */
  29:Middlewares/Third_Party/FreeRTOS/Source/stream_buffer.c **** #include <stdint.h>
  30:Middlewares/Third_Party/FreeRTOS/Source/stream_buffer.c **** #include <string.h>
  31:Middlewares/Third_Party/FreeRTOS/Source/stream_buffer.c **** 
  32:Middlewares/Third_Party/FreeRTOS/Source/stream_buffer.c **** /* Defining MPU_WRAPPERS_INCLUDED_FROM_API_FILE prevents task.h from redefining
ARM GAS  /tmp/cc9Iu9BV.s 			page 2


  33:Middlewares/Third_Party/FreeRTOS/Source/stream_buffer.c **** all the API functions to use the MPU wrappers.  That should only be done when
  34:Middlewares/Third_Party/FreeRTOS/Source/stream_buffer.c **** task.h is included from an application file. */
  35:Middlewares/Third_Party/FreeRTOS/Source/stream_buffer.c **** #define MPU_WRAPPERS_INCLUDED_FROM_API_FILE
  36:Middlewares/Third_Party/FreeRTOS/Source/stream_buffer.c **** 
  37:Middlewares/Third_Party/FreeRTOS/Source/stream_buffer.c **** /* FreeRTOS includes. */
  38:Middlewares/Third_Party/FreeRTOS/Source/stream_buffer.c **** #include "FreeRTOS.h"
  39:Middlewares/Third_Party/FreeRTOS/Source/stream_buffer.c **** #include "task.h"
  40:Middlewares/Third_Party/FreeRTOS/Source/stream_buffer.c **** #include "stream_buffer.h"
  41:Middlewares/Third_Party/FreeRTOS/Source/stream_buffer.c **** 
  42:Middlewares/Third_Party/FreeRTOS/Source/stream_buffer.c **** #if( configUSE_TASK_NOTIFICATIONS != 1 )
  43:Middlewares/Third_Party/FreeRTOS/Source/stream_buffer.c **** 	#error configUSE_TASK_NOTIFICATIONS must be set to 1 to build stream_buffer.c
  44:Middlewares/Third_Party/FreeRTOS/Source/stream_buffer.c **** #endif
  45:Middlewares/Third_Party/FreeRTOS/Source/stream_buffer.c **** 
  46:Middlewares/Third_Party/FreeRTOS/Source/stream_buffer.c **** /* Lint e961, e9021 and e750 are suppressed as a MISRA exception justified
  47:Middlewares/Third_Party/FreeRTOS/Source/stream_buffer.c **** because the MPU ports require MPU_WRAPPERS_INCLUDED_FROM_API_FILE to be defined
  48:Middlewares/Third_Party/FreeRTOS/Source/stream_buffer.c **** for the header files above, but not in this file, in order to generate the
  49:Middlewares/Third_Party/FreeRTOS/Source/stream_buffer.c **** correct privileged Vs unprivileged linkage and placement. */
  50:Middlewares/Third_Party/FreeRTOS/Source/stream_buffer.c **** #undef MPU_WRAPPERS_INCLUDED_FROM_API_FILE /*lint !e961 !e750 !e9021. */
  51:Middlewares/Third_Party/FreeRTOS/Source/stream_buffer.c **** 
  52:Middlewares/Third_Party/FreeRTOS/Source/stream_buffer.c **** /* If the user has not provided application specific Rx notification macros,
  53:Middlewares/Third_Party/FreeRTOS/Source/stream_buffer.c **** or #defined the notification macros away, them provide default implementations
  54:Middlewares/Third_Party/FreeRTOS/Source/stream_buffer.c **** that uses task notifications. */
  55:Middlewares/Third_Party/FreeRTOS/Source/stream_buffer.c **** /*lint -save -e9026 Function like macros allowed and needed here so they can be overidden. */
  56:Middlewares/Third_Party/FreeRTOS/Source/stream_buffer.c **** #ifndef sbRECEIVE_COMPLETED
  57:Middlewares/Third_Party/FreeRTOS/Source/stream_buffer.c **** 	#define sbRECEIVE_COMPLETED( pxStreamBuffer )										\
  58:Middlewares/Third_Party/FreeRTOS/Source/stream_buffer.c **** 		vTaskSuspendAll();																\
  59:Middlewares/Third_Party/FreeRTOS/Source/stream_buffer.c **** 		{																				\
  60:Middlewares/Third_Party/FreeRTOS/Source/stream_buffer.c **** 			if( ( pxStreamBuffer )->xTaskWaitingToSend != NULL )						\
  61:Middlewares/Third_Party/FreeRTOS/Source/stream_buffer.c **** 			{																			\
  62:Middlewares/Third_Party/FreeRTOS/Source/stream_buffer.c **** 				( void ) xTaskNotify( ( pxStreamBuffer )->xTaskWaitingToSend,			\
  63:Middlewares/Third_Party/FreeRTOS/Source/stream_buffer.c **** 									  ( uint32_t ) 0,									\
  64:Middlewares/Third_Party/FreeRTOS/Source/stream_buffer.c **** 									  eNoAction );										\
  65:Middlewares/Third_Party/FreeRTOS/Source/stream_buffer.c **** 				( pxStreamBuffer )->xTaskWaitingToSend = NULL;							\
  66:Middlewares/Third_Party/FreeRTOS/Source/stream_buffer.c **** 			}																			\
  67:Middlewares/Third_Party/FreeRTOS/Source/stream_buffer.c **** 		}																				\
  68:Middlewares/Third_Party/FreeRTOS/Source/stream_buffer.c **** 		( void ) xTaskResumeAll();
  69:Middlewares/Third_Party/FreeRTOS/Source/stream_buffer.c **** #endif /* sbRECEIVE_COMPLETED */
  70:Middlewares/Third_Party/FreeRTOS/Source/stream_buffer.c **** 
  71:Middlewares/Third_Party/FreeRTOS/Source/stream_buffer.c **** #ifndef sbRECEIVE_COMPLETED_FROM_ISR
  72:Middlewares/Third_Party/FreeRTOS/Source/stream_buffer.c **** 	#define sbRECEIVE_COMPLETED_FROM_ISR( pxStreamBuffer,								\
  73:Middlewares/Third_Party/FreeRTOS/Source/stream_buffer.c **** 										  pxHigherPriorityTaskWoken )					\
  74:Middlewares/Third_Party/FreeRTOS/Source/stream_buffer.c **** 	{																					\
  75:Middlewares/Third_Party/FreeRTOS/Source/stream_buffer.c **** 	UBaseType_t uxSavedInterruptStatus;													\
  76:Middlewares/Third_Party/FreeRTOS/Source/stream_buffer.c **** 																						\
  77:Middlewares/Third_Party/FreeRTOS/Source/stream_buffer.c **** 		uxSavedInterruptStatus = ( UBaseType_t ) portSET_INTERRUPT_MASK_FROM_ISR();		\
  78:Middlewares/Third_Party/FreeRTOS/Source/stream_buffer.c **** 		{																				\
  79:Middlewares/Third_Party/FreeRTOS/Source/stream_buffer.c **** 			if( ( pxStreamBuffer )->xTaskWaitingToSend != NULL )						\
  80:Middlewares/Third_Party/FreeRTOS/Source/stream_buffer.c **** 			{																			\
  81:Middlewares/Third_Party/FreeRTOS/Source/stream_buffer.c **** 				( void ) xTaskNotifyFromISR( ( pxStreamBuffer )->xTaskWaitingToSend,	\
  82:Middlewares/Third_Party/FreeRTOS/Source/stream_buffer.c **** 											 ( uint32_t ) 0,							\
  83:Middlewares/Third_Party/FreeRTOS/Source/stream_buffer.c **** 											 eNoAction,									\
  84:Middlewares/Third_Party/FreeRTOS/Source/stream_buffer.c **** 											 pxHigherPriorityTaskWoken );				\
  85:Middlewares/Third_Party/FreeRTOS/Source/stream_buffer.c **** 				( pxStreamBuffer )->xTaskWaitingToSend = NULL;							\
  86:Middlewares/Third_Party/FreeRTOS/Source/stream_buffer.c **** 			}																			\
  87:Middlewares/Third_Party/FreeRTOS/Source/stream_buffer.c **** 		}																				\
  88:Middlewares/Third_Party/FreeRTOS/Source/stream_buffer.c **** 		portCLEAR_INTERRUPT_MASK_FROM_ISR( uxSavedInterruptStatus );					\
  89:Middlewares/Third_Party/FreeRTOS/Source/stream_buffer.c **** 	}
ARM GAS  /tmp/cc9Iu9BV.s 			page 3


  90:Middlewares/Third_Party/FreeRTOS/Source/stream_buffer.c **** #endif /* sbRECEIVE_COMPLETED_FROM_ISR */
  91:Middlewares/Third_Party/FreeRTOS/Source/stream_buffer.c **** 
  92:Middlewares/Third_Party/FreeRTOS/Source/stream_buffer.c **** /* If the user has not provided an application specific Tx notification macro,
  93:Middlewares/Third_Party/FreeRTOS/Source/stream_buffer.c **** or #defined the notification macro away, them provide a default implementation
  94:Middlewares/Third_Party/FreeRTOS/Source/stream_buffer.c **** that uses task notifications. */
  95:Middlewares/Third_Party/FreeRTOS/Source/stream_buffer.c **** #ifndef sbSEND_COMPLETED
  96:Middlewares/Third_Party/FreeRTOS/Source/stream_buffer.c **** 	#define sbSEND_COMPLETED( pxStreamBuffer )											\
  97:Middlewares/Third_Party/FreeRTOS/Source/stream_buffer.c **** 		vTaskSuspendAll();																\
  98:Middlewares/Third_Party/FreeRTOS/Source/stream_buffer.c **** 		{																				\
  99:Middlewares/Third_Party/FreeRTOS/Source/stream_buffer.c **** 			if( ( pxStreamBuffer )->xTaskWaitingToReceive != NULL )						\
 100:Middlewares/Third_Party/FreeRTOS/Source/stream_buffer.c **** 			{																			\
 101:Middlewares/Third_Party/FreeRTOS/Source/stream_buffer.c **** 				( void ) xTaskNotify( ( pxStreamBuffer )->xTaskWaitingToReceive,		\
 102:Middlewares/Third_Party/FreeRTOS/Source/stream_buffer.c **** 									  ( uint32_t ) 0,									\
 103:Middlewares/Third_Party/FreeRTOS/Source/stream_buffer.c **** 									  eNoAction );										\
 104:Middlewares/Third_Party/FreeRTOS/Source/stream_buffer.c **** 				( pxStreamBuffer )->xTaskWaitingToReceive = NULL;						\
 105:Middlewares/Third_Party/FreeRTOS/Source/stream_buffer.c **** 			}																			\
 106:Middlewares/Third_Party/FreeRTOS/Source/stream_buffer.c **** 		}																				\
 107:Middlewares/Third_Party/FreeRTOS/Source/stream_buffer.c **** 		( void ) xTaskResumeAll();
 108:Middlewares/Third_Party/FreeRTOS/Source/stream_buffer.c **** #endif /* sbSEND_COMPLETED */
 109:Middlewares/Third_Party/FreeRTOS/Source/stream_buffer.c **** 
 110:Middlewares/Third_Party/FreeRTOS/Source/stream_buffer.c **** #ifndef sbSEND_COMPLETE_FROM_ISR
 111:Middlewares/Third_Party/FreeRTOS/Source/stream_buffer.c **** 	#define sbSEND_COMPLETE_FROM_ISR( pxStreamBuffer, pxHigherPriorityTaskWoken )		\
 112:Middlewares/Third_Party/FreeRTOS/Source/stream_buffer.c **** 	{																					\
 113:Middlewares/Third_Party/FreeRTOS/Source/stream_buffer.c **** 	UBaseType_t uxSavedInterruptStatus;													\
 114:Middlewares/Third_Party/FreeRTOS/Source/stream_buffer.c **** 																						\
 115:Middlewares/Third_Party/FreeRTOS/Source/stream_buffer.c **** 		uxSavedInterruptStatus = ( UBaseType_t ) portSET_INTERRUPT_MASK_FROM_ISR();		\
 116:Middlewares/Third_Party/FreeRTOS/Source/stream_buffer.c **** 		{																				\
 117:Middlewares/Third_Party/FreeRTOS/Source/stream_buffer.c **** 			if( ( pxStreamBuffer )->xTaskWaitingToReceive != NULL )						\
 118:Middlewares/Third_Party/FreeRTOS/Source/stream_buffer.c **** 			{																			\
 119:Middlewares/Third_Party/FreeRTOS/Source/stream_buffer.c **** 				( void ) xTaskNotifyFromISR( ( pxStreamBuffer )->xTaskWaitingToReceive,	\
 120:Middlewares/Third_Party/FreeRTOS/Source/stream_buffer.c **** 											 ( uint32_t ) 0,							\
 121:Middlewares/Third_Party/FreeRTOS/Source/stream_buffer.c **** 											 eNoAction,									\
 122:Middlewares/Third_Party/FreeRTOS/Source/stream_buffer.c **** 											 pxHigherPriorityTaskWoken );				\
 123:Middlewares/Third_Party/FreeRTOS/Source/stream_buffer.c **** 				( pxStreamBuffer )->xTaskWaitingToReceive = NULL;						\
 124:Middlewares/Third_Party/FreeRTOS/Source/stream_buffer.c **** 			}																			\
 125:Middlewares/Third_Party/FreeRTOS/Source/stream_buffer.c **** 		}																				\
 126:Middlewares/Third_Party/FreeRTOS/Source/stream_buffer.c **** 		portCLEAR_INTERRUPT_MASK_FROM_ISR( uxSavedInterruptStatus );					\
 127:Middlewares/Third_Party/FreeRTOS/Source/stream_buffer.c **** 	}
 128:Middlewares/Third_Party/FreeRTOS/Source/stream_buffer.c **** #endif /* sbSEND_COMPLETE_FROM_ISR */
 129:Middlewares/Third_Party/FreeRTOS/Source/stream_buffer.c **** /*lint -restore (9026) */
 130:Middlewares/Third_Party/FreeRTOS/Source/stream_buffer.c **** 
 131:Middlewares/Third_Party/FreeRTOS/Source/stream_buffer.c **** /* The number of bytes used to hold the length of a message in the buffer. */
 132:Middlewares/Third_Party/FreeRTOS/Source/stream_buffer.c **** #define sbBYTES_TO_STORE_MESSAGE_LENGTH ( sizeof( configMESSAGE_BUFFER_LENGTH_TYPE ) )
 133:Middlewares/Third_Party/FreeRTOS/Source/stream_buffer.c **** 
 134:Middlewares/Third_Party/FreeRTOS/Source/stream_buffer.c **** /* Bits stored in the ucFlags field of the stream buffer. */
 135:Middlewares/Third_Party/FreeRTOS/Source/stream_buffer.c **** #define sbFLAGS_IS_MESSAGE_BUFFER		( ( uint8_t ) 1 ) /* Set if the stream buffer was created as a m
 136:Middlewares/Third_Party/FreeRTOS/Source/stream_buffer.c **** #define sbFLAGS_IS_STATICALLY_ALLOCATED ( ( uint8_t ) 2 ) /* Set if the stream buffer was created u
 137:Middlewares/Third_Party/FreeRTOS/Source/stream_buffer.c **** 
 138:Middlewares/Third_Party/FreeRTOS/Source/stream_buffer.c **** /*-----------------------------------------------------------*/
 139:Middlewares/Third_Party/FreeRTOS/Source/stream_buffer.c **** 
 140:Middlewares/Third_Party/FreeRTOS/Source/stream_buffer.c **** /* Structure that hold state information on the buffer. */
 141:Middlewares/Third_Party/FreeRTOS/Source/stream_buffer.c **** typedef struct StreamBufferDef_t /*lint !e9058 Style convention uses tag. */
 142:Middlewares/Third_Party/FreeRTOS/Source/stream_buffer.c **** {
 143:Middlewares/Third_Party/FreeRTOS/Source/stream_buffer.c **** 	volatile size_t xTail;				/* Index to the next item to read within the buffer. */
 144:Middlewares/Third_Party/FreeRTOS/Source/stream_buffer.c **** 	volatile size_t xHead;				/* Index to the next item to write within the buffer. */
 145:Middlewares/Third_Party/FreeRTOS/Source/stream_buffer.c **** 	size_t xLength;						/* The length of the buffer pointed to by pucBuffer. */
 146:Middlewares/Third_Party/FreeRTOS/Source/stream_buffer.c **** 	size_t xTriggerLevelBytes;			/* The number of bytes that must be in the stream buffer before a tas
ARM GAS  /tmp/cc9Iu9BV.s 			page 4


 147:Middlewares/Third_Party/FreeRTOS/Source/stream_buffer.c **** 	volatile TaskHandle_t xTaskWaitingToReceive; /* Holds the handle of a task waiting for data, or NU
 148:Middlewares/Third_Party/FreeRTOS/Source/stream_buffer.c **** 	volatile TaskHandle_t xTaskWaitingToSend;	/* Holds the handle of a task waiting to send data to a 
 149:Middlewares/Third_Party/FreeRTOS/Source/stream_buffer.c **** 	uint8_t *pucBuffer;					/* Points to the buffer itself - that is - the RAM that stores the data pa
 150:Middlewares/Third_Party/FreeRTOS/Source/stream_buffer.c **** 	uint8_t ucFlags;
 151:Middlewares/Third_Party/FreeRTOS/Source/stream_buffer.c **** 
 152:Middlewares/Third_Party/FreeRTOS/Source/stream_buffer.c **** 	#if ( configUSE_TRACE_FACILITY == 1 )
 153:Middlewares/Third_Party/FreeRTOS/Source/stream_buffer.c **** 		UBaseType_t uxStreamBufferNumber;		/* Used for tracing purposes. */
 154:Middlewares/Third_Party/FreeRTOS/Source/stream_buffer.c **** 	#endif
 155:Middlewares/Third_Party/FreeRTOS/Source/stream_buffer.c **** } StreamBuffer_t;
 156:Middlewares/Third_Party/FreeRTOS/Source/stream_buffer.c **** 
 157:Middlewares/Third_Party/FreeRTOS/Source/stream_buffer.c **** /*
 158:Middlewares/Third_Party/FreeRTOS/Source/stream_buffer.c ****  * The number of bytes available to be read from the buffer.
 159:Middlewares/Third_Party/FreeRTOS/Source/stream_buffer.c ****  */
 160:Middlewares/Third_Party/FreeRTOS/Source/stream_buffer.c **** static size_t prvBytesInBuffer( const StreamBuffer_t * const pxStreamBuffer ) PRIVILEGED_FUNCTION;
 161:Middlewares/Third_Party/FreeRTOS/Source/stream_buffer.c **** 
 162:Middlewares/Third_Party/FreeRTOS/Source/stream_buffer.c **** /*
 163:Middlewares/Third_Party/FreeRTOS/Source/stream_buffer.c ****  * Add xCount bytes from pucData into the pxStreamBuffer message buffer.
 164:Middlewares/Third_Party/FreeRTOS/Source/stream_buffer.c ****  * Returns the number of bytes written, which will either equal xCount in the
 165:Middlewares/Third_Party/FreeRTOS/Source/stream_buffer.c ****  * success case, or 0 if there was not enough space in the buffer (in which case
 166:Middlewares/Third_Party/FreeRTOS/Source/stream_buffer.c ****  * no data is written into the buffer).
 167:Middlewares/Third_Party/FreeRTOS/Source/stream_buffer.c ****  */
 168:Middlewares/Third_Party/FreeRTOS/Source/stream_buffer.c **** static size_t prvWriteBytesToBuffer( StreamBuffer_t * const pxStreamBuffer, const uint8_t *pucData,
 169:Middlewares/Third_Party/FreeRTOS/Source/stream_buffer.c **** 
 170:Middlewares/Third_Party/FreeRTOS/Source/stream_buffer.c **** /*
 171:Middlewares/Third_Party/FreeRTOS/Source/stream_buffer.c ****  * If the stream buffer is being used as a message buffer, then reads an entire
 172:Middlewares/Third_Party/FreeRTOS/Source/stream_buffer.c ****  * message out of the buffer.  If the stream buffer is being used as a stream
 173:Middlewares/Third_Party/FreeRTOS/Source/stream_buffer.c ****  * buffer then read as many bytes as possible from the buffer.
 174:Middlewares/Third_Party/FreeRTOS/Source/stream_buffer.c ****  * prvReadBytesFromBuffer() is called to actually extract the bytes from the
 175:Middlewares/Third_Party/FreeRTOS/Source/stream_buffer.c ****  * buffer's data storage area.
 176:Middlewares/Third_Party/FreeRTOS/Source/stream_buffer.c ****  */
 177:Middlewares/Third_Party/FreeRTOS/Source/stream_buffer.c **** static size_t prvReadMessageFromBuffer( StreamBuffer_t *pxStreamBuffer,
 178:Middlewares/Third_Party/FreeRTOS/Source/stream_buffer.c **** 										void *pvRxData,
 179:Middlewares/Third_Party/FreeRTOS/Source/stream_buffer.c **** 										size_t xBufferLengthBytes,
 180:Middlewares/Third_Party/FreeRTOS/Source/stream_buffer.c **** 										size_t xBytesAvailable,
 181:Middlewares/Third_Party/FreeRTOS/Source/stream_buffer.c **** 										size_t xBytesToStoreMessageLength ) PRIVILEGED_FUNCTION;
 182:Middlewares/Third_Party/FreeRTOS/Source/stream_buffer.c **** 
 183:Middlewares/Third_Party/FreeRTOS/Source/stream_buffer.c **** /*
 184:Middlewares/Third_Party/FreeRTOS/Source/stream_buffer.c ****  * If the stream buffer is being used as a message buffer, then writes an entire
 185:Middlewares/Third_Party/FreeRTOS/Source/stream_buffer.c ****  * message to the buffer.  If the stream buffer is being used as a stream
 186:Middlewares/Third_Party/FreeRTOS/Source/stream_buffer.c ****  * buffer then write as many bytes as possible to the buffer.
 187:Middlewares/Third_Party/FreeRTOS/Source/stream_buffer.c ****  * prvWriteBytestoBuffer() is called to actually send the bytes to the buffer's
 188:Middlewares/Third_Party/FreeRTOS/Source/stream_buffer.c ****  * data storage area.
 189:Middlewares/Third_Party/FreeRTOS/Source/stream_buffer.c ****  */
 190:Middlewares/Third_Party/FreeRTOS/Source/stream_buffer.c **** static size_t prvWriteMessageToBuffer(  StreamBuffer_t * const pxStreamBuffer,
 191:Middlewares/Third_Party/FreeRTOS/Source/stream_buffer.c **** 										const void * pvTxData,
 192:Middlewares/Third_Party/FreeRTOS/Source/stream_buffer.c **** 										size_t xDataLengthBytes,
 193:Middlewares/Third_Party/FreeRTOS/Source/stream_buffer.c **** 										size_t xSpace,
 194:Middlewares/Third_Party/FreeRTOS/Source/stream_buffer.c **** 										size_t xRequiredSpace ) PRIVILEGED_FUNCTION;
 195:Middlewares/Third_Party/FreeRTOS/Source/stream_buffer.c **** 
 196:Middlewares/Third_Party/FreeRTOS/Source/stream_buffer.c **** /*
 197:Middlewares/Third_Party/FreeRTOS/Source/stream_buffer.c ****  * Read xMaxCount bytes from the pxStreamBuffer message buffer and write them
 198:Middlewares/Third_Party/FreeRTOS/Source/stream_buffer.c ****  * to pucData.
 199:Middlewares/Third_Party/FreeRTOS/Source/stream_buffer.c ****  */
 200:Middlewares/Third_Party/FreeRTOS/Source/stream_buffer.c **** static size_t prvReadBytesFromBuffer( StreamBuffer_t *pxStreamBuffer,
 201:Middlewares/Third_Party/FreeRTOS/Source/stream_buffer.c **** 									  uint8_t *pucData,
 202:Middlewares/Third_Party/FreeRTOS/Source/stream_buffer.c **** 									  size_t xMaxCount,
 203:Middlewares/Third_Party/FreeRTOS/Source/stream_buffer.c **** 									  size_t xBytesAvailable ) PRIVILEGED_FUNCTION;
ARM GAS  /tmp/cc9Iu9BV.s 			page 5


 204:Middlewares/Third_Party/FreeRTOS/Source/stream_buffer.c **** 
 205:Middlewares/Third_Party/FreeRTOS/Source/stream_buffer.c **** /*
 206:Middlewares/Third_Party/FreeRTOS/Source/stream_buffer.c ****  * Called by both pxStreamBufferCreate() and pxStreamBufferCreateStatic() to
 207:Middlewares/Third_Party/FreeRTOS/Source/stream_buffer.c ****  * initialise the members of the newly created stream buffer structure.
 208:Middlewares/Third_Party/FreeRTOS/Source/stream_buffer.c ****  */
 209:Middlewares/Third_Party/FreeRTOS/Source/stream_buffer.c **** static void prvInitialiseNewStreamBuffer( StreamBuffer_t * const pxStreamBuffer,
 210:Middlewares/Third_Party/FreeRTOS/Source/stream_buffer.c **** 										  uint8_t * const pucBuffer,
 211:Middlewares/Third_Party/FreeRTOS/Source/stream_buffer.c **** 										  size_t xBufferSizeBytes,
 212:Middlewares/Third_Party/FreeRTOS/Source/stream_buffer.c **** 										  size_t xTriggerLevelBytes,
 213:Middlewares/Third_Party/FreeRTOS/Source/stream_buffer.c **** 										  uint8_t ucFlags ) PRIVILEGED_FUNCTION;
 214:Middlewares/Third_Party/FreeRTOS/Source/stream_buffer.c **** 
 215:Middlewares/Third_Party/FreeRTOS/Source/stream_buffer.c **** /*-----------------------------------------------------------*/
 216:Middlewares/Third_Party/FreeRTOS/Source/stream_buffer.c **** 
 217:Middlewares/Third_Party/FreeRTOS/Source/stream_buffer.c **** #if( configSUPPORT_DYNAMIC_ALLOCATION == 1 )
 218:Middlewares/Third_Party/FreeRTOS/Source/stream_buffer.c **** 
 219:Middlewares/Third_Party/FreeRTOS/Source/stream_buffer.c **** 	StreamBufferHandle_t xStreamBufferGenericCreate( size_t xBufferSizeBytes, size_t xTriggerLevelByte
 220:Middlewares/Third_Party/FreeRTOS/Source/stream_buffer.c **** 	{
 221:Middlewares/Third_Party/FreeRTOS/Source/stream_buffer.c **** 	uint8_t *pucAllocatedMemory;
 222:Middlewares/Third_Party/FreeRTOS/Source/stream_buffer.c **** 	uint8_t ucFlags;
 223:Middlewares/Third_Party/FreeRTOS/Source/stream_buffer.c **** 
 224:Middlewares/Third_Party/FreeRTOS/Source/stream_buffer.c **** 		/* In case the stream buffer is going to be used as a message buffer
 225:Middlewares/Third_Party/FreeRTOS/Source/stream_buffer.c **** 		(that is, it will hold discrete messages with a little meta data that
 226:Middlewares/Third_Party/FreeRTOS/Source/stream_buffer.c **** 		says how big the next message is) check the buffer will be large enough
 227:Middlewares/Third_Party/FreeRTOS/Source/stream_buffer.c **** 		to hold at least one message. */
 228:Middlewares/Third_Party/FreeRTOS/Source/stream_buffer.c **** 		if( xIsMessageBuffer == pdTRUE )
 229:Middlewares/Third_Party/FreeRTOS/Source/stream_buffer.c **** 		{
 230:Middlewares/Third_Party/FreeRTOS/Source/stream_buffer.c **** 			/* Is a message buffer but not statically allocated. */
 231:Middlewares/Third_Party/FreeRTOS/Source/stream_buffer.c **** 			ucFlags = sbFLAGS_IS_MESSAGE_BUFFER;
 232:Middlewares/Third_Party/FreeRTOS/Source/stream_buffer.c **** 			configASSERT( xBufferSizeBytes > sbBYTES_TO_STORE_MESSAGE_LENGTH );
 233:Middlewares/Third_Party/FreeRTOS/Source/stream_buffer.c **** 		}
 234:Middlewares/Third_Party/FreeRTOS/Source/stream_buffer.c **** 		else
 235:Middlewares/Third_Party/FreeRTOS/Source/stream_buffer.c **** 		{
 236:Middlewares/Third_Party/FreeRTOS/Source/stream_buffer.c **** 			/* Not a message buffer and not statically allocated. */
 237:Middlewares/Third_Party/FreeRTOS/Source/stream_buffer.c **** 			ucFlags = 0;
 238:Middlewares/Third_Party/FreeRTOS/Source/stream_buffer.c **** 			configASSERT( xBufferSizeBytes > 0 );
 239:Middlewares/Third_Party/FreeRTOS/Source/stream_buffer.c **** 		}
 240:Middlewares/Third_Party/FreeRTOS/Source/stream_buffer.c **** 		configASSERT( xTriggerLevelBytes <= xBufferSizeBytes );
 241:Middlewares/Third_Party/FreeRTOS/Source/stream_buffer.c **** 
 242:Middlewares/Third_Party/FreeRTOS/Source/stream_buffer.c **** 		/* A trigger level of 0 would cause a waiting task to unblock even when
 243:Middlewares/Third_Party/FreeRTOS/Source/stream_buffer.c **** 		the buffer was empty. */
 244:Middlewares/Third_Party/FreeRTOS/Source/stream_buffer.c **** 		if( xTriggerLevelBytes == ( size_t ) 0 )
 245:Middlewares/Third_Party/FreeRTOS/Source/stream_buffer.c **** 		{
 246:Middlewares/Third_Party/FreeRTOS/Source/stream_buffer.c **** 			xTriggerLevelBytes = ( size_t ) 1;
 247:Middlewares/Third_Party/FreeRTOS/Source/stream_buffer.c **** 		}
 248:Middlewares/Third_Party/FreeRTOS/Source/stream_buffer.c **** 
 249:Middlewares/Third_Party/FreeRTOS/Source/stream_buffer.c **** 		/* A stream buffer requires a StreamBuffer_t structure and a buffer.
 250:Middlewares/Third_Party/FreeRTOS/Source/stream_buffer.c **** 		Both are allocated in a single call to pvPortMalloc().  The
 251:Middlewares/Third_Party/FreeRTOS/Source/stream_buffer.c **** 		StreamBuffer_t structure is placed at the start of the allocated memory
 252:Middlewares/Third_Party/FreeRTOS/Source/stream_buffer.c **** 		and the buffer follows immediately after.  The requested size is
 253:Middlewares/Third_Party/FreeRTOS/Source/stream_buffer.c **** 		incremented so the free space is returned as the user would expect -
 254:Middlewares/Third_Party/FreeRTOS/Source/stream_buffer.c **** 		this is a quirk of the implementation that means otherwise the free
 255:Middlewares/Third_Party/FreeRTOS/Source/stream_buffer.c **** 		space would be reported as one byte smaller than would be logically
 256:Middlewares/Third_Party/FreeRTOS/Source/stream_buffer.c **** 		expected. */
 257:Middlewares/Third_Party/FreeRTOS/Source/stream_buffer.c **** 		xBufferSizeBytes++;
 258:Middlewares/Third_Party/FreeRTOS/Source/stream_buffer.c **** 		pucAllocatedMemory = ( uint8_t * ) pvPortMalloc( xBufferSizeBytes + sizeof( StreamBuffer_t ) ); /
 259:Middlewares/Third_Party/FreeRTOS/Source/stream_buffer.c **** 
 260:Middlewares/Third_Party/FreeRTOS/Source/stream_buffer.c **** 		if( pucAllocatedMemory != NULL )
ARM GAS  /tmp/cc9Iu9BV.s 			page 6


 261:Middlewares/Third_Party/FreeRTOS/Source/stream_buffer.c **** 		{
 262:Middlewares/Third_Party/FreeRTOS/Source/stream_buffer.c **** 			prvInitialiseNewStreamBuffer( ( StreamBuffer_t * ) pucAllocatedMemory, /* Structure at the start
 263:Middlewares/Third_Party/FreeRTOS/Source/stream_buffer.c **** 										   pucAllocatedMemory + sizeof( StreamBuffer_t ),  /* Storage area follows. */ /*lint !e9
 264:Middlewares/Third_Party/FreeRTOS/Source/stream_buffer.c **** 										   xBufferSizeBytes,
 265:Middlewares/Third_Party/FreeRTOS/Source/stream_buffer.c **** 										   xTriggerLevelBytes,
 266:Middlewares/Third_Party/FreeRTOS/Source/stream_buffer.c **** 										   ucFlags );
 267:Middlewares/Third_Party/FreeRTOS/Source/stream_buffer.c **** 
 268:Middlewares/Third_Party/FreeRTOS/Source/stream_buffer.c **** 			traceSTREAM_BUFFER_CREATE( ( ( StreamBuffer_t * ) pucAllocatedMemory ), xIsMessageBuffer );
 269:Middlewares/Third_Party/FreeRTOS/Source/stream_buffer.c **** 		}
 270:Middlewares/Third_Party/FreeRTOS/Source/stream_buffer.c **** 		else
 271:Middlewares/Third_Party/FreeRTOS/Source/stream_buffer.c **** 		{
 272:Middlewares/Third_Party/FreeRTOS/Source/stream_buffer.c **** 			traceSTREAM_BUFFER_CREATE_FAILED( xIsMessageBuffer );
 273:Middlewares/Third_Party/FreeRTOS/Source/stream_buffer.c **** 		}
 274:Middlewares/Third_Party/FreeRTOS/Source/stream_buffer.c **** 
 275:Middlewares/Third_Party/FreeRTOS/Source/stream_buffer.c **** 		return ( StreamBufferHandle_t ) pucAllocatedMemory; /*lint !e9087 !e826 Safe cast as allocated me
 276:Middlewares/Third_Party/FreeRTOS/Source/stream_buffer.c **** 	}
 277:Middlewares/Third_Party/FreeRTOS/Source/stream_buffer.c **** 
 278:Middlewares/Third_Party/FreeRTOS/Source/stream_buffer.c **** #endif /* configSUPPORT_DYNAMIC_ALLOCATION */
 279:Middlewares/Third_Party/FreeRTOS/Source/stream_buffer.c **** /*-----------------------------------------------------------*/
 280:Middlewares/Third_Party/FreeRTOS/Source/stream_buffer.c **** 
 281:Middlewares/Third_Party/FreeRTOS/Source/stream_buffer.c **** #if( configSUPPORT_STATIC_ALLOCATION == 1 )
 282:Middlewares/Third_Party/FreeRTOS/Source/stream_buffer.c **** 
 283:Middlewares/Third_Party/FreeRTOS/Source/stream_buffer.c **** 	StreamBufferHandle_t xStreamBufferGenericCreateStatic( size_t xBufferSizeBytes,
 284:Middlewares/Third_Party/FreeRTOS/Source/stream_buffer.c **** 														   size_t xTriggerLevelBytes,
 285:Middlewares/Third_Party/FreeRTOS/Source/stream_buffer.c **** 														   BaseType_t xIsMessageBuffer,
 286:Middlewares/Third_Party/FreeRTOS/Source/stream_buffer.c **** 														   uint8_t * const pucStreamBufferStorageArea,
 287:Middlewares/Third_Party/FreeRTOS/Source/stream_buffer.c **** 														   StaticStreamBuffer_t * const pxStaticStreamBuffer )
 288:Middlewares/Third_Party/FreeRTOS/Source/stream_buffer.c **** 	{
 289:Middlewares/Third_Party/FreeRTOS/Source/stream_buffer.c **** 	StreamBuffer_t * const pxStreamBuffer = ( StreamBuffer_t * ) pxStaticStreamBuffer; /*lint !e740 !e
 290:Middlewares/Third_Party/FreeRTOS/Source/stream_buffer.c **** 	StreamBufferHandle_t xReturn;
 291:Middlewares/Third_Party/FreeRTOS/Source/stream_buffer.c **** 	uint8_t ucFlags;
 292:Middlewares/Third_Party/FreeRTOS/Source/stream_buffer.c **** 
 293:Middlewares/Third_Party/FreeRTOS/Source/stream_buffer.c **** 		configASSERT( pucStreamBufferStorageArea );
 294:Middlewares/Third_Party/FreeRTOS/Source/stream_buffer.c **** 		configASSERT( pxStaticStreamBuffer );
 295:Middlewares/Third_Party/FreeRTOS/Source/stream_buffer.c **** 		configASSERT( xTriggerLevelBytes <= xBufferSizeBytes );
 296:Middlewares/Third_Party/FreeRTOS/Source/stream_buffer.c **** 
 297:Middlewares/Third_Party/FreeRTOS/Source/stream_buffer.c **** 		/* A trigger level of 0 would cause a waiting task to unblock even when
 298:Middlewares/Third_Party/FreeRTOS/Source/stream_buffer.c **** 		the buffer was empty. */
 299:Middlewares/Third_Party/FreeRTOS/Source/stream_buffer.c **** 		if( xTriggerLevelBytes == ( size_t ) 0 )
 300:Middlewares/Third_Party/FreeRTOS/Source/stream_buffer.c **** 		{
 301:Middlewares/Third_Party/FreeRTOS/Source/stream_buffer.c **** 			xTriggerLevelBytes = ( size_t ) 1;
 302:Middlewares/Third_Party/FreeRTOS/Source/stream_buffer.c **** 		}
 303:Middlewares/Third_Party/FreeRTOS/Source/stream_buffer.c **** 
 304:Middlewares/Third_Party/FreeRTOS/Source/stream_buffer.c **** 		if( xIsMessageBuffer != pdFALSE )
 305:Middlewares/Third_Party/FreeRTOS/Source/stream_buffer.c **** 		{
 306:Middlewares/Third_Party/FreeRTOS/Source/stream_buffer.c **** 			/* Statically allocated message buffer. */
 307:Middlewares/Third_Party/FreeRTOS/Source/stream_buffer.c **** 			ucFlags = sbFLAGS_IS_MESSAGE_BUFFER | sbFLAGS_IS_STATICALLY_ALLOCATED;
 308:Middlewares/Third_Party/FreeRTOS/Source/stream_buffer.c **** 		}
 309:Middlewares/Third_Party/FreeRTOS/Source/stream_buffer.c **** 		else
 310:Middlewares/Third_Party/FreeRTOS/Source/stream_buffer.c **** 		{
 311:Middlewares/Third_Party/FreeRTOS/Source/stream_buffer.c **** 			/* Statically allocated stream buffer. */
 312:Middlewares/Third_Party/FreeRTOS/Source/stream_buffer.c **** 			ucFlags = sbFLAGS_IS_STATICALLY_ALLOCATED;
 313:Middlewares/Third_Party/FreeRTOS/Source/stream_buffer.c **** 		}
 314:Middlewares/Third_Party/FreeRTOS/Source/stream_buffer.c **** 
 315:Middlewares/Third_Party/FreeRTOS/Source/stream_buffer.c **** 		/* In case the stream buffer is going to be used as a message buffer
 316:Middlewares/Third_Party/FreeRTOS/Source/stream_buffer.c **** 		(that is, it will hold discrete messages with a little meta data that
 317:Middlewares/Third_Party/FreeRTOS/Source/stream_buffer.c **** 		says how big the next message is) check the buffer will be large enough
ARM GAS  /tmp/cc9Iu9BV.s 			page 7


 318:Middlewares/Third_Party/FreeRTOS/Source/stream_buffer.c **** 		to hold at least one message. */
 319:Middlewares/Third_Party/FreeRTOS/Source/stream_buffer.c **** 		configASSERT( xBufferSizeBytes > sbBYTES_TO_STORE_MESSAGE_LENGTH );
 320:Middlewares/Third_Party/FreeRTOS/Source/stream_buffer.c **** 
 321:Middlewares/Third_Party/FreeRTOS/Source/stream_buffer.c **** 		#if( configASSERT_DEFINED == 1 )
 322:Middlewares/Third_Party/FreeRTOS/Source/stream_buffer.c **** 		{
 323:Middlewares/Third_Party/FreeRTOS/Source/stream_buffer.c **** 			/* Sanity check that the size of the structure used to declare a
 324:Middlewares/Third_Party/FreeRTOS/Source/stream_buffer.c **** 			variable of type StaticStreamBuffer_t equals the size of the real
 325:Middlewares/Third_Party/FreeRTOS/Source/stream_buffer.c **** 			message buffer structure. */
 326:Middlewares/Third_Party/FreeRTOS/Source/stream_buffer.c **** 			volatile size_t xSize = sizeof( StaticStreamBuffer_t );
 327:Middlewares/Third_Party/FreeRTOS/Source/stream_buffer.c **** 			configASSERT( xSize == sizeof( StreamBuffer_t ) );
 328:Middlewares/Third_Party/FreeRTOS/Source/stream_buffer.c **** 		} /*lint !e529 xSize is referenced is configASSERT() is defined. */
 329:Middlewares/Third_Party/FreeRTOS/Source/stream_buffer.c **** 		#endif /* configASSERT_DEFINED */
 330:Middlewares/Third_Party/FreeRTOS/Source/stream_buffer.c **** 
 331:Middlewares/Third_Party/FreeRTOS/Source/stream_buffer.c **** 		if( ( pucStreamBufferStorageArea != NULL ) && ( pxStaticStreamBuffer != NULL ) )
 332:Middlewares/Third_Party/FreeRTOS/Source/stream_buffer.c **** 		{
 333:Middlewares/Third_Party/FreeRTOS/Source/stream_buffer.c **** 			prvInitialiseNewStreamBuffer( pxStreamBuffer,
 334:Middlewares/Third_Party/FreeRTOS/Source/stream_buffer.c **** 										  pucStreamBufferStorageArea,
 335:Middlewares/Third_Party/FreeRTOS/Source/stream_buffer.c **** 										  xBufferSizeBytes,
 336:Middlewares/Third_Party/FreeRTOS/Source/stream_buffer.c **** 										  xTriggerLevelBytes,
 337:Middlewares/Third_Party/FreeRTOS/Source/stream_buffer.c **** 										  ucFlags );
 338:Middlewares/Third_Party/FreeRTOS/Source/stream_buffer.c **** 
 339:Middlewares/Third_Party/FreeRTOS/Source/stream_buffer.c **** 			/* Remember this was statically allocated in case it is ever deleted
 340:Middlewares/Third_Party/FreeRTOS/Source/stream_buffer.c **** 			again. */
 341:Middlewares/Third_Party/FreeRTOS/Source/stream_buffer.c **** 			pxStreamBuffer->ucFlags |= sbFLAGS_IS_STATICALLY_ALLOCATED;
 342:Middlewares/Third_Party/FreeRTOS/Source/stream_buffer.c **** 
 343:Middlewares/Third_Party/FreeRTOS/Source/stream_buffer.c **** 			traceSTREAM_BUFFER_CREATE( pxStreamBuffer, xIsMessageBuffer );
 344:Middlewares/Third_Party/FreeRTOS/Source/stream_buffer.c **** 
 345:Middlewares/Third_Party/FreeRTOS/Source/stream_buffer.c **** 			xReturn = ( StreamBufferHandle_t ) pxStaticStreamBuffer; /*lint !e9087 Data hiding requires cast
 346:Middlewares/Third_Party/FreeRTOS/Source/stream_buffer.c **** 		}
 347:Middlewares/Third_Party/FreeRTOS/Source/stream_buffer.c **** 		else
 348:Middlewares/Third_Party/FreeRTOS/Source/stream_buffer.c **** 		{
 349:Middlewares/Third_Party/FreeRTOS/Source/stream_buffer.c **** 			xReturn = NULL;
 350:Middlewares/Third_Party/FreeRTOS/Source/stream_buffer.c **** 			traceSTREAM_BUFFER_CREATE_STATIC_FAILED( xReturn, xIsMessageBuffer );
 351:Middlewares/Third_Party/FreeRTOS/Source/stream_buffer.c **** 		}
 352:Middlewares/Third_Party/FreeRTOS/Source/stream_buffer.c **** 
 353:Middlewares/Third_Party/FreeRTOS/Source/stream_buffer.c **** 		return xReturn;
 354:Middlewares/Third_Party/FreeRTOS/Source/stream_buffer.c **** 	}
 355:Middlewares/Third_Party/FreeRTOS/Source/stream_buffer.c **** 
 356:Middlewares/Third_Party/FreeRTOS/Source/stream_buffer.c **** #endif /* ( configSUPPORT_STATIC_ALLOCATION == 1 ) */
 357:Middlewares/Third_Party/FreeRTOS/Source/stream_buffer.c **** /*-----------------------------------------------------------*/
 358:Middlewares/Third_Party/FreeRTOS/Source/stream_buffer.c **** 
 359:Middlewares/Third_Party/FreeRTOS/Source/stream_buffer.c **** void vStreamBufferDelete( StreamBufferHandle_t xStreamBuffer )
 360:Middlewares/Third_Party/FreeRTOS/Source/stream_buffer.c **** {
 361:Middlewares/Third_Party/FreeRTOS/Source/stream_buffer.c **** StreamBuffer_t * pxStreamBuffer = xStreamBuffer;
 362:Middlewares/Third_Party/FreeRTOS/Source/stream_buffer.c **** 
 363:Middlewares/Third_Party/FreeRTOS/Source/stream_buffer.c **** 	configASSERT( pxStreamBuffer );
 364:Middlewares/Third_Party/FreeRTOS/Source/stream_buffer.c **** 
 365:Middlewares/Third_Party/FreeRTOS/Source/stream_buffer.c **** 	traceSTREAM_BUFFER_DELETE( xStreamBuffer );
 366:Middlewares/Third_Party/FreeRTOS/Source/stream_buffer.c **** 
 367:Middlewares/Third_Party/FreeRTOS/Source/stream_buffer.c **** 	if( ( pxStreamBuffer->ucFlags & sbFLAGS_IS_STATICALLY_ALLOCATED ) == ( uint8_t ) pdFALSE )
 368:Middlewares/Third_Party/FreeRTOS/Source/stream_buffer.c **** 	{
 369:Middlewares/Third_Party/FreeRTOS/Source/stream_buffer.c **** 		#if( configSUPPORT_DYNAMIC_ALLOCATION == 1 )
 370:Middlewares/Third_Party/FreeRTOS/Source/stream_buffer.c **** 		{
 371:Middlewares/Third_Party/FreeRTOS/Source/stream_buffer.c **** 			/* Both the structure and the buffer were allocated using a single call
 372:Middlewares/Third_Party/FreeRTOS/Source/stream_buffer.c **** 			to pvPortMalloc(), hence only one call to vPortFree() is required. */
 373:Middlewares/Third_Party/FreeRTOS/Source/stream_buffer.c **** 			vPortFree( ( void * ) pxStreamBuffer ); /*lint !e9087 Standard free() semantics require void *, 
 374:Middlewares/Third_Party/FreeRTOS/Source/stream_buffer.c **** 		}
ARM GAS  /tmp/cc9Iu9BV.s 			page 8


 375:Middlewares/Third_Party/FreeRTOS/Source/stream_buffer.c **** 		#else
 376:Middlewares/Third_Party/FreeRTOS/Source/stream_buffer.c **** 		{
 377:Middlewares/Third_Party/FreeRTOS/Source/stream_buffer.c **** 			/* Should not be possible to get here, ucFlags must be corrupt.
 378:Middlewares/Third_Party/FreeRTOS/Source/stream_buffer.c **** 			Force an assert. */
 379:Middlewares/Third_Party/FreeRTOS/Source/stream_buffer.c **** 			configASSERT( xStreamBuffer == ( StreamBufferHandle_t ) ~0 );
 380:Middlewares/Third_Party/FreeRTOS/Source/stream_buffer.c **** 		}
 381:Middlewares/Third_Party/FreeRTOS/Source/stream_buffer.c **** 		#endif
 382:Middlewares/Third_Party/FreeRTOS/Source/stream_buffer.c **** 	}
 383:Middlewares/Third_Party/FreeRTOS/Source/stream_buffer.c **** 	else
 384:Middlewares/Third_Party/FreeRTOS/Source/stream_buffer.c **** 	{
 385:Middlewares/Third_Party/FreeRTOS/Source/stream_buffer.c **** 		/* The structure and buffer were not allocated dynamically and cannot be
 386:Middlewares/Third_Party/FreeRTOS/Source/stream_buffer.c **** 		freed - just scrub the structure so future use will assert. */
 387:Middlewares/Third_Party/FreeRTOS/Source/stream_buffer.c **** 		( void ) memset( pxStreamBuffer, 0x00, sizeof( StreamBuffer_t ) );
 388:Middlewares/Third_Party/FreeRTOS/Source/stream_buffer.c **** 	}
 389:Middlewares/Third_Party/FreeRTOS/Source/stream_buffer.c **** }
 390:Middlewares/Third_Party/FreeRTOS/Source/stream_buffer.c **** /*-----------------------------------------------------------*/
 391:Middlewares/Third_Party/FreeRTOS/Source/stream_buffer.c **** 
 392:Middlewares/Third_Party/FreeRTOS/Source/stream_buffer.c **** BaseType_t xStreamBufferReset( StreamBufferHandle_t xStreamBuffer )
 393:Middlewares/Third_Party/FreeRTOS/Source/stream_buffer.c **** {
 394:Middlewares/Third_Party/FreeRTOS/Source/stream_buffer.c **** StreamBuffer_t * const pxStreamBuffer = xStreamBuffer;
 395:Middlewares/Third_Party/FreeRTOS/Source/stream_buffer.c **** BaseType_t xReturn = pdFAIL;
 396:Middlewares/Third_Party/FreeRTOS/Source/stream_buffer.c **** 
 397:Middlewares/Third_Party/FreeRTOS/Source/stream_buffer.c **** #if( configUSE_TRACE_FACILITY == 1 )
 398:Middlewares/Third_Party/FreeRTOS/Source/stream_buffer.c **** 	UBaseType_t uxStreamBufferNumber;
 399:Middlewares/Third_Party/FreeRTOS/Source/stream_buffer.c **** #endif
 400:Middlewares/Third_Party/FreeRTOS/Source/stream_buffer.c **** 
 401:Middlewares/Third_Party/FreeRTOS/Source/stream_buffer.c **** 	configASSERT( pxStreamBuffer );
 402:Middlewares/Third_Party/FreeRTOS/Source/stream_buffer.c **** 
 403:Middlewares/Third_Party/FreeRTOS/Source/stream_buffer.c **** 	#if( configUSE_TRACE_FACILITY == 1 )
 404:Middlewares/Third_Party/FreeRTOS/Source/stream_buffer.c **** 	{
 405:Middlewares/Third_Party/FreeRTOS/Source/stream_buffer.c **** 		/* Store the stream buffer number so it can be restored after the
 406:Middlewares/Third_Party/FreeRTOS/Source/stream_buffer.c **** 		reset. */
 407:Middlewares/Third_Party/FreeRTOS/Source/stream_buffer.c **** 		uxStreamBufferNumber = pxStreamBuffer->uxStreamBufferNumber;
 408:Middlewares/Third_Party/FreeRTOS/Source/stream_buffer.c **** 	}
 409:Middlewares/Third_Party/FreeRTOS/Source/stream_buffer.c **** 	#endif
 410:Middlewares/Third_Party/FreeRTOS/Source/stream_buffer.c **** 
 411:Middlewares/Third_Party/FreeRTOS/Source/stream_buffer.c **** 	/* Can only reset a message buffer if there are no tasks blocked on it. */
 412:Middlewares/Third_Party/FreeRTOS/Source/stream_buffer.c **** 	taskENTER_CRITICAL();
 413:Middlewares/Third_Party/FreeRTOS/Source/stream_buffer.c **** 	{
 414:Middlewares/Third_Party/FreeRTOS/Source/stream_buffer.c **** 		if( pxStreamBuffer->xTaskWaitingToReceive == NULL )
 415:Middlewares/Third_Party/FreeRTOS/Source/stream_buffer.c **** 		{
 416:Middlewares/Third_Party/FreeRTOS/Source/stream_buffer.c **** 			if( pxStreamBuffer->xTaskWaitingToSend == NULL )
 417:Middlewares/Third_Party/FreeRTOS/Source/stream_buffer.c **** 			{
 418:Middlewares/Third_Party/FreeRTOS/Source/stream_buffer.c **** 				prvInitialiseNewStreamBuffer( pxStreamBuffer,
 419:Middlewares/Third_Party/FreeRTOS/Source/stream_buffer.c **** 											  pxStreamBuffer->pucBuffer,
 420:Middlewares/Third_Party/FreeRTOS/Source/stream_buffer.c **** 											  pxStreamBuffer->xLength,
 421:Middlewares/Third_Party/FreeRTOS/Source/stream_buffer.c **** 											  pxStreamBuffer->xTriggerLevelBytes,
 422:Middlewares/Third_Party/FreeRTOS/Source/stream_buffer.c **** 											  pxStreamBuffer->ucFlags );
 423:Middlewares/Third_Party/FreeRTOS/Source/stream_buffer.c **** 				xReturn = pdPASS;
 424:Middlewares/Third_Party/FreeRTOS/Source/stream_buffer.c **** 
 425:Middlewares/Third_Party/FreeRTOS/Source/stream_buffer.c **** 				#if( configUSE_TRACE_FACILITY == 1 )
 426:Middlewares/Third_Party/FreeRTOS/Source/stream_buffer.c **** 				{
 427:Middlewares/Third_Party/FreeRTOS/Source/stream_buffer.c **** 					pxStreamBuffer->uxStreamBufferNumber = uxStreamBufferNumber;
 428:Middlewares/Third_Party/FreeRTOS/Source/stream_buffer.c **** 				}
 429:Middlewares/Third_Party/FreeRTOS/Source/stream_buffer.c **** 				#endif
 430:Middlewares/Third_Party/FreeRTOS/Source/stream_buffer.c **** 
 431:Middlewares/Third_Party/FreeRTOS/Source/stream_buffer.c **** 				traceSTREAM_BUFFER_RESET( xStreamBuffer );
ARM GAS  /tmp/cc9Iu9BV.s 			page 9


 432:Middlewares/Third_Party/FreeRTOS/Source/stream_buffer.c **** 			}
 433:Middlewares/Third_Party/FreeRTOS/Source/stream_buffer.c **** 		}
 434:Middlewares/Third_Party/FreeRTOS/Source/stream_buffer.c **** 	}
 435:Middlewares/Third_Party/FreeRTOS/Source/stream_buffer.c **** 	taskEXIT_CRITICAL();
 436:Middlewares/Third_Party/FreeRTOS/Source/stream_buffer.c **** 
 437:Middlewares/Third_Party/FreeRTOS/Source/stream_buffer.c **** 	return xReturn;
 438:Middlewares/Third_Party/FreeRTOS/Source/stream_buffer.c **** }
 439:Middlewares/Third_Party/FreeRTOS/Source/stream_buffer.c **** /*-----------------------------------------------------------*/
 440:Middlewares/Third_Party/FreeRTOS/Source/stream_buffer.c **** 
 441:Middlewares/Third_Party/FreeRTOS/Source/stream_buffer.c **** BaseType_t xStreamBufferSetTriggerLevel( StreamBufferHandle_t xStreamBuffer, size_t xTriggerLevel )
 442:Middlewares/Third_Party/FreeRTOS/Source/stream_buffer.c **** {
 443:Middlewares/Third_Party/FreeRTOS/Source/stream_buffer.c **** StreamBuffer_t * const pxStreamBuffer = xStreamBuffer;
 444:Middlewares/Third_Party/FreeRTOS/Source/stream_buffer.c **** BaseType_t xReturn;
 445:Middlewares/Third_Party/FreeRTOS/Source/stream_buffer.c **** 
 446:Middlewares/Third_Party/FreeRTOS/Source/stream_buffer.c **** 	configASSERT( pxStreamBuffer );
 447:Middlewares/Third_Party/FreeRTOS/Source/stream_buffer.c **** 
 448:Middlewares/Third_Party/FreeRTOS/Source/stream_buffer.c **** 	/* It is not valid for the trigger level to be 0. */
 449:Middlewares/Third_Party/FreeRTOS/Source/stream_buffer.c **** 	if( xTriggerLevel == ( size_t ) 0 )
 450:Middlewares/Third_Party/FreeRTOS/Source/stream_buffer.c **** 	{
 451:Middlewares/Third_Party/FreeRTOS/Source/stream_buffer.c **** 		xTriggerLevel = ( size_t ) 1;
 452:Middlewares/Third_Party/FreeRTOS/Source/stream_buffer.c **** 	}
 453:Middlewares/Third_Party/FreeRTOS/Source/stream_buffer.c **** 
 454:Middlewares/Third_Party/FreeRTOS/Source/stream_buffer.c **** 	/* The trigger level is the number of bytes that must be in the stream
 455:Middlewares/Third_Party/FreeRTOS/Source/stream_buffer.c **** 	buffer before a task that is waiting for data is unblocked. */
 456:Middlewares/Third_Party/FreeRTOS/Source/stream_buffer.c **** 	if( xTriggerLevel <= pxStreamBuffer->xLength )
 457:Middlewares/Third_Party/FreeRTOS/Source/stream_buffer.c **** 	{
 458:Middlewares/Third_Party/FreeRTOS/Source/stream_buffer.c **** 		pxStreamBuffer->xTriggerLevelBytes = xTriggerLevel;
 459:Middlewares/Third_Party/FreeRTOS/Source/stream_buffer.c **** 		xReturn = pdPASS;
 460:Middlewares/Third_Party/FreeRTOS/Source/stream_buffer.c **** 	}
 461:Middlewares/Third_Party/FreeRTOS/Source/stream_buffer.c **** 	else
 462:Middlewares/Third_Party/FreeRTOS/Source/stream_buffer.c **** 	{
 463:Middlewares/Third_Party/FreeRTOS/Source/stream_buffer.c **** 		xReturn = pdFALSE;
 464:Middlewares/Third_Party/FreeRTOS/Source/stream_buffer.c **** 	}
 465:Middlewares/Third_Party/FreeRTOS/Source/stream_buffer.c **** 
 466:Middlewares/Third_Party/FreeRTOS/Source/stream_buffer.c **** 	return xReturn;
 467:Middlewares/Third_Party/FreeRTOS/Source/stream_buffer.c **** }
 468:Middlewares/Third_Party/FreeRTOS/Source/stream_buffer.c **** /*-----------------------------------------------------------*/
 469:Middlewares/Third_Party/FreeRTOS/Source/stream_buffer.c **** 
 470:Middlewares/Third_Party/FreeRTOS/Source/stream_buffer.c **** size_t xStreamBufferSpacesAvailable( StreamBufferHandle_t xStreamBuffer )
 471:Middlewares/Third_Party/FreeRTOS/Source/stream_buffer.c **** {
 472:Middlewares/Third_Party/FreeRTOS/Source/stream_buffer.c **** const StreamBuffer_t * const pxStreamBuffer = xStreamBuffer;
 473:Middlewares/Third_Party/FreeRTOS/Source/stream_buffer.c **** size_t xSpace;
 474:Middlewares/Third_Party/FreeRTOS/Source/stream_buffer.c **** 
 475:Middlewares/Third_Party/FreeRTOS/Source/stream_buffer.c **** 	configASSERT( pxStreamBuffer );
 476:Middlewares/Third_Party/FreeRTOS/Source/stream_buffer.c **** 
 477:Middlewares/Third_Party/FreeRTOS/Source/stream_buffer.c **** 	xSpace = pxStreamBuffer->xLength + pxStreamBuffer->xTail;
 478:Middlewares/Third_Party/FreeRTOS/Source/stream_buffer.c **** 	xSpace -= pxStreamBuffer->xHead;
 479:Middlewares/Third_Party/FreeRTOS/Source/stream_buffer.c **** 	xSpace -= ( size_t ) 1;
 480:Middlewares/Third_Party/FreeRTOS/Source/stream_buffer.c **** 
 481:Middlewares/Third_Party/FreeRTOS/Source/stream_buffer.c **** 	if( xSpace >= pxStreamBuffer->xLength )
 482:Middlewares/Third_Party/FreeRTOS/Source/stream_buffer.c **** 	{
 483:Middlewares/Third_Party/FreeRTOS/Source/stream_buffer.c **** 		xSpace -= pxStreamBuffer->xLength;
 484:Middlewares/Third_Party/FreeRTOS/Source/stream_buffer.c **** 	}
 485:Middlewares/Third_Party/FreeRTOS/Source/stream_buffer.c **** 	else
 486:Middlewares/Third_Party/FreeRTOS/Source/stream_buffer.c **** 	{
 487:Middlewares/Third_Party/FreeRTOS/Source/stream_buffer.c **** 		mtCOVERAGE_TEST_MARKER();
 488:Middlewares/Third_Party/FreeRTOS/Source/stream_buffer.c **** 	}
ARM GAS  /tmp/cc9Iu9BV.s 			page 10


 489:Middlewares/Third_Party/FreeRTOS/Source/stream_buffer.c **** 
 490:Middlewares/Third_Party/FreeRTOS/Source/stream_buffer.c **** 	return xSpace;
 491:Middlewares/Third_Party/FreeRTOS/Source/stream_buffer.c **** }
 492:Middlewares/Third_Party/FreeRTOS/Source/stream_buffer.c **** /*-----------------------------------------------------------*/
 493:Middlewares/Third_Party/FreeRTOS/Source/stream_buffer.c **** 
 494:Middlewares/Third_Party/FreeRTOS/Source/stream_buffer.c **** size_t xStreamBufferBytesAvailable( StreamBufferHandle_t xStreamBuffer )
 495:Middlewares/Third_Party/FreeRTOS/Source/stream_buffer.c **** {
 496:Middlewares/Third_Party/FreeRTOS/Source/stream_buffer.c **** const StreamBuffer_t * const pxStreamBuffer = xStreamBuffer;
 497:Middlewares/Third_Party/FreeRTOS/Source/stream_buffer.c **** size_t xReturn;
 498:Middlewares/Third_Party/FreeRTOS/Source/stream_buffer.c **** 
 499:Middlewares/Third_Party/FreeRTOS/Source/stream_buffer.c **** 	configASSERT( pxStreamBuffer );
 500:Middlewares/Third_Party/FreeRTOS/Source/stream_buffer.c **** 
 501:Middlewares/Third_Party/FreeRTOS/Source/stream_buffer.c **** 	xReturn = prvBytesInBuffer( pxStreamBuffer );
 502:Middlewares/Third_Party/FreeRTOS/Source/stream_buffer.c **** 	return xReturn;
 503:Middlewares/Third_Party/FreeRTOS/Source/stream_buffer.c **** }
 504:Middlewares/Third_Party/FreeRTOS/Source/stream_buffer.c **** /*-----------------------------------------------------------*/
 505:Middlewares/Third_Party/FreeRTOS/Source/stream_buffer.c **** 
 506:Middlewares/Third_Party/FreeRTOS/Source/stream_buffer.c **** size_t xStreamBufferSend( StreamBufferHandle_t xStreamBuffer,
 507:Middlewares/Third_Party/FreeRTOS/Source/stream_buffer.c **** 						  const void *pvTxData,
 508:Middlewares/Third_Party/FreeRTOS/Source/stream_buffer.c **** 						  size_t xDataLengthBytes,
 509:Middlewares/Third_Party/FreeRTOS/Source/stream_buffer.c **** 						  TickType_t xTicksToWait )
 510:Middlewares/Third_Party/FreeRTOS/Source/stream_buffer.c **** {
 511:Middlewares/Third_Party/FreeRTOS/Source/stream_buffer.c **** StreamBuffer_t * const pxStreamBuffer = xStreamBuffer;
 512:Middlewares/Third_Party/FreeRTOS/Source/stream_buffer.c **** size_t xReturn, xSpace = 0;
 513:Middlewares/Third_Party/FreeRTOS/Source/stream_buffer.c **** size_t xRequiredSpace = xDataLengthBytes;
 514:Middlewares/Third_Party/FreeRTOS/Source/stream_buffer.c **** TimeOut_t xTimeOut;
 515:Middlewares/Third_Party/FreeRTOS/Source/stream_buffer.c **** 
 516:Middlewares/Third_Party/FreeRTOS/Source/stream_buffer.c **** 	configASSERT( pvTxData );
 517:Middlewares/Third_Party/FreeRTOS/Source/stream_buffer.c **** 	configASSERT( pxStreamBuffer );
 518:Middlewares/Third_Party/FreeRTOS/Source/stream_buffer.c **** 
 519:Middlewares/Third_Party/FreeRTOS/Source/stream_buffer.c **** 	/* This send function is used to write to both message buffers and stream
 520:Middlewares/Third_Party/FreeRTOS/Source/stream_buffer.c **** 	buffers.  If this is a message buffer then the space needed must be
 521:Middlewares/Third_Party/FreeRTOS/Source/stream_buffer.c **** 	increased by the amount of bytes needed to store the length of the
 522:Middlewares/Third_Party/FreeRTOS/Source/stream_buffer.c **** 	message. */
 523:Middlewares/Third_Party/FreeRTOS/Source/stream_buffer.c **** 	if( ( pxStreamBuffer->ucFlags & sbFLAGS_IS_MESSAGE_BUFFER ) != ( uint8_t ) 0 )
 524:Middlewares/Third_Party/FreeRTOS/Source/stream_buffer.c **** 	{
 525:Middlewares/Third_Party/FreeRTOS/Source/stream_buffer.c **** 		xRequiredSpace += sbBYTES_TO_STORE_MESSAGE_LENGTH;
 526:Middlewares/Third_Party/FreeRTOS/Source/stream_buffer.c **** 
 527:Middlewares/Third_Party/FreeRTOS/Source/stream_buffer.c **** 		/* Overflow? */
 528:Middlewares/Third_Party/FreeRTOS/Source/stream_buffer.c **** 		configASSERT( xRequiredSpace > xDataLengthBytes );
 529:Middlewares/Third_Party/FreeRTOS/Source/stream_buffer.c **** 	}
 530:Middlewares/Third_Party/FreeRTOS/Source/stream_buffer.c **** 	else
 531:Middlewares/Third_Party/FreeRTOS/Source/stream_buffer.c **** 	{
 532:Middlewares/Third_Party/FreeRTOS/Source/stream_buffer.c **** 		mtCOVERAGE_TEST_MARKER();
 533:Middlewares/Third_Party/FreeRTOS/Source/stream_buffer.c **** 	}
 534:Middlewares/Third_Party/FreeRTOS/Source/stream_buffer.c **** 
 535:Middlewares/Third_Party/FreeRTOS/Source/stream_buffer.c **** 	if( xTicksToWait != ( TickType_t ) 0 )
 536:Middlewares/Third_Party/FreeRTOS/Source/stream_buffer.c **** 	{
 537:Middlewares/Third_Party/FreeRTOS/Source/stream_buffer.c **** 		vTaskSetTimeOutState( &xTimeOut );
 538:Middlewares/Third_Party/FreeRTOS/Source/stream_buffer.c **** 
 539:Middlewares/Third_Party/FreeRTOS/Source/stream_buffer.c **** 		do
 540:Middlewares/Third_Party/FreeRTOS/Source/stream_buffer.c **** 		{
 541:Middlewares/Third_Party/FreeRTOS/Source/stream_buffer.c **** 			/* Wait until the required number of bytes are free in the message
 542:Middlewares/Third_Party/FreeRTOS/Source/stream_buffer.c **** 			buffer. */
 543:Middlewares/Third_Party/FreeRTOS/Source/stream_buffer.c **** 			taskENTER_CRITICAL();
 544:Middlewares/Third_Party/FreeRTOS/Source/stream_buffer.c **** 			{
 545:Middlewares/Third_Party/FreeRTOS/Source/stream_buffer.c **** 				xSpace = xStreamBufferSpacesAvailable( pxStreamBuffer );
ARM GAS  /tmp/cc9Iu9BV.s 			page 11


 546:Middlewares/Third_Party/FreeRTOS/Source/stream_buffer.c **** 
 547:Middlewares/Third_Party/FreeRTOS/Source/stream_buffer.c **** 				if( xSpace < xRequiredSpace )
 548:Middlewares/Third_Party/FreeRTOS/Source/stream_buffer.c **** 				{
 549:Middlewares/Third_Party/FreeRTOS/Source/stream_buffer.c **** 					/* Clear notification state as going to wait for space. */
 550:Middlewares/Third_Party/FreeRTOS/Source/stream_buffer.c **** 					( void ) xTaskNotifyStateClear( NULL );
 551:Middlewares/Third_Party/FreeRTOS/Source/stream_buffer.c **** 
 552:Middlewares/Third_Party/FreeRTOS/Source/stream_buffer.c **** 					/* Should only be one writer. */
 553:Middlewares/Third_Party/FreeRTOS/Source/stream_buffer.c **** 					configASSERT( pxStreamBuffer->xTaskWaitingToSend == NULL );
 554:Middlewares/Third_Party/FreeRTOS/Source/stream_buffer.c **** 					pxStreamBuffer->xTaskWaitingToSend = xTaskGetCurrentTaskHandle();
 555:Middlewares/Third_Party/FreeRTOS/Source/stream_buffer.c **** 				}
 556:Middlewares/Third_Party/FreeRTOS/Source/stream_buffer.c **** 				else
 557:Middlewares/Third_Party/FreeRTOS/Source/stream_buffer.c **** 				{
 558:Middlewares/Third_Party/FreeRTOS/Source/stream_buffer.c **** 					taskEXIT_CRITICAL();
 559:Middlewares/Third_Party/FreeRTOS/Source/stream_buffer.c **** 					break;
 560:Middlewares/Third_Party/FreeRTOS/Source/stream_buffer.c **** 				}
 561:Middlewares/Third_Party/FreeRTOS/Source/stream_buffer.c **** 			}
 562:Middlewares/Third_Party/FreeRTOS/Source/stream_buffer.c **** 			taskEXIT_CRITICAL();
 563:Middlewares/Third_Party/FreeRTOS/Source/stream_buffer.c **** 
 564:Middlewares/Third_Party/FreeRTOS/Source/stream_buffer.c **** 			traceBLOCKING_ON_STREAM_BUFFER_SEND( xStreamBuffer );
 565:Middlewares/Third_Party/FreeRTOS/Source/stream_buffer.c **** 			( void ) xTaskNotifyWait( ( uint32_t ) 0, ( uint32_t ) 0, NULL, xTicksToWait );
 566:Middlewares/Third_Party/FreeRTOS/Source/stream_buffer.c **** 			pxStreamBuffer->xTaskWaitingToSend = NULL;
 567:Middlewares/Third_Party/FreeRTOS/Source/stream_buffer.c **** 
 568:Middlewares/Third_Party/FreeRTOS/Source/stream_buffer.c **** 		} while( xTaskCheckForTimeOut( &xTimeOut, &xTicksToWait ) == pdFALSE );
 569:Middlewares/Third_Party/FreeRTOS/Source/stream_buffer.c **** 	}
 570:Middlewares/Third_Party/FreeRTOS/Source/stream_buffer.c **** 	else
 571:Middlewares/Third_Party/FreeRTOS/Source/stream_buffer.c **** 	{
 572:Middlewares/Third_Party/FreeRTOS/Source/stream_buffer.c **** 		mtCOVERAGE_TEST_MARKER();
 573:Middlewares/Third_Party/FreeRTOS/Source/stream_buffer.c **** 	}
 574:Middlewares/Third_Party/FreeRTOS/Source/stream_buffer.c **** 
 575:Middlewares/Third_Party/FreeRTOS/Source/stream_buffer.c **** 	if( xSpace == ( size_t ) 0 )
 576:Middlewares/Third_Party/FreeRTOS/Source/stream_buffer.c **** 	{
 577:Middlewares/Third_Party/FreeRTOS/Source/stream_buffer.c **** 		xSpace = xStreamBufferSpacesAvailable( pxStreamBuffer );
 578:Middlewares/Third_Party/FreeRTOS/Source/stream_buffer.c **** 	}
 579:Middlewares/Third_Party/FreeRTOS/Source/stream_buffer.c **** 	else
 580:Middlewares/Third_Party/FreeRTOS/Source/stream_buffer.c **** 	{
 581:Middlewares/Third_Party/FreeRTOS/Source/stream_buffer.c **** 		mtCOVERAGE_TEST_MARKER();
 582:Middlewares/Third_Party/FreeRTOS/Source/stream_buffer.c **** 	}
 583:Middlewares/Third_Party/FreeRTOS/Source/stream_buffer.c **** 
 584:Middlewares/Third_Party/FreeRTOS/Source/stream_buffer.c **** 	xReturn = prvWriteMessageToBuffer( pxStreamBuffer, pvTxData, xDataLengthBytes, xSpace, xRequiredSp
 585:Middlewares/Third_Party/FreeRTOS/Source/stream_buffer.c **** 
 586:Middlewares/Third_Party/FreeRTOS/Source/stream_buffer.c **** 	if( xReturn > ( size_t ) 0 )
 587:Middlewares/Third_Party/FreeRTOS/Source/stream_buffer.c **** 	{
 588:Middlewares/Third_Party/FreeRTOS/Source/stream_buffer.c **** 		traceSTREAM_BUFFER_SEND( xStreamBuffer, xReturn );
 589:Middlewares/Third_Party/FreeRTOS/Source/stream_buffer.c **** 
 590:Middlewares/Third_Party/FreeRTOS/Source/stream_buffer.c **** 		/* Was a task waiting for the data? */
 591:Middlewares/Third_Party/FreeRTOS/Source/stream_buffer.c **** 		if( prvBytesInBuffer( pxStreamBuffer ) >= pxStreamBuffer->xTriggerLevelBytes )
 592:Middlewares/Third_Party/FreeRTOS/Source/stream_buffer.c **** 		{
 593:Middlewares/Third_Party/FreeRTOS/Source/stream_buffer.c **** 			sbSEND_COMPLETED( pxStreamBuffer );
 594:Middlewares/Third_Party/FreeRTOS/Source/stream_buffer.c **** 		}
 595:Middlewares/Third_Party/FreeRTOS/Source/stream_buffer.c **** 		else
 596:Middlewares/Third_Party/FreeRTOS/Source/stream_buffer.c **** 		{
 597:Middlewares/Third_Party/FreeRTOS/Source/stream_buffer.c **** 			mtCOVERAGE_TEST_MARKER();
 598:Middlewares/Third_Party/FreeRTOS/Source/stream_buffer.c **** 		}
 599:Middlewares/Third_Party/FreeRTOS/Source/stream_buffer.c **** 	}
 600:Middlewares/Third_Party/FreeRTOS/Source/stream_buffer.c **** 	else
 601:Middlewares/Third_Party/FreeRTOS/Source/stream_buffer.c **** 	{
 602:Middlewares/Third_Party/FreeRTOS/Source/stream_buffer.c **** 		mtCOVERAGE_TEST_MARKER();
ARM GAS  /tmp/cc9Iu9BV.s 			page 12


 603:Middlewares/Third_Party/FreeRTOS/Source/stream_buffer.c **** 		traceSTREAM_BUFFER_SEND_FAILED( xStreamBuffer );
 604:Middlewares/Third_Party/FreeRTOS/Source/stream_buffer.c **** 	}
 605:Middlewares/Third_Party/FreeRTOS/Source/stream_buffer.c **** 
 606:Middlewares/Third_Party/FreeRTOS/Source/stream_buffer.c **** 	return xReturn;
 607:Middlewares/Third_Party/FreeRTOS/Source/stream_buffer.c **** }
 608:Middlewares/Third_Party/FreeRTOS/Source/stream_buffer.c **** /*-----------------------------------------------------------*/
 609:Middlewares/Third_Party/FreeRTOS/Source/stream_buffer.c **** 
 610:Middlewares/Third_Party/FreeRTOS/Source/stream_buffer.c **** size_t xStreamBufferSendFromISR( StreamBufferHandle_t xStreamBuffer,
 611:Middlewares/Third_Party/FreeRTOS/Source/stream_buffer.c **** 								 const void *pvTxData,
 612:Middlewares/Third_Party/FreeRTOS/Source/stream_buffer.c **** 								 size_t xDataLengthBytes,
 613:Middlewares/Third_Party/FreeRTOS/Source/stream_buffer.c **** 								 BaseType_t * const pxHigherPriorityTaskWoken )
 614:Middlewares/Third_Party/FreeRTOS/Source/stream_buffer.c **** {
 615:Middlewares/Third_Party/FreeRTOS/Source/stream_buffer.c **** StreamBuffer_t * const pxStreamBuffer = xStreamBuffer;
 616:Middlewares/Third_Party/FreeRTOS/Source/stream_buffer.c **** size_t xReturn, xSpace;
 617:Middlewares/Third_Party/FreeRTOS/Source/stream_buffer.c **** size_t xRequiredSpace = xDataLengthBytes;
 618:Middlewares/Third_Party/FreeRTOS/Source/stream_buffer.c **** 
 619:Middlewares/Third_Party/FreeRTOS/Source/stream_buffer.c **** 	configASSERT( pvTxData );
 620:Middlewares/Third_Party/FreeRTOS/Source/stream_buffer.c **** 	configASSERT( pxStreamBuffer );
 621:Middlewares/Third_Party/FreeRTOS/Source/stream_buffer.c **** 
 622:Middlewares/Third_Party/FreeRTOS/Source/stream_buffer.c **** 	/* This send function is used to write to both message buffers and stream
 623:Middlewares/Third_Party/FreeRTOS/Source/stream_buffer.c **** 	buffers.  If this is a message buffer then the space needed must be
 624:Middlewares/Third_Party/FreeRTOS/Source/stream_buffer.c **** 	increased by the amount of bytes needed to store the length of the
 625:Middlewares/Third_Party/FreeRTOS/Source/stream_buffer.c **** 	message. */
 626:Middlewares/Third_Party/FreeRTOS/Source/stream_buffer.c **** 	if( ( pxStreamBuffer->ucFlags & sbFLAGS_IS_MESSAGE_BUFFER ) != ( uint8_t ) 0 )
 627:Middlewares/Third_Party/FreeRTOS/Source/stream_buffer.c **** 	{
 628:Middlewares/Third_Party/FreeRTOS/Source/stream_buffer.c **** 		xRequiredSpace += sbBYTES_TO_STORE_MESSAGE_LENGTH;
 629:Middlewares/Third_Party/FreeRTOS/Source/stream_buffer.c **** 	}
 630:Middlewares/Third_Party/FreeRTOS/Source/stream_buffer.c **** 	else
 631:Middlewares/Third_Party/FreeRTOS/Source/stream_buffer.c **** 	{
 632:Middlewares/Third_Party/FreeRTOS/Source/stream_buffer.c **** 		mtCOVERAGE_TEST_MARKER();
 633:Middlewares/Third_Party/FreeRTOS/Source/stream_buffer.c **** 	}
 634:Middlewares/Third_Party/FreeRTOS/Source/stream_buffer.c **** 
 635:Middlewares/Third_Party/FreeRTOS/Source/stream_buffer.c **** 	xSpace = xStreamBufferSpacesAvailable( pxStreamBuffer );
 636:Middlewares/Third_Party/FreeRTOS/Source/stream_buffer.c **** 	xReturn = prvWriteMessageToBuffer( pxStreamBuffer, pvTxData, xDataLengthBytes, xSpace, xRequiredSp
 637:Middlewares/Third_Party/FreeRTOS/Source/stream_buffer.c **** 
 638:Middlewares/Third_Party/FreeRTOS/Source/stream_buffer.c **** 	if( xReturn > ( size_t ) 0 )
 639:Middlewares/Third_Party/FreeRTOS/Source/stream_buffer.c **** 	{
 640:Middlewares/Third_Party/FreeRTOS/Source/stream_buffer.c **** 		/* Was a task waiting for the data? */
 641:Middlewares/Third_Party/FreeRTOS/Source/stream_buffer.c **** 		if( prvBytesInBuffer( pxStreamBuffer ) >= pxStreamBuffer->xTriggerLevelBytes )
 642:Middlewares/Third_Party/FreeRTOS/Source/stream_buffer.c **** 		{
 643:Middlewares/Third_Party/FreeRTOS/Source/stream_buffer.c **** 			sbSEND_COMPLETE_FROM_ISR( pxStreamBuffer, pxHigherPriorityTaskWoken );
 644:Middlewares/Third_Party/FreeRTOS/Source/stream_buffer.c **** 		}
 645:Middlewares/Third_Party/FreeRTOS/Source/stream_buffer.c **** 		else
 646:Middlewares/Third_Party/FreeRTOS/Source/stream_buffer.c **** 		{
 647:Middlewares/Third_Party/FreeRTOS/Source/stream_buffer.c **** 			mtCOVERAGE_TEST_MARKER();
 648:Middlewares/Third_Party/FreeRTOS/Source/stream_buffer.c **** 		}
 649:Middlewares/Third_Party/FreeRTOS/Source/stream_buffer.c **** 	}
 650:Middlewares/Third_Party/FreeRTOS/Source/stream_buffer.c **** 	else
 651:Middlewares/Third_Party/FreeRTOS/Source/stream_buffer.c **** 	{
 652:Middlewares/Third_Party/FreeRTOS/Source/stream_buffer.c **** 		mtCOVERAGE_TEST_MARKER();
 653:Middlewares/Third_Party/FreeRTOS/Source/stream_buffer.c **** 	}
 654:Middlewares/Third_Party/FreeRTOS/Source/stream_buffer.c **** 
 655:Middlewares/Third_Party/FreeRTOS/Source/stream_buffer.c **** 	traceSTREAM_BUFFER_SEND_FROM_ISR( xStreamBuffer, xReturn );
 656:Middlewares/Third_Party/FreeRTOS/Source/stream_buffer.c **** 
 657:Middlewares/Third_Party/FreeRTOS/Source/stream_buffer.c **** 	return xReturn;
 658:Middlewares/Third_Party/FreeRTOS/Source/stream_buffer.c **** }
 659:Middlewares/Third_Party/FreeRTOS/Source/stream_buffer.c **** /*-----------------------------------------------------------*/
ARM GAS  /tmp/cc9Iu9BV.s 			page 13


 660:Middlewares/Third_Party/FreeRTOS/Source/stream_buffer.c **** 
 661:Middlewares/Third_Party/FreeRTOS/Source/stream_buffer.c **** static size_t prvWriteMessageToBuffer( StreamBuffer_t * const pxStreamBuffer,
 662:Middlewares/Third_Party/FreeRTOS/Source/stream_buffer.c **** 									   const void * pvTxData,
 663:Middlewares/Third_Party/FreeRTOS/Source/stream_buffer.c **** 									   size_t xDataLengthBytes,
 664:Middlewares/Third_Party/FreeRTOS/Source/stream_buffer.c **** 									   size_t xSpace,
 665:Middlewares/Third_Party/FreeRTOS/Source/stream_buffer.c **** 									   size_t xRequiredSpace )
 666:Middlewares/Third_Party/FreeRTOS/Source/stream_buffer.c **** {
 667:Middlewares/Third_Party/FreeRTOS/Source/stream_buffer.c **** 	BaseType_t xShouldWrite;
 668:Middlewares/Third_Party/FreeRTOS/Source/stream_buffer.c **** 	size_t xReturn;
 669:Middlewares/Third_Party/FreeRTOS/Source/stream_buffer.c **** 
 670:Middlewares/Third_Party/FreeRTOS/Source/stream_buffer.c **** 	if( xSpace == ( size_t ) 0 )
 671:Middlewares/Third_Party/FreeRTOS/Source/stream_buffer.c **** 	{
 672:Middlewares/Third_Party/FreeRTOS/Source/stream_buffer.c **** 		/* Doesn't matter if this is a stream buffer or a message buffer, there
 673:Middlewares/Third_Party/FreeRTOS/Source/stream_buffer.c **** 		is no space to write. */
 674:Middlewares/Third_Party/FreeRTOS/Source/stream_buffer.c **** 		xShouldWrite = pdFALSE;
 675:Middlewares/Third_Party/FreeRTOS/Source/stream_buffer.c **** 	}
 676:Middlewares/Third_Party/FreeRTOS/Source/stream_buffer.c **** 	else if( ( pxStreamBuffer->ucFlags & sbFLAGS_IS_MESSAGE_BUFFER ) == ( uint8_t ) 0 )
 677:Middlewares/Third_Party/FreeRTOS/Source/stream_buffer.c **** 	{
 678:Middlewares/Third_Party/FreeRTOS/Source/stream_buffer.c **** 		/* This is a stream buffer, as opposed to a message buffer, so writing a
 679:Middlewares/Third_Party/FreeRTOS/Source/stream_buffer.c **** 		stream of bytes rather than discrete messages.  Write as many bytes as
 680:Middlewares/Third_Party/FreeRTOS/Source/stream_buffer.c **** 		possible. */
 681:Middlewares/Third_Party/FreeRTOS/Source/stream_buffer.c **** 		xShouldWrite = pdTRUE;
 682:Middlewares/Third_Party/FreeRTOS/Source/stream_buffer.c **** 		xDataLengthBytes = configMIN( xDataLengthBytes, xSpace );
 683:Middlewares/Third_Party/FreeRTOS/Source/stream_buffer.c **** 	}
 684:Middlewares/Third_Party/FreeRTOS/Source/stream_buffer.c **** 	else if( xSpace >= xRequiredSpace )
 685:Middlewares/Third_Party/FreeRTOS/Source/stream_buffer.c **** 	{
 686:Middlewares/Third_Party/FreeRTOS/Source/stream_buffer.c **** 		/* This is a message buffer, as opposed to a stream buffer, and there
 687:Middlewares/Third_Party/FreeRTOS/Source/stream_buffer.c **** 		is enough space to write both the message length and the message itself
 688:Middlewares/Third_Party/FreeRTOS/Source/stream_buffer.c **** 		into the buffer.  Start by writing the length of the data, the data
 689:Middlewares/Third_Party/FreeRTOS/Source/stream_buffer.c **** 		itself will be written later in this function. */
 690:Middlewares/Third_Party/FreeRTOS/Source/stream_buffer.c **** 		xShouldWrite = pdTRUE;
 691:Middlewares/Third_Party/FreeRTOS/Source/stream_buffer.c **** 		( void ) prvWriteBytesToBuffer( pxStreamBuffer, ( const uint8_t * ) &( xDataLengthBytes ), sbBYTE
 692:Middlewares/Third_Party/FreeRTOS/Source/stream_buffer.c **** 	}
 693:Middlewares/Third_Party/FreeRTOS/Source/stream_buffer.c **** 	else
 694:Middlewares/Third_Party/FreeRTOS/Source/stream_buffer.c **** 	{
 695:Middlewares/Third_Party/FreeRTOS/Source/stream_buffer.c **** 		/* There is space available, but not enough space. */
 696:Middlewares/Third_Party/FreeRTOS/Source/stream_buffer.c **** 		xShouldWrite = pdFALSE;
 697:Middlewares/Third_Party/FreeRTOS/Source/stream_buffer.c **** 	}
 698:Middlewares/Third_Party/FreeRTOS/Source/stream_buffer.c **** 
 699:Middlewares/Third_Party/FreeRTOS/Source/stream_buffer.c **** 	if( xShouldWrite != pdFALSE )
 700:Middlewares/Third_Party/FreeRTOS/Source/stream_buffer.c **** 	{
 701:Middlewares/Third_Party/FreeRTOS/Source/stream_buffer.c **** 		/* Writes the data itself. */
 702:Middlewares/Third_Party/FreeRTOS/Source/stream_buffer.c **** 		xReturn = prvWriteBytesToBuffer( pxStreamBuffer, ( const uint8_t * ) pvTxData, xDataLengthBytes )
 703:Middlewares/Third_Party/FreeRTOS/Source/stream_buffer.c **** 	}
 704:Middlewares/Third_Party/FreeRTOS/Source/stream_buffer.c **** 	else
 705:Middlewares/Third_Party/FreeRTOS/Source/stream_buffer.c **** 	{
 706:Middlewares/Third_Party/FreeRTOS/Source/stream_buffer.c **** 		xReturn = 0;
 707:Middlewares/Third_Party/FreeRTOS/Source/stream_buffer.c **** 	}
 708:Middlewares/Third_Party/FreeRTOS/Source/stream_buffer.c **** 
 709:Middlewares/Third_Party/FreeRTOS/Source/stream_buffer.c **** 	return xReturn;
 710:Middlewares/Third_Party/FreeRTOS/Source/stream_buffer.c **** }
 711:Middlewares/Third_Party/FreeRTOS/Source/stream_buffer.c **** /*-----------------------------------------------------------*/
 712:Middlewares/Third_Party/FreeRTOS/Source/stream_buffer.c **** 
 713:Middlewares/Third_Party/FreeRTOS/Source/stream_buffer.c **** size_t xStreamBufferReceive( StreamBufferHandle_t xStreamBuffer,
 714:Middlewares/Third_Party/FreeRTOS/Source/stream_buffer.c **** 							 void *pvRxData,
 715:Middlewares/Third_Party/FreeRTOS/Source/stream_buffer.c **** 							 size_t xBufferLengthBytes,
 716:Middlewares/Third_Party/FreeRTOS/Source/stream_buffer.c **** 							 TickType_t xTicksToWait )
ARM GAS  /tmp/cc9Iu9BV.s 			page 14


 717:Middlewares/Third_Party/FreeRTOS/Source/stream_buffer.c **** {
 718:Middlewares/Third_Party/FreeRTOS/Source/stream_buffer.c **** StreamBuffer_t * const pxStreamBuffer = xStreamBuffer;
 719:Middlewares/Third_Party/FreeRTOS/Source/stream_buffer.c **** size_t xReceivedLength = 0, xBytesAvailable, xBytesToStoreMessageLength;
 720:Middlewares/Third_Party/FreeRTOS/Source/stream_buffer.c **** 
 721:Middlewares/Third_Party/FreeRTOS/Source/stream_buffer.c **** 	configASSERT( pvRxData );
 722:Middlewares/Third_Party/FreeRTOS/Source/stream_buffer.c **** 	configASSERT( pxStreamBuffer );
 723:Middlewares/Third_Party/FreeRTOS/Source/stream_buffer.c **** 
 724:Middlewares/Third_Party/FreeRTOS/Source/stream_buffer.c **** 	/* This receive function is used by both message buffers, which store
 725:Middlewares/Third_Party/FreeRTOS/Source/stream_buffer.c **** 	discrete messages, and stream buffers, which store a continuous stream of
 726:Middlewares/Third_Party/FreeRTOS/Source/stream_buffer.c **** 	bytes.  Discrete messages include an additional
 727:Middlewares/Third_Party/FreeRTOS/Source/stream_buffer.c **** 	sbBYTES_TO_STORE_MESSAGE_LENGTH bytes that hold the length of the
 728:Middlewares/Third_Party/FreeRTOS/Source/stream_buffer.c **** 	message. */
 729:Middlewares/Third_Party/FreeRTOS/Source/stream_buffer.c **** 	if( ( pxStreamBuffer->ucFlags & sbFLAGS_IS_MESSAGE_BUFFER ) != ( uint8_t ) 0 )
 730:Middlewares/Third_Party/FreeRTOS/Source/stream_buffer.c **** 	{
 731:Middlewares/Third_Party/FreeRTOS/Source/stream_buffer.c **** 		xBytesToStoreMessageLength = sbBYTES_TO_STORE_MESSAGE_LENGTH;
 732:Middlewares/Third_Party/FreeRTOS/Source/stream_buffer.c **** 	}
 733:Middlewares/Third_Party/FreeRTOS/Source/stream_buffer.c **** 	else
 734:Middlewares/Third_Party/FreeRTOS/Source/stream_buffer.c **** 	{
 735:Middlewares/Third_Party/FreeRTOS/Source/stream_buffer.c **** 		xBytesToStoreMessageLength = 0;
 736:Middlewares/Third_Party/FreeRTOS/Source/stream_buffer.c **** 	}
 737:Middlewares/Third_Party/FreeRTOS/Source/stream_buffer.c **** 
 738:Middlewares/Third_Party/FreeRTOS/Source/stream_buffer.c **** 	if( xTicksToWait != ( TickType_t ) 0 )
 739:Middlewares/Third_Party/FreeRTOS/Source/stream_buffer.c **** 	{
 740:Middlewares/Third_Party/FreeRTOS/Source/stream_buffer.c **** 		/* Checking if there is data and clearing the notification state must be
 741:Middlewares/Third_Party/FreeRTOS/Source/stream_buffer.c **** 		performed atomically. */
 742:Middlewares/Third_Party/FreeRTOS/Source/stream_buffer.c **** 		taskENTER_CRITICAL();
 743:Middlewares/Third_Party/FreeRTOS/Source/stream_buffer.c **** 		{
 744:Middlewares/Third_Party/FreeRTOS/Source/stream_buffer.c **** 			xBytesAvailable = prvBytesInBuffer( pxStreamBuffer );
 745:Middlewares/Third_Party/FreeRTOS/Source/stream_buffer.c **** 
 746:Middlewares/Third_Party/FreeRTOS/Source/stream_buffer.c **** 			/* If this function was invoked by a message buffer read then
 747:Middlewares/Third_Party/FreeRTOS/Source/stream_buffer.c **** 			xBytesToStoreMessageLength holds the number of bytes used to hold
 748:Middlewares/Third_Party/FreeRTOS/Source/stream_buffer.c **** 			the length of the next discrete message.  If this function was
 749:Middlewares/Third_Party/FreeRTOS/Source/stream_buffer.c **** 			invoked by a stream buffer read then xBytesToStoreMessageLength will
 750:Middlewares/Third_Party/FreeRTOS/Source/stream_buffer.c **** 			be 0. */
 751:Middlewares/Third_Party/FreeRTOS/Source/stream_buffer.c **** 			if( xBytesAvailable <= xBytesToStoreMessageLength )
 752:Middlewares/Third_Party/FreeRTOS/Source/stream_buffer.c **** 			{
 753:Middlewares/Third_Party/FreeRTOS/Source/stream_buffer.c **** 				/* Clear notification state as going to wait for data. */
 754:Middlewares/Third_Party/FreeRTOS/Source/stream_buffer.c **** 				( void ) xTaskNotifyStateClear( NULL );
 755:Middlewares/Third_Party/FreeRTOS/Source/stream_buffer.c **** 
 756:Middlewares/Third_Party/FreeRTOS/Source/stream_buffer.c **** 				/* Should only be one reader. */
 757:Middlewares/Third_Party/FreeRTOS/Source/stream_buffer.c **** 				configASSERT( pxStreamBuffer->xTaskWaitingToReceive == NULL );
 758:Middlewares/Third_Party/FreeRTOS/Source/stream_buffer.c **** 				pxStreamBuffer->xTaskWaitingToReceive = xTaskGetCurrentTaskHandle();
 759:Middlewares/Third_Party/FreeRTOS/Source/stream_buffer.c **** 			}
 760:Middlewares/Third_Party/FreeRTOS/Source/stream_buffer.c **** 			else
 761:Middlewares/Third_Party/FreeRTOS/Source/stream_buffer.c **** 			{
 762:Middlewares/Third_Party/FreeRTOS/Source/stream_buffer.c **** 				mtCOVERAGE_TEST_MARKER();
 763:Middlewares/Third_Party/FreeRTOS/Source/stream_buffer.c **** 			}
 764:Middlewares/Third_Party/FreeRTOS/Source/stream_buffer.c **** 		}
 765:Middlewares/Third_Party/FreeRTOS/Source/stream_buffer.c **** 		taskEXIT_CRITICAL();
 766:Middlewares/Third_Party/FreeRTOS/Source/stream_buffer.c **** 
 767:Middlewares/Third_Party/FreeRTOS/Source/stream_buffer.c **** 		if( xBytesAvailable <= xBytesToStoreMessageLength )
 768:Middlewares/Third_Party/FreeRTOS/Source/stream_buffer.c **** 		{
 769:Middlewares/Third_Party/FreeRTOS/Source/stream_buffer.c **** 			/* Wait for data to be available. */
 770:Middlewares/Third_Party/FreeRTOS/Source/stream_buffer.c **** 			traceBLOCKING_ON_STREAM_BUFFER_RECEIVE( xStreamBuffer );
 771:Middlewares/Third_Party/FreeRTOS/Source/stream_buffer.c **** 			( void ) xTaskNotifyWait( ( uint32_t ) 0, ( uint32_t ) 0, NULL, xTicksToWait );
 772:Middlewares/Third_Party/FreeRTOS/Source/stream_buffer.c **** 			pxStreamBuffer->xTaskWaitingToReceive = NULL;
 773:Middlewares/Third_Party/FreeRTOS/Source/stream_buffer.c **** 
ARM GAS  /tmp/cc9Iu9BV.s 			page 15


 774:Middlewares/Third_Party/FreeRTOS/Source/stream_buffer.c **** 			/* Recheck the data available after blocking. */
 775:Middlewares/Third_Party/FreeRTOS/Source/stream_buffer.c **** 			xBytesAvailable = prvBytesInBuffer( pxStreamBuffer );
 776:Middlewares/Third_Party/FreeRTOS/Source/stream_buffer.c **** 		}
 777:Middlewares/Third_Party/FreeRTOS/Source/stream_buffer.c **** 		else
 778:Middlewares/Third_Party/FreeRTOS/Source/stream_buffer.c **** 		{
 779:Middlewares/Third_Party/FreeRTOS/Source/stream_buffer.c **** 			mtCOVERAGE_TEST_MARKER();
 780:Middlewares/Third_Party/FreeRTOS/Source/stream_buffer.c **** 		}
 781:Middlewares/Third_Party/FreeRTOS/Source/stream_buffer.c **** 	}
 782:Middlewares/Third_Party/FreeRTOS/Source/stream_buffer.c **** 	else
 783:Middlewares/Third_Party/FreeRTOS/Source/stream_buffer.c **** 	{
 784:Middlewares/Third_Party/FreeRTOS/Source/stream_buffer.c **** 		xBytesAvailable = prvBytesInBuffer( pxStreamBuffer );
 785:Middlewares/Third_Party/FreeRTOS/Source/stream_buffer.c **** 	}
 786:Middlewares/Third_Party/FreeRTOS/Source/stream_buffer.c **** 
 787:Middlewares/Third_Party/FreeRTOS/Source/stream_buffer.c **** 	/* Whether receiving a discrete message (where xBytesToStoreMessageLength
 788:Middlewares/Third_Party/FreeRTOS/Source/stream_buffer.c **** 	holds the number of bytes used to store the message length) or a stream of
 789:Middlewares/Third_Party/FreeRTOS/Source/stream_buffer.c **** 	bytes (where xBytesToStoreMessageLength is zero), the number of bytes
 790:Middlewares/Third_Party/FreeRTOS/Source/stream_buffer.c **** 	available must be greater than xBytesToStoreMessageLength to be able to
 791:Middlewares/Third_Party/FreeRTOS/Source/stream_buffer.c **** 	read bytes from the buffer. */
 792:Middlewares/Third_Party/FreeRTOS/Source/stream_buffer.c **** 	if( xBytesAvailable > xBytesToStoreMessageLength )
 793:Middlewares/Third_Party/FreeRTOS/Source/stream_buffer.c **** 	{
 794:Middlewares/Third_Party/FreeRTOS/Source/stream_buffer.c **** 		xReceivedLength = prvReadMessageFromBuffer( pxStreamBuffer, pvRxData, xBufferLengthBytes, xBytesA
 795:Middlewares/Third_Party/FreeRTOS/Source/stream_buffer.c **** 
 796:Middlewares/Third_Party/FreeRTOS/Source/stream_buffer.c **** 		/* Was a task waiting for space in the buffer? */
 797:Middlewares/Third_Party/FreeRTOS/Source/stream_buffer.c **** 		if( xReceivedLength != ( size_t ) 0 )
 798:Middlewares/Third_Party/FreeRTOS/Source/stream_buffer.c **** 		{
 799:Middlewares/Third_Party/FreeRTOS/Source/stream_buffer.c **** 			traceSTREAM_BUFFER_RECEIVE( xStreamBuffer, xReceivedLength );
 800:Middlewares/Third_Party/FreeRTOS/Source/stream_buffer.c **** 			sbRECEIVE_COMPLETED( pxStreamBuffer );
 801:Middlewares/Third_Party/FreeRTOS/Source/stream_buffer.c **** 		}
 802:Middlewares/Third_Party/FreeRTOS/Source/stream_buffer.c **** 		else
 803:Middlewares/Third_Party/FreeRTOS/Source/stream_buffer.c **** 		{
 804:Middlewares/Third_Party/FreeRTOS/Source/stream_buffer.c **** 			mtCOVERAGE_TEST_MARKER();
 805:Middlewares/Third_Party/FreeRTOS/Source/stream_buffer.c **** 		}
 806:Middlewares/Third_Party/FreeRTOS/Source/stream_buffer.c **** 	}
 807:Middlewares/Third_Party/FreeRTOS/Source/stream_buffer.c **** 	else
 808:Middlewares/Third_Party/FreeRTOS/Source/stream_buffer.c **** 	{
 809:Middlewares/Third_Party/FreeRTOS/Source/stream_buffer.c **** 		traceSTREAM_BUFFER_RECEIVE_FAILED( xStreamBuffer );
 810:Middlewares/Third_Party/FreeRTOS/Source/stream_buffer.c **** 		mtCOVERAGE_TEST_MARKER();
 811:Middlewares/Third_Party/FreeRTOS/Source/stream_buffer.c **** 	}
 812:Middlewares/Third_Party/FreeRTOS/Source/stream_buffer.c **** 
 813:Middlewares/Third_Party/FreeRTOS/Source/stream_buffer.c **** 	return xReceivedLength;
 814:Middlewares/Third_Party/FreeRTOS/Source/stream_buffer.c **** }
 815:Middlewares/Third_Party/FreeRTOS/Source/stream_buffer.c **** /*-----------------------------------------------------------*/
 816:Middlewares/Third_Party/FreeRTOS/Source/stream_buffer.c **** 
 817:Middlewares/Third_Party/FreeRTOS/Source/stream_buffer.c **** size_t xStreamBufferNextMessageLengthBytes( StreamBufferHandle_t xStreamBuffer )
 818:Middlewares/Third_Party/FreeRTOS/Source/stream_buffer.c **** {
 819:Middlewares/Third_Party/FreeRTOS/Source/stream_buffer.c **** StreamBuffer_t * const pxStreamBuffer = xStreamBuffer;
 820:Middlewares/Third_Party/FreeRTOS/Source/stream_buffer.c **** size_t xReturn, xBytesAvailable, xOriginalTail;
 821:Middlewares/Third_Party/FreeRTOS/Source/stream_buffer.c **** configMESSAGE_BUFFER_LENGTH_TYPE xTempReturn;
 822:Middlewares/Third_Party/FreeRTOS/Source/stream_buffer.c **** 
 823:Middlewares/Third_Party/FreeRTOS/Source/stream_buffer.c **** 	configASSERT( pxStreamBuffer );
 824:Middlewares/Third_Party/FreeRTOS/Source/stream_buffer.c **** 
 825:Middlewares/Third_Party/FreeRTOS/Source/stream_buffer.c **** 	/* Ensure the stream buffer is being used as a message buffer. */
 826:Middlewares/Third_Party/FreeRTOS/Source/stream_buffer.c **** 	if( ( pxStreamBuffer->ucFlags & sbFLAGS_IS_MESSAGE_BUFFER ) != ( uint8_t ) 0 )
 827:Middlewares/Third_Party/FreeRTOS/Source/stream_buffer.c **** 	{
 828:Middlewares/Third_Party/FreeRTOS/Source/stream_buffer.c **** 		xBytesAvailable = prvBytesInBuffer( pxStreamBuffer );
 829:Middlewares/Third_Party/FreeRTOS/Source/stream_buffer.c **** 		if( xBytesAvailable > sbBYTES_TO_STORE_MESSAGE_LENGTH )
 830:Middlewares/Third_Party/FreeRTOS/Source/stream_buffer.c **** 		{
ARM GAS  /tmp/cc9Iu9BV.s 			page 16


 831:Middlewares/Third_Party/FreeRTOS/Source/stream_buffer.c **** 			/* The number of bytes available is greater than the number of bytes
 832:Middlewares/Third_Party/FreeRTOS/Source/stream_buffer.c **** 			required to hold the length of the next message, so another message
 833:Middlewares/Third_Party/FreeRTOS/Source/stream_buffer.c **** 			is available.  Return its length without removing the length bytes
 834:Middlewares/Third_Party/FreeRTOS/Source/stream_buffer.c **** 			from the buffer.  A copy of the tail is stored so the buffer can be
 835:Middlewares/Third_Party/FreeRTOS/Source/stream_buffer.c **** 			returned to its prior state as the message is not actually being
 836:Middlewares/Third_Party/FreeRTOS/Source/stream_buffer.c **** 			removed from the buffer. */
 837:Middlewares/Third_Party/FreeRTOS/Source/stream_buffer.c **** 			xOriginalTail = pxStreamBuffer->xTail;
 838:Middlewares/Third_Party/FreeRTOS/Source/stream_buffer.c **** 			( void ) prvReadBytesFromBuffer( pxStreamBuffer, ( uint8_t * ) &xTempReturn, sbBYTES_TO_STORE_ME
 839:Middlewares/Third_Party/FreeRTOS/Source/stream_buffer.c **** 			xReturn = ( size_t ) xTempReturn;
 840:Middlewares/Third_Party/FreeRTOS/Source/stream_buffer.c **** 			pxStreamBuffer->xTail = xOriginalTail;
 841:Middlewares/Third_Party/FreeRTOS/Source/stream_buffer.c **** 		}
 842:Middlewares/Third_Party/FreeRTOS/Source/stream_buffer.c **** 		else
 843:Middlewares/Third_Party/FreeRTOS/Source/stream_buffer.c **** 		{
 844:Middlewares/Third_Party/FreeRTOS/Source/stream_buffer.c **** 			/* The minimum amount of bytes in a message buffer is
 845:Middlewares/Third_Party/FreeRTOS/Source/stream_buffer.c **** 			( sbBYTES_TO_STORE_MESSAGE_LENGTH + 1 ), so if xBytesAvailable is
 846:Middlewares/Third_Party/FreeRTOS/Source/stream_buffer.c **** 			less than sbBYTES_TO_STORE_MESSAGE_LENGTH the only other valid
 847:Middlewares/Third_Party/FreeRTOS/Source/stream_buffer.c **** 			value is 0. */
 848:Middlewares/Third_Party/FreeRTOS/Source/stream_buffer.c **** 			configASSERT( xBytesAvailable == 0 );
 849:Middlewares/Third_Party/FreeRTOS/Source/stream_buffer.c **** 			xReturn = 0;
 850:Middlewares/Third_Party/FreeRTOS/Source/stream_buffer.c **** 		}
 851:Middlewares/Third_Party/FreeRTOS/Source/stream_buffer.c **** 	}
 852:Middlewares/Third_Party/FreeRTOS/Source/stream_buffer.c **** 	else
 853:Middlewares/Third_Party/FreeRTOS/Source/stream_buffer.c **** 	{
 854:Middlewares/Third_Party/FreeRTOS/Source/stream_buffer.c **** 		xReturn = 0;
 855:Middlewares/Third_Party/FreeRTOS/Source/stream_buffer.c **** 	}
 856:Middlewares/Third_Party/FreeRTOS/Source/stream_buffer.c **** 
 857:Middlewares/Third_Party/FreeRTOS/Source/stream_buffer.c **** 	return xReturn;
 858:Middlewares/Third_Party/FreeRTOS/Source/stream_buffer.c **** }
 859:Middlewares/Third_Party/FreeRTOS/Source/stream_buffer.c **** /*-----------------------------------------------------------*/
 860:Middlewares/Third_Party/FreeRTOS/Source/stream_buffer.c **** 
 861:Middlewares/Third_Party/FreeRTOS/Source/stream_buffer.c **** size_t xStreamBufferReceiveFromISR( StreamBufferHandle_t xStreamBuffer,
 862:Middlewares/Third_Party/FreeRTOS/Source/stream_buffer.c **** 									void *pvRxData,
 863:Middlewares/Third_Party/FreeRTOS/Source/stream_buffer.c **** 									size_t xBufferLengthBytes,
 864:Middlewares/Third_Party/FreeRTOS/Source/stream_buffer.c **** 									BaseType_t * const pxHigherPriorityTaskWoken )
 865:Middlewares/Third_Party/FreeRTOS/Source/stream_buffer.c **** {
 866:Middlewares/Third_Party/FreeRTOS/Source/stream_buffer.c **** StreamBuffer_t * const pxStreamBuffer = xStreamBuffer;
 867:Middlewares/Third_Party/FreeRTOS/Source/stream_buffer.c **** size_t xReceivedLength = 0, xBytesAvailable, xBytesToStoreMessageLength;
 868:Middlewares/Third_Party/FreeRTOS/Source/stream_buffer.c **** 
 869:Middlewares/Third_Party/FreeRTOS/Source/stream_buffer.c **** 	configASSERT( pvRxData );
 870:Middlewares/Third_Party/FreeRTOS/Source/stream_buffer.c **** 	configASSERT( pxStreamBuffer );
 871:Middlewares/Third_Party/FreeRTOS/Source/stream_buffer.c **** 
 872:Middlewares/Third_Party/FreeRTOS/Source/stream_buffer.c **** 	/* This receive function is used by both message buffers, which store
 873:Middlewares/Third_Party/FreeRTOS/Source/stream_buffer.c **** 	discrete messages, and stream buffers, which store a continuous stream of
 874:Middlewares/Third_Party/FreeRTOS/Source/stream_buffer.c **** 	bytes.  Discrete messages include an additional
 875:Middlewares/Third_Party/FreeRTOS/Source/stream_buffer.c **** 	sbBYTES_TO_STORE_MESSAGE_LENGTH bytes that hold the length of the
 876:Middlewares/Third_Party/FreeRTOS/Source/stream_buffer.c **** 	message. */
 877:Middlewares/Third_Party/FreeRTOS/Source/stream_buffer.c **** 	if( ( pxStreamBuffer->ucFlags & sbFLAGS_IS_MESSAGE_BUFFER ) != ( uint8_t ) 0 )
 878:Middlewares/Third_Party/FreeRTOS/Source/stream_buffer.c **** 	{
 879:Middlewares/Third_Party/FreeRTOS/Source/stream_buffer.c **** 		xBytesToStoreMessageLength = sbBYTES_TO_STORE_MESSAGE_LENGTH;
 880:Middlewares/Third_Party/FreeRTOS/Source/stream_buffer.c **** 	}
 881:Middlewares/Third_Party/FreeRTOS/Source/stream_buffer.c **** 	else
 882:Middlewares/Third_Party/FreeRTOS/Source/stream_buffer.c **** 	{
 883:Middlewares/Third_Party/FreeRTOS/Source/stream_buffer.c **** 		xBytesToStoreMessageLength = 0;
 884:Middlewares/Third_Party/FreeRTOS/Source/stream_buffer.c **** 	}
 885:Middlewares/Third_Party/FreeRTOS/Source/stream_buffer.c **** 
 886:Middlewares/Third_Party/FreeRTOS/Source/stream_buffer.c **** 	xBytesAvailable = prvBytesInBuffer( pxStreamBuffer );
 887:Middlewares/Third_Party/FreeRTOS/Source/stream_buffer.c **** 
ARM GAS  /tmp/cc9Iu9BV.s 			page 17


 888:Middlewares/Third_Party/FreeRTOS/Source/stream_buffer.c **** 	/* Whether receiving a discrete message (where xBytesToStoreMessageLength
 889:Middlewares/Third_Party/FreeRTOS/Source/stream_buffer.c **** 	holds the number of bytes used to store the message length) or a stream of
 890:Middlewares/Third_Party/FreeRTOS/Source/stream_buffer.c **** 	bytes (where xBytesToStoreMessageLength is zero), the number of bytes
 891:Middlewares/Third_Party/FreeRTOS/Source/stream_buffer.c **** 	available must be greater than xBytesToStoreMessageLength to be able to
 892:Middlewares/Third_Party/FreeRTOS/Source/stream_buffer.c **** 	read bytes from the buffer. */
 893:Middlewares/Third_Party/FreeRTOS/Source/stream_buffer.c **** 	if( xBytesAvailable > xBytesToStoreMessageLength )
 894:Middlewares/Third_Party/FreeRTOS/Source/stream_buffer.c **** 	{
 895:Middlewares/Third_Party/FreeRTOS/Source/stream_buffer.c **** 		xReceivedLength = prvReadMessageFromBuffer( pxStreamBuffer, pvRxData, xBufferLengthBytes, xBytesA
 896:Middlewares/Third_Party/FreeRTOS/Source/stream_buffer.c **** 
 897:Middlewares/Third_Party/FreeRTOS/Source/stream_buffer.c **** 		/* Was a task waiting for space in the buffer? */
 898:Middlewares/Third_Party/FreeRTOS/Source/stream_buffer.c **** 		if( xReceivedLength != ( size_t ) 0 )
 899:Middlewares/Third_Party/FreeRTOS/Source/stream_buffer.c **** 		{
 900:Middlewares/Third_Party/FreeRTOS/Source/stream_buffer.c **** 			sbRECEIVE_COMPLETED_FROM_ISR( pxStreamBuffer, pxHigherPriorityTaskWoken );
 901:Middlewares/Third_Party/FreeRTOS/Source/stream_buffer.c **** 		}
 902:Middlewares/Third_Party/FreeRTOS/Source/stream_buffer.c **** 		else
 903:Middlewares/Third_Party/FreeRTOS/Source/stream_buffer.c **** 		{
 904:Middlewares/Third_Party/FreeRTOS/Source/stream_buffer.c **** 			mtCOVERAGE_TEST_MARKER();
 905:Middlewares/Third_Party/FreeRTOS/Source/stream_buffer.c **** 		}
 906:Middlewares/Third_Party/FreeRTOS/Source/stream_buffer.c **** 	}
 907:Middlewares/Third_Party/FreeRTOS/Source/stream_buffer.c **** 	else
 908:Middlewares/Third_Party/FreeRTOS/Source/stream_buffer.c **** 	{
 909:Middlewares/Third_Party/FreeRTOS/Source/stream_buffer.c **** 		mtCOVERAGE_TEST_MARKER();
 910:Middlewares/Third_Party/FreeRTOS/Source/stream_buffer.c **** 	}
 911:Middlewares/Third_Party/FreeRTOS/Source/stream_buffer.c **** 
 912:Middlewares/Third_Party/FreeRTOS/Source/stream_buffer.c **** 	traceSTREAM_BUFFER_RECEIVE_FROM_ISR( xStreamBuffer, xReceivedLength );
 913:Middlewares/Third_Party/FreeRTOS/Source/stream_buffer.c **** 
 914:Middlewares/Third_Party/FreeRTOS/Source/stream_buffer.c **** 	return xReceivedLength;
 915:Middlewares/Third_Party/FreeRTOS/Source/stream_buffer.c **** }
 916:Middlewares/Third_Party/FreeRTOS/Source/stream_buffer.c **** /*-----------------------------------------------------------*/
 917:Middlewares/Third_Party/FreeRTOS/Source/stream_buffer.c **** 
 918:Middlewares/Third_Party/FreeRTOS/Source/stream_buffer.c **** static size_t prvReadMessageFromBuffer( StreamBuffer_t *pxStreamBuffer,
 919:Middlewares/Third_Party/FreeRTOS/Source/stream_buffer.c **** 										void *pvRxData,
 920:Middlewares/Third_Party/FreeRTOS/Source/stream_buffer.c **** 										size_t xBufferLengthBytes,
 921:Middlewares/Third_Party/FreeRTOS/Source/stream_buffer.c **** 										size_t xBytesAvailable,
 922:Middlewares/Third_Party/FreeRTOS/Source/stream_buffer.c **** 										size_t xBytesToStoreMessageLength )
 923:Middlewares/Third_Party/FreeRTOS/Source/stream_buffer.c **** {
 924:Middlewares/Third_Party/FreeRTOS/Source/stream_buffer.c **** size_t xOriginalTail, xReceivedLength, xNextMessageLength;
 925:Middlewares/Third_Party/FreeRTOS/Source/stream_buffer.c **** configMESSAGE_BUFFER_LENGTH_TYPE xTempNextMessageLength;
 926:Middlewares/Third_Party/FreeRTOS/Source/stream_buffer.c **** 
 927:Middlewares/Third_Party/FreeRTOS/Source/stream_buffer.c **** 	if( xBytesToStoreMessageLength != ( size_t ) 0 )
 928:Middlewares/Third_Party/FreeRTOS/Source/stream_buffer.c **** 	{
 929:Middlewares/Third_Party/FreeRTOS/Source/stream_buffer.c **** 		/* A discrete message is being received.  First receive the length
 930:Middlewares/Third_Party/FreeRTOS/Source/stream_buffer.c **** 		of the message.  A copy of the tail is stored so the buffer can be
 931:Middlewares/Third_Party/FreeRTOS/Source/stream_buffer.c **** 		returned to its prior state if the length of the message is too
 932:Middlewares/Third_Party/FreeRTOS/Source/stream_buffer.c **** 		large for the provided buffer. */
 933:Middlewares/Third_Party/FreeRTOS/Source/stream_buffer.c **** 		xOriginalTail = pxStreamBuffer->xTail;
 934:Middlewares/Third_Party/FreeRTOS/Source/stream_buffer.c **** 		( void ) prvReadBytesFromBuffer( pxStreamBuffer, ( uint8_t * ) &xTempNextMessageLength, xBytesToS
 935:Middlewares/Third_Party/FreeRTOS/Source/stream_buffer.c **** 		xNextMessageLength = ( size_t ) xTempNextMessageLength;
 936:Middlewares/Third_Party/FreeRTOS/Source/stream_buffer.c **** 
 937:Middlewares/Third_Party/FreeRTOS/Source/stream_buffer.c **** 		/* Reduce the number of bytes available by the number of bytes just
 938:Middlewares/Third_Party/FreeRTOS/Source/stream_buffer.c **** 		read out. */
 939:Middlewares/Third_Party/FreeRTOS/Source/stream_buffer.c **** 		xBytesAvailable -= xBytesToStoreMessageLength;
 940:Middlewares/Third_Party/FreeRTOS/Source/stream_buffer.c **** 
 941:Middlewares/Third_Party/FreeRTOS/Source/stream_buffer.c **** 		/* Check there is enough space in the buffer provided by the
 942:Middlewares/Third_Party/FreeRTOS/Source/stream_buffer.c **** 		user. */
 943:Middlewares/Third_Party/FreeRTOS/Source/stream_buffer.c **** 		if( xNextMessageLength > xBufferLengthBytes )
 944:Middlewares/Third_Party/FreeRTOS/Source/stream_buffer.c **** 		{
ARM GAS  /tmp/cc9Iu9BV.s 			page 18


 945:Middlewares/Third_Party/FreeRTOS/Source/stream_buffer.c **** 			/* The user has provided insufficient space to read the message
 946:Middlewares/Third_Party/FreeRTOS/Source/stream_buffer.c **** 			so return the buffer to its previous state (so the length of
 947:Middlewares/Third_Party/FreeRTOS/Source/stream_buffer.c **** 			the message is in the buffer again). */
 948:Middlewares/Third_Party/FreeRTOS/Source/stream_buffer.c **** 			pxStreamBuffer->xTail = xOriginalTail;
 949:Middlewares/Third_Party/FreeRTOS/Source/stream_buffer.c **** 			xNextMessageLength = 0;
 950:Middlewares/Third_Party/FreeRTOS/Source/stream_buffer.c **** 		}
 951:Middlewares/Third_Party/FreeRTOS/Source/stream_buffer.c **** 		else
 952:Middlewares/Third_Party/FreeRTOS/Source/stream_buffer.c **** 		{
 953:Middlewares/Third_Party/FreeRTOS/Source/stream_buffer.c **** 			mtCOVERAGE_TEST_MARKER();
 954:Middlewares/Third_Party/FreeRTOS/Source/stream_buffer.c **** 		}
 955:Middlewares/Third_Party/FreeRTOS/Source/stream_buffer.c **** 	}
 956:Middlewares/Third_Party/FreeRTOS/Source/stream_buffer.c **** 	else
 957:Middlewares/Third_Party/FreeRTOS/Source/stream_buffer.c **** 	{
 958:Middlewares/Third_Party/FreeRTOS/Source/stream_buffer.c **** 		/* A stream of bytes is being received (as opposed to a discrete
 959:Middlewares/Third_Party/FreeRTOS/Source/stream_buffer.c **** 		message), so read as many bytes as possible. */
 960:Middlewares/Third_Party/FreeRTOS/Source/stream_buffer.c **** 		xNextMessageLength = xBufferLengthBytes;
 961:Middlewares/Third_Party/FreeRTOS/Source/stream_buffer.c **** 	}
 962:Middlewares/Third_Party/FreeRTOS/Source/stream_buffer.c **** 
 963:Middlewares/Third_Party/FreeRTOS/Source/stream_buffer.c **** 	/* Read the actual data. */
 964:Middlewares/Third_Party/FreeRTOS/Source/stream_buffer.c **** 	xReceivedLength = prvReadBytesFromBuffer( pxStreamBuffer, ( uint8_t * ) pvRxData, xNextMessageLeng
 965:Middlewares/Third_Party/FreeRTOS/Source/stream_buffer.c **** 
 966:Middlewares/Third_Party/FreeRTOS/Source/stream_buffer.c **** 	return xReceivedLength;
 967:Middlewares/Third_Party/FreeRTOS/Source/stream_buffer.c **** }
 968:Middlewares/Third_Party/FreeRTOS/Source/stream_buffer.c **** /*-----------------------------------------------------------*/
 969:Middlewares/Third_Party/FreeRTOS/Source/stream_buffer.c **** 
 970:Middlewares/Third_Party/FreeRTOS/Source/stream_buffer.c **** BaseType_t xStreamBufferIsEmpty( StreamBufferHandle_t xStreamBuffer )
 971:Middlewares/Third_Party/FreeRTOS/Source/stream_buffer.c **** {
 972:Middlewares/Third_Party/FreeRTOS/Source/stream_buffer.c **** const StreamBuffer_t * const pxStreamBuffer = xStreamBuffer;
 973:Middlewares/Third_Party/FreeRTOS/Source/stream_buffer.c **** BaseType_t xReturn;
 974:Middlewares/Third_Party/FreeRTOS/Source/stream_buffer.c **** size_t xTail;
 975:Middlewares/Third_Party/FreeRTOS/Source/stream_buffer.c **** 
 976:Middlewares/Third_Party/FreeRTOS/Source/stream_buffer.c **** 	configASSERT( pxStreamBuffer );
 977:Middlewares/Third_Party/FreeRTOS/Source/stream_buffer.c **** 
 978:Middlewares/Third_Party/FreeRTOS/Source/stream_buffer.c **** 	/* True if no bytes are available. */
 979:Middlewares/Third_Party/FreeRTOS/Source/stream_buffer.c **** 	xTail = pxStreamBuffer->xTail;
 980:Middlewares/Third_Party/FreeRTOS/Source/stream_buffer.c **** 	if( pxStreamBuffer->xHead == xTail )
 981:Middlewares/Third_Party/FreeRTOS/Source/stream_buffer.c **** 	{
 982:Middlewares/Third_Party/FreeRTOS/Source/stream_buffer.c **** 		xReturn = pdTRUE;
 983:Middlewares/Third_Party/FreeRTOS/Source/stream_buffer.c **** 	}
 984:Middlewares/Third_Party/FreeRTOS/Source/stream_buffer.c **** 	else
 985:Middlewares/Third_Party/FreeRTOS/Source/stream_buffer.c **** 	{
 986:Middlewares/Third_Party/FreeRTOS/Source/stream_buffer.c **** 		xReturn = pdFALSE;
 987:Middlewares/Third_Party/FreeRTOS/Source/stream_buffer.c **** 	}
 988:Middlewares/Third_Party/FreeRTOS/Source/stream_buffer.c **** 
 989:Middlewares/Third_Party/FreeRTOS/Source/stream_buffer.c **** 	return xReturn;
 990:Middlewares/Third_Party/FreeRTOS/Source/stream_buffer.c **** }
 991:Middlewares/Third_Party/FreeRTOS/Source/stream_buffer.c **** /*-----------------------------------------------------------*/
 992:Middlewares/Third_Party/FreeRTOS/Source/stream_buffer.c **** 
 993:Middlewares/Third_Party/FreeRTOS/Source/stream_buffer.c **** BaseType_t xStreamBufferIsFull( StreamBufferHandle_t xStreamBuffer )
 994:Middlewares/Third_Party/FreeRTOS/Source/stream_buffer.c **** {
 995:Middlewares/Third_Party/FreeRTOS/Source/stream_buffer.c **** BaseType_t xReturn;
 996:Middlewares/Third_Party/FreeRTOS/Source/stream_buffer.c **** size_t xBytesToStoreMessageLength;
 997:Middlewares/Third_Party/FreeRTOS/Source/stream_buffer.c **** const StreamBuffer_t * const pxStreamBuffer = xStreamBuffer;
 998:Middlewares/Third_Party/FreeRTOS/Source/stream_buffer.c **** 
 999:Middlewares/Third_Party/FreeRTOS/Source/stream_buffer.c **** 	configASSERT( pxStreamBuffer );
1000:Middlewares/Third_Party/FreeRTOS/Source/stream_buffer.c **** 
1001:Middlewares/Third_Party/FreeRTOS/Source/stream_buffer.c **** 	/* This generic version of the receive function is used by both message
ARM GAS  /tmp/cc9Iu9BV.s 			page 19


1002:Middlewares/Third_Party/FreeRTOS/Source/stream_buffer.c **** 	buffers, which store discrete messages, and stream buffers, which store a
1003:Middlewares/Third_Party/FreeRTOS/Source/stream_buffer.c **** 	continuous stream of bytes.  Discrete messages include an additional
1004:Middlewares/Third_Party/FreeRTOS/Source/stream_buffer.c **** 	sbBYTES_TO_STORE_MESSAGE_LENGTH bytes that hold the length of the message. */
1005:Middlewares/Third_Party/FreeRTOS/Source/stream_buffer.c **** 	if( ( pxStreamBuffer->ucFlags & sbFLAGS_IS_MESSAGE_BUFFER ) != ( uint8_t ) 0 )
1006:Middlewares/Third_Party/FreeRTOS/Source/stream_buffer.c **** 	{
1007:Middlewares/Third_Party/FreeRTOS/Source/stream_buffer.c **** 		xBytesToStoreMessageLength = sbBYTES_TO_STORE_MESSAGE_LENGTH;
1008:Middlewares/Third_Party/FreeRTOS/Source/stream_buffer.c **** 	}
1009:Middlewares/Third_Party/FreeRTOS/Source/stream_buffer.c **** 	else
1010:Middlewares/Third_Party/FreeRTOS/Source/stream_buffer.c **** 	{
1011:Middlewares/Third_Party/FreeRTOS/Source/stream_buffer.c **** 		xBytesToStoreMessageLength = 0;
1012:Middlewares/Third_Party/FreeRTOS/Source/stream_buffer.c **** 	}
1013:Middlewares/Third_Party/FreeRTOS/Source/stream_buffer.c **** 
1014:Middlewares/Third_Party/FreeRTOS/Source/stream_buffer.c **** 	/* True if the available space equals zero. */
1015:Middlewares/Third_Party/FreeRTOS/Source/stream_buffer.c **** 	if( xStreamBufferSpacesAvailable( xStreamBuffer ) <= xBytesToStoreMessageLength )
1016:Middlewares/Third_Party/FreeRTOS/Source/stream_buffer.c **** 	{
1017:Middlewares/Third_Party/FreeRTOS/Source/stream_buffer.c **** 		xReturn = pdTRUE;
1018:Middlewares/Third_Party/FreeRTOS/Source/stream_buffer.c **** 	}
1019:Middlewares/Third_Party/FreeRTOS/Source/stream_buffer.c **** 	else
1020:Middlewares/Third_Party/FreeRTOS/Source/stream_buffer.c **** 	{
1021:Middlewares/Third_Party/FreeRTOS/Source/stream_buffer.c **** 		xReturn = pdFALSE;
1022:Middlewares/Third_Party/FreeRTOS/Source/stream_buffer.c **** 	}
1023:Middlewares/Third_Party/FreeRTOS/Source/stream_buffer.c **** 
1024:Middlewares/Third_Party/FreeRTOS/Source/stream_buffer.c **** 	return xReturn;
1025:Middlewares/Third_Party/FreeRTOS/Source/stream_buffer.c **** }
1026:Middlewares/Third_Party/FreeRTOS/Source/stream_buffer.c **** /*-----------------------------------------------------------*/
1027:Middlewares/Third_Party/FreeRTOS/Source/stream_buffer.c **** 
1028:Middlewares/Third_Party/FreeRTOS/Source/stream_buffer.c **** BaseType_t xStreamBufferSendCompletedFromISR( StreamBufferHandle_t xStreamBuffer, BaseType_t *pxHig
1029:Middlewares/Third_Party/FreeRTOS/Source/stream_buffer.c **** {
1030:Middlewares/Third_Party/FreeRTOS/Source/stream_buffer.c **** StreamBuffer_t * const pxStreamBuffer = xStreamBuffer;
1031:Middlewares/Third_Party/FreeRTOS/Source/stream_buffer.c **** BaseType_t xReturn;
1032:Middlewares/Third_Party/FreeRTOS/Source/stream_buffer.c **** UBaseType_t uxSavedInterruptStatus;
1033:Middlewares/Third_Party/FreeRTOS/Source/stream_buffer.c **** 
1034:Middlewares/Third_Party/FreeRTOS/Source/stream_buffer.c **** 	configASSERT( pxStreamBuffer );
1035:Middlewares/Third_Party/FreeRTOS/Source/stream_buffer.c **** 
1036:Middlewares/Third_Party/FreeRTOS/Source/stream_buffer.c **** 	uxSavedInterruptStatus = ( UBaseType_t ) portSET_INTERRUPT_MASK_FROM_ISR();
1037:Middlewares/Third_Party/FreeRTOS/Source/stream_buffer.c **** 	{
1038:Middlewares/Third_Party/FreeRTOS/Source/stream_buffer.c **** 		if( ( pxStreamBuffer )->xTaskWaitingToReceive != NULL )
1039:Middlewares/Third_Party/FreeRTOS/Source/stream_buffer.c **** 		{
1040:Middlewares/Third_Party/FreeRTOS/Source/stream_buffer.c **** 			( void ) xTaskNotifyFromISR( ( pxStreamBuffer )->xTaskWaitingToReceive,
1041:Middlewares/Third_Party/FreeRTOS/Source/stream_buffer.c **** 										 ( uint32_t ) 0,
1042:Middlewares/Third_Party/FreeRTOS/Source/stream_buffer.c **** 										 eNoAction,
1043:Middlewares/Third_Party/FreeRTOS/Source/stream_buffer.c **** 										 pxHigherPriorityTaskWoken );
1044:Middlewares/Third_Party/FreeRTOS/Source/stream_buffer.c **** 			( pxStreamBuffer )->xTaskWaitingToReceive = NULL;
1045:Middlewares/Third_Party/FreeRTOS/Source/stream_buffer.c **** 			xReturn = pdTRUE;
1046:Middlewares/Third_Party/FreeRTOS/Source/stream_buffer.c **** 		}
1047:Middlewares/Third_Party/FreeRTOS/Source/stream_buffer.c **** 		else
1048:Middlewares/Third_Party/FreeRTOS/Source/stream_buffer.c **** 		{
1049:Middlewares/Third_Party/FreeRTOS/Source/stream_buffer.c **** 			xReturn = pdFALSE;
1050:Middlewares/Third_Party/FreeRTOS/Source/stream_buffer.c **** 		}
1051:Middlewares/Third_Party/FreeRTOS/Source/stream_buffer.c **** 	}
1052:Middlewares/Third_Party/FreeRTOS/Source/stream_buffer.c **** 	portCLEAR_INTERRUPT_MASK_FROM_ISR( uxSavedInterruptStatus );
1053:Middlewares/Third_Party/FreeRTOS/Source/stream_buffer.c **** 
1054:Middlewares/Third_Party/FreeRTOS/Source/stream_buffer.c **** 	return xReturn;
1055:Middlewares/Third_Party/FreeRTOS/Source/stream_buffer.c **** }
1056:Middlewares/Third_Party/FreeRTOS/Source/stream_buffer.c **** /*-----------------------------------------------------------*/
1057:Middlewares/Third_Party/FreeRTOS/Source/stream_buffer.c **** 
1058:Middlewares/Third_Party/FreeRTOS/Source/stream_buffer.c **** BaseType_t xStreamBufferReceiveCompletedFromISR( StreamBufferHandle_t xStreamBuffer, BaseType_t *px
ARM GAS  /tmp/cc9Iu9BV.s 			page 20


1059:Middlewares/Third_Party/FreeRTOS/Source/stream_buffer.c **** {
1060:Middlewares/Third_Party/FreeRTOS/Source/stream_buffer.c **** StreamBuffer_t * const pxStreamBuffer = xStreamBuffer;
1061:Middlewares/Third_Party/FreeRTOS/Source/stream_buffer.c **** BaseType_t xReturn;
1062:Middlewares/Third_Party/FreeRTOS/Source/stream_buffer.c **** UBaseType_t uxSavedInterruptStatus;
1063:Middlewares/Third_Party/FreeRTOS/Source/stream_buffer.c **** 
1064:Middlewares/Third_Party/FreeRTOS/Source/stream_buffer.c **** 	configASSERT( pxStreamBuffer );
1065:Middlewares/Third_Party/FreeRTOS/Source/stream_buffer.c **** 
1066:Middlewares/Third_Party/FreeRTOS/Source/stream_buffer.c **** 	uxSavedInterruptStatus = ( UBaseType_t ) portSET_INTERRUPT_MASK_FROM_ISR();
1067:Middlewares/Third_Party/FreeRTOS/Source/stream_buffer.c **** 	{
1068:Middlewares/Third_Party/FreeRTOS/Source/stream_buffer.c **** 		if( ( pxStreamBuffer )->xTaskWaitingToSend != NULL )
1069:Middlewares/Third_Party/FreeRTOS/Source/stream_buffer.c **** 		{
1070:Middlewares/Third_Party/FreeRTOS/Source/stream_buffer.c **** 			( void ) xTaskNotifyFromISR( ( pxStreamBuffer )->xTaskWaitingToSend,
1071:Middlewares/Third_Party/FreeRTOS/Source/stream_buffer.c **** 										 ( uint32_t ) 0,
1072:Middlewares/Third_Party/FreeRTOS/Source/stream_buffer.c **** 										 eNoAction,
1073:Middlewares/Third_Party/FreeRTOS/Source/stream_buffer.c **** 										 pxHigherPriorityTaskWoken );
1074:Middlewares/Third_Party/FreeRTOS/Source/stream_buffer.c **** 			( pxStreamBuffer )->xTaskWaitingToSend = NULL;
1075:Middlewares/Third_Party/FreeRTOS/Source/stream_buffer.c **** 			xReturn = pdTRUE;
1076:Middlewares/Third_Party/FreeRTOS/Source/stream_buffer.c **** 		}
1077:Middlewares/Third_Party/FreeRTOS/Source/stream_buffer.c **** 		else
1078:Middlewares/Third_Party/FreeRTOS/Source/stream_buffer.c **** 		{
1079:Middlewares/Third_Party/FreeRTOS/Source/stream_buffer.c **** 			xReturn = pdFALSE;
1080:Middlewares/Third_Party/FreeRTOS/Source/stream_buffer.c **** 		}
1081:Middlewares/Third_Party/FreeRTOS/Source/stream_buffer.c **** 	}
1082:Middlewares/Third_Party/FreeRTOS/Source/stream_buffer.c **** 	portCLEAR_INTERRUPT_MASK_FROM_ISR( uxSavedInterruptStatus );
1083:Middlewares/Third_Party/FreeRTOS/Source/stream_buffer.c **** 
1084:Middlewares/Third_Party/FreeRTOS/Source/stream_buffer.c **** 	return xReturn;
1085:Middlewares/Third_Party/FreeRTOS/Source/stream_buffer.c **** }
1086:Middlewares/Third_Party/FreeRTOS/Source/stream_buffer.c **** /*-----------------------------------------------------------*/
1087:Middlewares/Third_Party/FreeRTOS/Source/stream_buffer.c **** 
1088:Middlewares/Third_Party/FreeRTOS/Source/stream_buffer.c **** static size_t prvWriteBytesToBuffer( StreamBuffer_t * const pxStreamBuffer, const uint8_t *pucData,
1089:Middlewares/Third_Party/FreeRTOS/Source/stream_buffer.c **** {
1090:Middlewares/Third_Party/FreeRTOS/Source/stream_buffer.c **** size_t xNextHead, xFirstLength;
1091:Middlewares/Third_Party/FreeRTOS/Source/stream_buffer.c **** 
1092:Middlewares/Third_Party/FreeRTOS/Source/stream_buffer.c **** 	configASSERT( xCount > ( size_t ) 0 );
1093:Middlewares/Third_Party/FreeRTOS/Source/stream_buffer.c **** 
1094:Middlewares/Third_Party/FreeRTOS/Source/stream_buffer.c **** 	xNextHead = pxStreamBuffer->xHead;
1095:Middlewares/Third_Party/FreeRTOS/Source/stream_buffer.c **** 
1096:Middlewares/Third_Party/FreeRTOS/Source/stream_buffer.c **** 	/* Calculate the number of bytes that can be added in the first write -
1097:Middlewares/Third_Party/FreeRTOS/Source/stream_buffer.c **** 	which may be less than the total number of bytes that need to be added if
1098:Middlewares/Third_Party/FreeRTOS/Source/stream_buffer.c **** 	the buffer will wrap back to the beginning. */
1099:Middlewares/Third_Party/FreeRTOS/Source/stream_buffer.c **** 	xFirstLength = configMIN( pxStreamBuffer->xLength - xNextHead, xCount );
1100:Middlewares/Third_Party/FreeRTOS/Source/stream_buffer.c **** 
1101:Middlewares/Third_Party/FreeRTOS/Source/stream_buffer.c **** 	/* Write as many bytes as can be written in the first write. */
1102:Middlewares/Third_Party/FreeRTOS/Source/stream_buffer.c **** 	configASSERT( ( xNextHead + xFirstLength ) <= pxStreamBuffer->xLength );
1103:Middlewares/Third_Party/FreeRTOS/Source/stream_buffer.c **** 	( void ) memcpy( ( void* ) ( &( pxStreamBuffer->pucBuffer[ xNextHead ] ) ), ( const void * ) pucDa
1104:Middlewares/Third_Party/FreeRTOS/Source/stream_buffer.c **** 
1105:Middlewares/Third_Party/FreeRTOS/Source/stream_buffer.c **** 	/* If the number of bytes written was less than the number that could be
1106:Middlewares/Third_Party/FreeRTOS/Source/stream_buffer.c **** 	written in the first write... */
1107:Middlewares/Third_Party/FreeRTOS/Source/stream_buffer.c **** 	if( xCount > xFirstLength )
1108:Middlewares/Third_Party/FreeRTOS/Source/stream_buffer.c **** 	{
1109:Middlewares/Third_Party/FreeRTOS/Source/stream_buffer.c **** 		/* ...then write the remaining bytes to the start of the buffer. */
1110:Middlewares/Third_Party/FreeRTOS/Source/stream_buffer.c **** 		configASSERT( ( xCount - xFirstLength ) <= pxStreamBuffer->xLength );
1111:Middlewares/Third_Party/FreeRTOS/Source/stream_buffer.c **** 		( void ) memcpy( ( void * ) pxStreamBuffer->pucBuffer, ( const void * ) &( pucData[ xFirstLength 
1112:Middlewares/Third_Party/FreeRTOS/Source/stream_buffer.c **** 	}
1113:Middlewares/Third_Party/FreeRTOS/Source/stream_buffer.c **** 	else
1114:Middlewares/Third_Party/FreeRTOS/Source/stream_buffer.c **** 	{
1115:Middlewares/Third_Party/FreeRTOS/Source/stream_buffer.c **** 		mtCOVERAGE_TEST_MARKER();
ARM GAS  /tmp/cc9Iu9BV.s 			page 21


1116:Middlewares/Third_Party/FreeRTOS/Source/stream_buffer.c **** 	}
1117:Middlewares/Third_Party/FreeRTOS/Source/stream_buffer.c **** 
1118:Middlewares/Third_Party/FreeRTOS/Source/stream_buffer.c **** 	xNextHead += xCount;
1119:Middlewares/Third_Party/FreeRTOS/Source/stream_buffer.c **** 	if( xNextHead >= pxStreamBuffer->xLength )
1120:Middlewares/Third_Party/FreeRTOS/Source/stream_buffer.c **** 	{
1121:Middlewares/Third_Party/FreeRTOS/Source/stream_buffer.c **** 		xNextHead -= pxStreamBuffer->xLength;
1122:Middlewares/Third_Party/FreeRTOS/Source/stream_buffer.c **** 	}
1123:Middlewares/Third_Party/FreeRTOS/Source/stream_buffer.c **** 	else
1124:Middlewares/Third_Party/FreeRTOS/Source/stream_buffer.c **** 	{
1125:Middlewares/Third_Party/FreeRTOS/Source/stream_buffer.c **** 		mtCOVERAGE_TEST_MARKER();
1126:Middlewares/Third_Party/FreeRTOS/Source/stream_buffer.c **** 	}
1127:Middlewares/Third_Party/FreeRTOS/Source/stream_buffer.c **** 
1128:Middlewares/Third_Party/FreeRTOS/Source/stream_buffer.c **** 	pxStreamBuffer->xHead = xNextHead;
1129:Middlewares/Third_Party/FreeRTOS/Source/stream_buffer.c **** 
1130:Middlewares/Third_Party/FreeRTOS/Source/stream_buffer.c **** 	return xCount;
1131:Middlewares/Third_Party/FreeRTOS/Source/stream_buffer.c **** }
1132:Middlewares/Third_Party/FreeRTOS/Source/stream_buffer.c **** /*-----------------------------------------------------------*/
1133:Middlewares/Third_Party/FreeRTOS/Source/stream_buffer.c **** 
1134:Middlewares/Third_Party/FreeRTOS/Source/stream_buffer.c **** static size_t prvReadBytesFromBuffer( StreamBuffer_t *pxStreamBuffer, uint8_t *pucData, size_t xMax
1135:Middlewares/Third_Party/FreeRTOS/Source/stream_buffer.c **** {
1136:Middlewares/Third_Party/FreeRTOS/Source/stream_buffer.c **** size_t xCount, xFirstLength, xNextTail;
1137:Middlewares/Third_Party/FreeRTOS/Source/stream_buffer.c **** 
1138:Middlewares/Third_Party/FreeRTOS/Source/stream_buffer.c **** 	/* Use the minimum of the wanted bytes and the available bytes. */
1139:Middlewares/Third_Party/FreeRTOS/Source/stream_buffer.c **** 	xCount = configMIN( xBytesAvailable, xMaxCount );
1140:Middlewares/Third_Party/FreeRTOS/Source/stream_buffer.c **** 
1141:Middlewares/Third_Party/FreeRTOS/Source/stream_buffer.c **** 	if( xCount > ( size_t ) 0 )
1142:Middlewares/Third_Party/FreeRTOS/Source/stream_buffer.c **** 	{
1143:Middlewares/Third_Party/FreeRTOS/Source/stream_buffer.c **** 		xNextTail = pxStreamBuffer->xTail;
1144:Middlewares/Third_Party/FreeRTOS/Source/stream_buffer.c **** 
1145:Middlewares/Third_Party/FreeRTOS/Source/stream_buffer.c **** 		/* Calculate the number of bytes that can be read - which may be
1146:Middlewares/Third_Party/FreeRTOS/Source/stream_buffer.c **** 		less than the number wanted if the data wraps around to the start of
1147:Middlewares/Third_Party/FreeRTOS/Source/stream_buffer.c **** 		the buffer. */
1148:Middlewares/Third_Party/FreeRTOS/Source/stream_buffer.c **** 		xFirstLength = configMIN( pxStreamBuffer->xLength - xNextTail, xCount );
1149:Middlewares/Third_Party/FreeRTOS/Source/stream_buffer.c **** 
1150:Middlewares/Third_Party/FreeRTOS/Source/stream_buffer.c **** 		/* Obtain the number of bytes it is possible to obtain in the first
1151:Middlewares/Third_Party/FreeRTOS/Source/stream_buffer.c **** 		read.  Asserts check bounds of read and write. */
1152:Middlewares/Third_Party/FreeRTOS/Source/stream_buffer.c **** 		configASSERT( xFirstLength <= xMaxCount );
1153:Middlewares/Third_Party/FreeRTOS/Source/stream_buffer.c **** 		configASSERT( ( xNextTail + xFirstLength ) <= pxStreamBuffer->xLength );
1154:Middlewares/Third_Party/FreeRTOS/Source/stream_buffer.c **** 		( void ) memcpy( ( void * ) pucData, ( const void * ) &( pxStreamBuffer->pucBuffer[ xNextTail ] )
1155:Middlewares/Third_Party/FreeRTOS/Source/stream_buffer.c **** 
1156:Middlewares/Third_Party/FreeRTOS/Source/stream_buffer.c **** 		/* If the total number of wanted bytes is greater than the number
1157:Middlewares/Third_Party/FreeRTOS/Source/stream_buffer.c **** 		that could be read in the first read... */
1158:Middlewares/Third_Party/FreeRTOS/Source/stream_buffer.c **** 		if( xCount > xFirstLength )
1159:Middlewares/Third_Party/FreeRTOS/Source/stream_buffer.c **** 		{
1160:Middlewares/Third_Party/FreeRTOS/Source/stream_buffer.c **** 			/*...then read the remaining bytes from the start of the buffer. */
1161:Middlewares/Third_Party/FreeRTOS/Source/stream_buffer.c **** 			configASSERT( xCount <= xMaxCount );
1162:Middlewares/Third_Party/FreeRTOS/Source/stream_buffer.c **** 			( void ) memcpy( ( void * ) &( pucData[ xFirstLength ] ), ( void * ) ( pxStreamBuffer->pucBuffer
1163:Middlewares/Third_Party/FreeRTOS/Source/stream_buffer.c **** 		}
1164:Middlewares/Third_Party/FreeRTOS/Source/stream_buffer.c **** 		else
1165:Middlewares/Third_Party/FreeRTOS/Source/stream_buffer.c **** 		{
1166:Middlewares/Third_Party/FreeRTOS/Source/stream_buffer.c **** 			mtCOVERAGE_TEST_MARKER();
1167:Middlewares/Third_Party/FreeRTOS/Source/stream_buffer.c **** 		}
1168:Middlewares/Third_Party/FreeRTOS/Source/stream_buffer.c **** 
1169:Middlewares/Third_Party/FreeRTOS/Source/stream_buffer.c **** 		/* Move the tail pointer to effectively remove the data read from
1170:Middlewares/Third_Party/FreeRTOS/Source/stream_buffer.c **** 		the buffer. */
1171:Middlewares/Third_Party/FreeRTOS/Source/stream_buffer.c **** 		xNextTail += xCount;
1172:Middlewares/Third_Party/FreeRTOS/Source/stream_buffer.c **** 
ARM GAS  /tmp/cc9Iu9BV.s 			page 22


1173:Middlewares/Third_Party/FreeRTOS/Source/stream_buffer.c **** 		if( xNextTail >= pxStreamBuffer->xLength )
1174:Middlewares/Third_Party/FreeRTOS/Source/stream_buffer.c **** 		{
1175:Middlewares/Third_Party/FreeRTOS/Source/stream_buffer.c **** 			xNextTail -= pxStreamBuffer->xLength;
1176:Middlewares/Third_Party/FreeRTOS/Source/stream_buffer.c **** 		}
1177:Middlewares/Third_Party/FreeRTOS/Source/stream_buffer.c **** 
1178:Middlewares/Third_Party/FreeRTOS/Source/stream_buffer.c **** 		pxStreamBuffer->xTail = xNextTail;
1179:Middlewares/Third_Party/FreeRTOS/Source/stream_buffer.c **** 	}
1180:Middlewares/Third_Party/FreeRTOS/Source/stream_buffer.c **** 	else
1181:Middlewares/Third_Party/FreeRTOS/Source/stream_buffer.c **** 	{
1182:Middlewares/Third_Party/FreeRTOS/Source/stream_buffer.c **** 		mtCOVERAGE_TEST_MARKER();
1183:Middlewares/Third_Party/FreeRTOS/Source/stream_buffer.c **** 	}
1184:Middlewares/Third_Party/FreeRTOS/Source/stream_buffer.c **** 
1185:Middlewares/Third_Party/FreeRTOS/Source/stream_buffer.c **** 	return xCount;
1186:Middlewares/Third_Party/FreeRTOS/Source/stream_buffer.c **** }
1187:Middlewares/Third_Party/FreeRTOS/Source/stream_buffer.c **** /*-----------------------------------------------------------*/
1188:Middlewares/Third_Party/FreeRTOS/Source/stream_buffer.c **** 
1189:Middlewares/Third_Party/FreeRTOS/Source/stream_buffer.c **** static size_t prvBytesInBuffer( const StreamBuffer_t * const pxStreamBuffer )
1190:Middlewares/Third_Party/FreeRTOS/Source/stream_buffer.c **** {
  27              		.loc 1 1190 0
  28              		.cfi_startproc
  29              		@ args = 0, pretend = 0, frame = 0
  30              		@ frame_needed = 0, uses_anonymous_args = 0
  31              		@ link register save eliminated.
  32              	.LVL0:
1191:Middlewares/Third_Party/FreeRTOS/Source/stream_buffer.c **** /* Returns the distance between xTail and xHead. */
1192:Middlewares/Third_Party/FreeRTOS/Source/stream_buffer.c **** size_t xCount;
1193:Middlewares/Third_Party/FreeRTOS/Source/stream_buffer.c **** 
1194:Middlewares/Third_Party/FreeRTOS/Source/stream_buffer.c **** 	xCount = pxStreamBuffer->xLength + pxStreamBuffer->xHead;
  33              		.loc 1 1194 0
  34 0000 8268     		ldr	r2, [r0, #8]
  35 0002 4368     		ldr	r3, [r0, #4]
  36 0004 1344     		add	r3, r3, r2
  37              	.LVL1:
1195:Middlewares/Third_Party/FreeRTOS/Source/stream_buffer.c **** 	xCount -= pxStreamBuffer->xTail;
  38              		.loc 1 1195 0
  39 0006 0068     		ldr	r0, [r0]
  40              	.LVL2:
  41 0008 181A     		subs	r0, r3, r0
  42              	.LVL3:
1196:Middlewares/Third_Party/FreeRTOS/Source/stream_buffer.c **** 	if ( xCount >= pxStreamBuffer->xLength )
  43              		.loc 1 1196 0
  44 000a 8242     		cmp	r2, r0
  45 000c 00D8     		bhi	.L1
1197:Middlewares/Third_Party/FreeRTOS/Source/stream_buffer.c **** 	{
1198:Middlewares/Third_Party/FreeRTOS/Source/stream_buffer.c **** 		xCount -= pxStreamBuffer->xLength;
  46              		.loc 1 1198 0
  47 000e 801A     		subs	r0, r0, r2
  48              	.LVL4:
  49              	.L1:
1199:Middlewares/Third_Party/FreeRTOS/Source/stream_buffer.c **** 	}
1200:Middlewares/Third_Party/FreeRTOS/Source/stream_buffer.c **** 	else
1201:Middlewares/Third_Party/FreeRTOS/Source/stream_buffer.c **** 	{
1202:Middlewares/Third_Party/FreeRTOS/Source/stream_buffer.c **** 		mtCOVERAGE_TEST_MARKER();
1203:Middlewares/Third_Party/FreeRTOS/Source/stream_buffer.c **** 	}
1204:Middlewares/Third_Party/FreeRTOS/Source/stream_buffer.c **** 
1205:Middlewares/Third_Party/FreeRTOS/Source/stream_buffer.c **** 	return xCount;
1206:Middlewares/Third_Party/FreeRTOS/Source/stream_buffer.c **** }
ARM GAS  /tmp/cc9Iu9BV.s 			page 23


  50              		.loc 1 1206 0
  51 0010 7047     		bx	lr
  52              		.cfi_endproc
  53              	.LFE24:
  55              		.section	.text.prvInitialiseNewStreamBuffer,"ax",%progbits
  56              		.align	1
  57              		.syntax unified
  58              		.thumb
  59              		.thumb_func
  60              		.fpu fpv4-sp-d16
  62              	prvInitialiseNewStreamBuffer:
  63              	.LFB25:
1207:Middlewares/Third_Party/FreeRTOS/Source/stream_buffer.c **** /*-----------------------------------------------------------*/
1208:Middlewares/Third_Party/FreeRTOS/Source/stream_buffer.c **** 
1209:Middlewares/Third_Party/FreeRTOS/Source/stream_buffer.c **** static void prvInitialiseNewStreamBuffer( StreamBuffer_t * const pxStreamBuffer,
1210:Middlewares/Third_Party/FreeRTOS/Source/stream_buffer.c **** 										  uint8_t * const pucBuffer,
1211:Middlewares/Third_Party/FreeRTOS/Source/stream_buffer.c **** 										  size_t xBufferSizeBytes,
1212:Middlewares/Third_Party/FreeRTOS/Source/stream_buffer.c **** 										  size_t xTriggerLevelBytes,
1213:Middlewares/Third_Party/FreeRTOS/Source/stream_buffer.c **** 										  uint8_t ucFlags )
1214:Middlewares/Third_Party/FreeRTOS/Source/stream_buffer.c **** {
  64              		.loc 1 1214 0
  65              		.cfi_startproc
  66              		@ args = 4, pretend = 0, frame = 0
  67              		@ frame_needed = 0, uses_anonymous_args = 0
  68              	.LVL5:
  69 0000 F8B5     		push	{r3, r4, r5, r6, r7, lr}
  70              	.LCFI0:
  71              		.cfi_def_cfa_offset 24
  72              		.cfi_offset 3, -24
  73              		.cfi_offset 4, -20
  74              		.cfi_offset 5, -16
  75              		.cfi_offset 6, -12
  76              		.cfi_offset 7, -8
  77              		.cfi_offset 14, -4
  78 0002 0446     		mov	r4, r0
  79 0004 0D46     		mov	r5, r1
  80 0006 1746     		mov	r7, r2
  81 0008 1E46     		mov	r6, r3
  82              	.LVL6:
  83              	.LBB96:
1215:Middlewares/Third_Party/FreeRTOS/Source/stream_buffer.c **** 	/* Assert here is deliberately writing to the entire buffer to ensure it can
1216:Middlewares/Third_Party/FreeRTOS/Source/stream_buffer.c **** 	be written to without generating exceptions, and is setting the buffer to a
1217:Middlewares/Third_Party/FreeRTOS/Source/stream_buffer.c **** 	known value to assist in development/debugging. */
1218:Middlewares/Third_Party/FreeRTOS/Source/stream_buffer.c **** 	#if( configASSERT_DEFINED == 1 )
1219:Middlewares/Third_Party/FreeRTOS/Source/stream_buffer.c **** 	{
1220:Middlewares/Third_Party/FreeRTOS/Source/stream_buffer.c **** 		/* The value written just has to be identifiable when looking at the
1221:Middlewares/Third_Party/FreeRTOS/Source/stream_buffer.c **** 		memory.  Don't use 0xA5 as that is the stack fill value and could
1222:Middlewares/Third_Party/FreeRTOS/Source/stream_buffer.c **** 		result in confusion as to what is actually being observed. */
1223:Middlewares/Third_Party/FreeRTOS/Source/stream_buffer.c **** 		const BaseType_t xWriteValue = 0x55;
1224:Middlewares/Third_Party/FreeRTOS/Source/stream_buffer.c **** 		configASSERT( memset( pucBuffer, ( int ) xWriteValue, xBufferSizeBytes ) == pucBuffer );
  84              		.loc 1 1224 0
  85 000a 5521     		movs	r1, #85
  86              	.LVL7:
  87 000c 2846     		mov	r0, r5
  88              	.LVL8:
  89 000e FFF7FEFF 		bl	memset
  90              	.LVL9:
ARM GAS  /tmp/cc9Iu9BV.s 			page 24


  91 0012 8542     		cmp	r5, r0
  92 0014 08D0     		beq	.L4
  93              	.LBB97:
  94              	.LBB98:
  95              		.file 2 "Middlewares/Third_Party/FreeRTOS/Source/portable/GCC/ARM_CM4F/portmacro.h"
   1:Middlewares/Third_Party/FreeRTOS/Source/portable/GCC/ARM_CM4F/portmacro.h **** /*
   2:Middlewares/Third_Party/FreeRTOS/Source/portable/GCC/ARM_CM4F/portmacro.h ****  * FreeRTOS Kernel V10.2.1
   3:Middlewares/Third_Party/FreeRTOS/Source/portable/GCC/ARM_CM4F/portmacro.h ****  * Copyright (C) 2019 Amazon.com, Inc. or its affiliates.  All Rights Reserved.
   4:Middlewares/Third_Party/FreeRTOS/Source/portable/GCC/ARM_CM4F/portmacro.h ****  *
   5:Middlewares/Third_Party/FreeRTOS/Source/portable/GCC/ARM_CM4F/portmacro.h ****  * Permission is hereby granted, free of charge, to any person obtaining a copy of
   6:Middlewares/Third_Party/FreeRTOS/Source/portable/GCC/ARM_CM4F/portmacro.h ****  * this software and associated documentation files (the "Software"), to deal in
   7:Middlewares/Third_Party/FreeRTOS/Source/portable/GCC/ARM_CM4F/portmacro.h ****  * the Software without restriction, including without limitation the rights to
   8:Middlewares/Third_Party/FreeRTOS/Source/portable/GCC/ARM_CM4F/portmacro.h ****  * use, copy, modify, merge, publish, distribute, sublicense, and/or sell copies of
   9:Middlewares/Third_Party/FreeRTOS/Source/portable/GCC/ARM_CM4F/portmacro.h ****  * the Software, and to permit persons to whom the Software is furnished to do so,
  10:Middlewares/Third_Party/FreeRTOS/Source/portable/GCC/ARM_CM4F/portmacro.h ****  * subject to the following conditions:
  11:Middlewares/Third_Party/FreeRTOS/Source/portable/GCC/ARM_CM4F/portmacro.h ****  *
  12:Middlewares/Third_Party/FreeRTOS/Source/portable/GCC/ARM_CM4F/portmacro.h ****  * The above copyright notice and this permission notice shall be included in all
  13:Middlewares/Third_Party/FreeRTOS/Source/portable/GCC/ARM_CM4F/portmacro.h ****  * copies or substantial portions of the Software.
  14:Middlewares/Third_Party/FreeRTOS/Source/portable/GCC/ARM_CM4F/portmacro.h ****  *
  15:Middlewares/Third_Party/FreeRTOS/Source/portable/GCC/ARM_CM4F/portmacro.h ****  * THE SOFTWARE IS PROVIDED "AS IS", WITHOUT WARRANTY OF ANY KIND, EXPRESS OR
  16:Middlewares/Third_Party/FreeRTOS/Source/portable/GCC/ARM_CM4F/portmacro.h ****  * IMPLIED, INCLUDING BUT NOT LIMITED TO THE WARRANTIES OF MERCHANTABILITY, FITNESS
  17:Middlewares/Third_Party/FreeRTOS/Source/portable/GCC/ARM_CM4F/portmacro.h ****  * FOR A PARTICULAR PURPOSE AND NONINFRINGEMENT. IN NO EVENT SHALL THE AUTHORS OR
  18:Middlewares/Third_Party/FreeRTOS/Source/portable/GCC/ARM_CM4F/portmacro.h ****  * COPYRIGHT HOLDERS BE LIABLE FOR ANY CLAIM, DAMAGES OR OTHER LIABILITY, WHETHER
  19:Middlewares/Third_Party/FreeRTOS/Source/portable/GCC/ARM_CM4F/portmacro.h ****  * IN AN ACTION OF CONTRACT, TORT OR OTHERWISE, ARISING FROM, OUT OF OR IN
  20:Middlewares/Third_Party/FreeRTOS/Source/portable/GCC/ARM_CM4F/portmacro.h ****  * CONNECTION WITH THE SOFTWARE OR THE USE OR OTHER DEALINGS IN THE SOFTWARE.
  21:Middlewares/Third_Party/FreeRTOS/Source/portable/GCC/ARM_CM4F/portmacro.h ****  *
  22:Middlewares/Third_Party/FreeRTOS/Source/portable/GCC/ARM_CM4F/portmacro.h ****  * http://www.FreeRTOS.org
  23:Middlewares/Third_Party/FreeRTOS/Source/portable/GCC/ARM_CM4F/portmacro.h ****  * http://aws.amazon.com/freertos
  24:Middlewares/Third_Party/FreeRTOS/Source/portable/GCC/ARM_CM4F/portmacro.h ****  *
  25:Middlewares/Third_Party/FreeRTOS/Source/portable/GCC/ARM_CM4F/portmacro.h ****  * 1 tab == 4 spaces!
  26:Middlewares/Third_Party/FreeRTOS/Source/portable/GCC/ARM_CM4F/portmacro.h ****  */
  27:Middlewares/Third_Party/FreeRTOS/Source/portable/GCC/ARM_CM4F/portmacro.h **** 
  28:Middlewares/Third_Party/FreeRTOS/Source/portable/GCC/ARM_CM4F/portmacro.h **** 
  29:Middlewares/Third_Party/FreeRTOS/Source/portable/GCC/ARM_CM4F/portmacro.h **** #ifndef PORTMACRO_H
  30:Middlewares/Third_Party/FreeRTOS/Source/portable/GCC/ARM_CM4F/portmacro.h **** #define PORTMACRO_H
  31:Middlewares/Third_Party/FreeRTOS/Source/portable/GCC/ARM_CM4F/portmacro.h **** 
  32:Middlewares/Third_Party/FreeRTOS/Source/portable/GCC/ARM_CM4F/portmacro.h **** #ifdef __cplusplus
  33:Middlewares/Third_Party/FreeRTOS/Source/portable/GCC/ARM_CM4F/portmacro.h **** extern "C" {
  34:Middlewares/Third_Party/FreeRTOS/Source/portable/GCC/ARM_CM4F/portmacro.h **** #endif
  35:Middlewares/Third_Party/FreeRTOS/Source/portable/GCC/ARM_CM4F/portmacro.h **** 
  36:Middlewares/Third_Party/FreeRTOS/Source/portable/GCC/ARM_CM4F/portmacro.h **** /*-----------------------------------------------------------
  37:Middlewares/Third_Party/FreeRTOS/Source/portable/GCC/ARM_CM4F/portmacro.h ****  * Port specific definitions.
  38:Middlewares/Third_Party/FreeRTOS/Source/portable/GCC/ARM_CM4F/portmacro.h ****  *
  39:Middlewares/Third_Party/FreeRTOS/Source/portable/GCC/ARM_CM4F/portmacro.h ****  * The settings in this file configure FreeRTOS correctly for the
  40:Middlewares/Third_Party/FreeRTOS/Source/portable/GCC/ARM_CM4F/portmacro.h ****  * given hardware and compiler.
  41:Middlewares/Third_Party/FreeRTOS/Source/portable/GCC/ARM_CM4F/portmacro.h ****  *
  42:Middlewares/Third_Party/FreeRTOS/Source/portable/GCC/ARM_CM4F/portmacro.h ****  * These settings should not be altered.
  43:Middlewares/Third_Party/FreeRTOS/Source/portable/GCC/ARM_CM4F/portmacro.h ****  *-----------------------------------------------------------
  44:Middlewares/Third_Party/FreeRTOS/Source/portable/GCC/ARM_CM4F/portmacro.h ****  */
  45:Middlewares/Third_Party/FreeRTOS/Source/portable/GCC/ARM_CM4F/portmacro.h **** 
  46:Middlewares/Third_Party/FreeRTOS/Source/portable/GCC/ARM_CM4F/portmacro.h **** /* Type definitions. */
  47:Middlewares/Third_Party/FreeRTOS/Source/portable/GCC/ARM_CM4F/portmacro.h **** #define portCHAR		char
  48:Middlewares/Third_Party/FreeRTOS/Source/portable/GCC/ARM_CM4F/portmacro.h **** #define portFLOAT		float
  49:Middlewares/Third_Party/FreeRTOS/Source/portable/GCC/ARM_CM4F/portmacro.h **** #define portDOUBLE		double
  50:Middlewares/Third_Party/FreeRTOS/Source/portable/GCC/ARM_CM4F/portmacro.h **** #define portLONG		long
  51:Middlewares/Third_Party/FreeRTOS/Source/portable/GCC/ARM_CM4F/portmacro.h **** #define portSHORT		short
  52:Middlewares/Third_Party/FreeRTOS/Source/portable/GCC/ARM_CM4F/portmacro.h **** #define portSTACK_TYPE	uint32_t
ARM GAS  /tmp/cc9Iu9BV.s 			page 25


  53:Middlewares/Third_Party/FreeRTOS/Source/portable/GCC/ARM_CM4F/portmacro.h **** #define portBASE_TYPE	long
  54:Middlewares/Third_Party/FreeRTOS/Source/portable/GCC/ARM_CM4F/portmacro.h **** 
  55:Middlewares/Third_Party/FreeRTOS/Source/portable/GCC/ARM_CM4F/portmacro.h **** typedef portSTACK_TYPE StackType_t;
  56:Middlewares/Third_Party/FreeRTOS/Source/portable/GCC/ARM_CM4F/portmacro.h **** typedef long BaseType_t;
  57:Middlewares/Third_Party/FreeRTOS/Source/portable/GCC/ARM_CM4F/portmacro.h **** typedef unsigned long UBaseType_t;
  58:Middlewares/Third_Party/FreeRTOS/Source/portable/GCC/ARM_CM4F/portmacro.h **** 
  59:Middlewares/Third_Party/FreeRTOS/Source/portable/GCC/ARM_CM4F/portmacro.h **** #if( configUSE_16_BIT_TICKS == 1 )
  60:Middlewares/Third_Party/FreeRTOS/Source/portable/GCC/ARM_CM4F/portmacro.h **** 	typedef uint16_t TickType_t;
  61:Middlewares/Third_Party/FreeRTOS/Source/portable/GCC/ARM_CM4F/portmacro.h **** 	#define portMAX_DELAY ( TickType_t ) 0xffff
  62:Middlewares/Third_Party/FreeRTOS/Source/portable/GCC/ARM_CM4F/portmacro.h **** #else
  63:Middlewares/Third_Party/FreeRTOS/Source/portable/GCC/ARM_CM4F/portmacro.h **** 	typedef uint32_t TickType_t;
  64:Middlewares/Third_Party/FreeRTOS/Source/portable/GCC/ARM_CM4F/portmacro.h **** 	#define portMAX_DELAY ( TickType_t ) 0xffffffffUL
  65:Middlewares/Third_Party/FreeRTOS/Source/portable/GCC/ARM_CM4F/portmacro.h **** 
  66:Middlewares/Third_Party/FreeRTOS/Source/portable/GCC/ARM_CM4F/portmacro.h **** 	/* 32-bit tick type on a 32-bit architecture, so reads of the tick count do
  67:Middlewares/Third_Party/FreeRTOS/Source/portable/GCC/ARM_CM4F/portmacro.h **** 	not need to be guarded with a critical section. */
  68:Middlewares/Third_Party/FreeRTOS/Source/portable/GCC/ARM_CM4F/portmacro.h **** 	#define portTICK_TYPE_IS_ATOMIC 1
  69:Middlewares/Third_Party/FreeRTOS/Source/portable/GCC/ARM_CM4F/portmacro.h **** #endif
  70:Middlewares/Third_Party/FreeRTOS/Source/portable/GCC/ARM_CM4F/portmacro.h **** /*-----------------------------------------------------------*/
  71:Middlewares/Third_Party/FreeRTOS/Source/portable/GCC/ARM_CM4F/portmacro.h **** 
  72:Middlewares/Third_Party/FreeRTOS/Source/portable/GCC/ARM_CM4F/portmacro.h **** /* Architecture specifics. */
  73:Middlewares/Third_Party/FreeRTOS/Source/portable/GCC/ARM_CM4F/portmacro.h **** #define portSTACK_GROWTH			( -1 )
  74:Middlewares/Third_Party/FreeRTOS/Source/portable/GCC/ARM_CM4F/portmacro.h **** #define portTICK_PERIOD_MS			( ( TickType_t ) 1000 / configTICK_RATE_HZ )
  75:Middlewares/Third_Party/FreeRTOS/Source/portable/GCC/ARM_CM4F/portmacro.h **** #define portBYTE_ALIGNMENT			8
  76:Middlewares/Third_Party/FreeRTOS/Source/portable/GCC/ARM_CM4F/portmacro.h **** /*-----------------------------------------------------------*/
  77:Middlewares/Third_Party/FreeRTOS/Source/portable/GCC/ARM_CM4F/portmacro.h **** 
  78:Middlewares/Third_Party/FreeRTOS/Source/portable/GCC/ARM_CM4F/portmacro.h **** /* Scheduler utilities. */
  79:Middlewares/Third_Party/FreeRTOS/Source/portable/GCC/ARM_CM4F/portmacro.h **** #define portYIELD() 															\
  80:Middlewares/Third_Party/FreeRTOS/Source/portable/GCC/ARM_CM4F/portmacro.h **** {																				\
  81:Middlewares/Third_Party/FreeRTOS/Source/portable/GCC/ARM_CM4F/portmacro.h **** 	/* Set a PendSV to request a context switch. */								\
  82:Middlewares/Third_Party/FreeRTOS/Source/portable/GCC/ARM_CM4F/portmacro.h **** 	portNVIC_INT_CTRL_REG = portNVIC_PENDSVSET_BIT;								\
  83:Middlewares/Third_Party/FreeRTOS/Source/portable/GCC/ARM_CM4F/portmacro.h **** 																				\
  84:Middlewares/Third_Party/FreeRTOS/Source/portable/GCC/ARM_CM4F/portmacro.h **** 	/* Barriers are normally not required but do ensure the code is completely	\
  85:Middlewares/Third_Party/FreeRTOS/Source/portable/GCC/ARM_CM4F/portmacro.h **** 	within the specified behaviour for the architecture. */						\
  86:Middlewares/Third_Party/FreeRTOS/Source/portable/GCC/ARM_CM4F/portmacro.h **** 	__asm volatile( "dsb" ::: "memory" );										\
  87:Middlewares/Third_Party/FreeRTOS/Source/portable/GCC/ARM_CM4F/portmacro.h **** 	__asm volatile( "isb" );													\
  88:Middlewares/Third_Party/FreeRTOS/Source/portable/GCC/ARM_CM4F/portmacro.h **** }
  89:Middlewares/Third_Party/FreeRTOS/Source/portable/GCC/ARM_CM4F/portmacro.h **** 
  90:Middlewares/Third_Party/FreeRTOS/Source/portable/GCC/ARM_CM4F/portmacro.h **** #define portNVIC_INT_CTRL_REG		( * ( ( volatile uint32_t * ) 0xe000ed04 ) )
  91:Middlewares/Third_Party/FreeRTOS/Source/portable/GCC/ARM_CM4F/portmacro.h **** #define portNVIC_PENDSVSET_BIT		( 1UL << 28UL )
  92:Middlewares/Third_Party/FreeRTOS/Source/portable/GCC/ARM_CM4F/portmacro.h **** #define portEND_SWITCHING_ISR( xSwitchRequired ) if( xSwitchRequired != pdFALSE ) portYIELD()
  93:Middlewares/Third_Party/FreeRTOS/Source/portable/GCC/ARM_CM4F/portmacro.h **** #define portYIELD_FROM_ISR( x ) portEND_SWITCHING_ISR( x )
  94:Middlewares/Third_Party/FreeRTOS/Source/portable/GCC/ARM_CM4F/portmacro.h **** /*-----------------------------------------------------------*/
  95:Middlewares/Third_Party/FreeRTOS/Source/portable/GCC/ARM_CM4F/portmacro.h **** 
  96:Middlewares/Third_Party/FreeRTOS/Source/portable/GCC/ARM_CM4F/portmacro.h **** /* Critical section management. */
  97:Middlewares/Third_Party/FreeRTOS/Source/portable/GCC/ARM_CM4F/portmacro.h **** extern void vPortEnterCritical( void );
  98:Middlewares/Third_Party/FreeRTOS/Source/portable/GCC/ARM_CM4F/portmacro.h **** extern void vPortExitCritical( void );
  99:Middlewares/Third_Party/FreeRTOS/Source/portable/GCC/ARM_CM4F/portmacro.h **** #define portSET_INTERRUPT_MASK_FROM_ISR()		ulPortRaiseBASEPRI()
 100:Middlewares/Third_Party/FreeRTOS/Source/portable/GCC/ARM_CM4F/portmacro.h **** #define portCLEAR_INTERRUPT_MASK_FROM_ISR(x)	vPortSetBASEPRI(x)
 101:Middlewares/Third_Party/FreeRTOS/Source/portable/GCC/ARM_CM4F/portmacro.h **** #define portDISABLE_INTERRUPTS()				vPortRaiseBASEPRI()
 102:Middlewares/Third_Party/FreeRTOS/Source/portable/GCC/ARM_CM4F/portmacro.h **** #define portENABLE_INTERRUPTS()					vPortSetBASEPRI(0)
 103:Middlewares/Third_Party/FreeRTOS/Source/portable/GCC/ARM_CM4F/portmacro.h **** #define portENTER_CRITICAL()					vPortEnterCritical()
 104:Middlewares/Third_Party/FreeRTOS/Source/portable/GCC/ARM_CM4F/portmacro.h **** #define portEXIT_CRITICAL()						vPortExitCritical()
 105:Middlewares/Third_Party/FreeRTOS/Source/portable/GCC/ARM_CM4F/portmacro.h **** 
 106:Middlewares/Third_Party/FreeRTOS/Source/portable/GCC/ARM_CM4F/portmacro.h **** /*-----------------------------------------------------------*/
 107:Middlewares/Third_Party/FreeRTOS/Source/portable/GCC/ARM_CM4F/portmacro.h **** 
 108:Middlewares/Third_Party/FreeRTOS/Source/portable/GCC/ARM_CM4F/portmacro.h **** /* Task function macros as described on the FreeRTOS.org WEB site.  These are
 109:Middlewares/Third_Party/FreeRTOS/Source/portable/GCC/ARM_CM4F/portmacro.h **** not necessary for to use this port.  They are defined so the common demo files
ARM GAS  /tmp/cc9Iu9BV.s 			page 26


 110:Middlewares/Third_Party/FreeRTOS/Source/portable/GCC/ARM_CM4F/portmacro.h **** (which build with all the ports) will build. */
 111:Middlewares/Third_Party/FreeRTOS/Source/portable/GCC/ARM_CM4F/portmacro.h **** #define portTASK_FUNCTION_PROTO( vFunction, pvParameters ) void vFunction( void *pvParameters )
 112:Middlewares/Third_Party/FreeRTOS/Source/portable/GCC/ARM_CM4F/portmacro.h **** #define portTASK_FUNCTION( vFunction, pvParameters ) void vFunction( void *pvParameters )
 113:Middlewares/Third_Party/FreeRTOS/Source/portable/GCC/ARM_CM4F/portmacro.h **** /*-----------------------------------------------------------*/
 114:Middlewares/Third_Party/FreeRTOS/Source/portable/GCC/ARM_CM4F/portmacro.h **** 
 115:Middlewares/Third_Party/FreeRTOS/Source/portable/GCC/ARM_CM4F/portmacro.h **** /* Tickless idle/low power functionality. */
 116:Middlewares/Third_Party/FreeRTOS/Source/portable/GCC/ARM_CM4F/portmacro.h **** #ifndef portSUPPRESS_TICKS_AND_SLEEP
 117:Middlewares/Third_Party/FreeRTOS/Source/portable/GCC/ARM_CM4F/portmacro.h **** 	extern void vPortSuppressTicksAndSleep( TickType_t xExpectedIdleTime );
 118:Middlewares/Third_Party/FreeRTOS/Source/portable/GCC/ARM_CM4F/portmacro.h **** 	#define portSUPPRESS_TICKS_AND_SLEEP( xExpectedIdleTime ) vPortSuppressTicksAndSleep( xExpectedIdl
 119:Middlewares/Third_Party/FreeRTOS/Source/portable/GCC/ARM_CM4F/portmacro.h **** #endif
 120:Middlewares/Third_Party/FreeRTOS/Source/portable/GCC/ARM_CM4F/portmacro.h **** /*-----------------------------------------------------------*/
 121:Middlewares/Third_Party/FreeRTOS/Source/portable/GCC/ARM_CM4F/portmacro.h **** 
 122:Middlewares/Third_Party/FreeRTOS/Source/portable/GCC/ARM_CM4F/portmacro.h **** /* Architecture specific optimisations. */
 123:Middlewares/Third_Party/FreeRTOS/Source/portable/GCC/ARM_CM4F/portmacro.h **** #ifndef configUSE_PORT_OPTIMISED_TASK_SELECTION
 124:Middlewares/Third_Party/FreeRTOS/Source/portable/GCC/ARM_CM4F/portmacro.h **** 	#define configUSE_PORT_OPTIMISED_TASK_SELECTION 1
 125:Middlewares/Third_Party/FreeRTOS/Source/portable/GCC/ARM_CM4F/portmacro.h **** #endif
 126:Middlewares/Third_Party/FreeRTOS/Source/portable/GCC/ARM_CM4F/portmacro.h **** 
 127:Middlewares/Third_Party/FreeRTOS/Source/portable/GCC/ARM_CM4F/portmacro.h **** #if configUSE_PORT_OPTIMISED_TASK_SELECTION == 1
 128:Middlewares/Third_Party/FreeRTOS/Source/portable/GCC/ARM_CM4F/portmacro.h **** 
 129:Middlewares/Third_Party/FreeRTOS/Source/portable/GCC/ARM_CM4F/portmacro.h **** 	/* Generic helper function. */
 130:Middlewares/Third_Party/FreeRTOS/Source/portable/GCC/ARM_CM4F/portmacro.h **** 	__attribute__( ( always_inline ) ) static inline uint8_t ucPortCountLeadingZeros( uint32_t ulBitma
 131:Middlewares/Third_Party/FreeRTOS/Source/portable/GCC/ARM_CM4F/portmacro.h **** 	{
 132:Middlewares/Third_Party/FreeRTOS/Source/portable/GCC/ARM_CM4F/portmacro.h **** 	uint8_t ucReturn;
 133:Middlewares/Third_Party/FreeRTOS/Source/portable/GCC/ARM_CM4F/portmacro.h **** 
 134:Middlewares/Third_Party/FreeRTOS/Source/portable/GCC/ARM_CM4F/portmacro.h **** 		__asm volatile ( "clz %0, %1" : "=r" ( ucReturn ) : "r" ( ulBitmap ) : "memory" );
 135:Middlewares/Third_Party/FreeRTOS/Source/portable/GCC/ARM_CM4F/portmacro.h **** 		return ucReturn;
 136:Middlewares/Third_Party/FreeRTOS/Source/portable/GCC/ARM_CM4F/portmacro.h **** 	}
 137:Middlewares/Third_Party/FreeRTOS/Source/portable/GCC/ARM_CM4F/portmacro.h **** 
 138:Middlewares/Third_Party/FreeRTOS/Source/portable/GCC/ARM_CM4F/portmacro.h **** 	/* Check the configuration. */
 139:Middlewares/Third_Party/FreeRTOS/Source/portable/GCC/ARM_CM4F/portmacro.h **** 	#if( configMAX_PRIORITIES > 32 )
 140:Middlewares/Third_Party/FreeRTOS/Source/portable/GCC/ARM_CM4F/portmacro.h **** 		#error configUSE_PORT_OPTIMISED_TASK_SELECTION can only be set to 1 when configMAX_PRIORITIES is 
 141:Middlewares/Third_Party/FreeRTOS/Source/portable/GCC/ARM_CM4F/portmacro.h **** 	#endif
 142:Middlewares/Third_Party/FreeRTOS/Source/portable/GCC/ARM_CM4F/portmacro.h **** 
 143:Middlewares/Third_Party/FreeRTOS/Source/portable/GCC/ARM_CM4F/portmacro.h **** 	/* Store/clear the ready priorities in a bit map. */
 144:Middlewares/Third_Party/FreeRTOS/Source/portable/GCC/ARM_CM4F/portmacro.h **** 	#define portRECORD_READY_PRIORITY( uxPriority, uxReadyPriorities ) ( uxReadyPriorities ) |= ( 1UL 
 145:Middlewares/Third_Party/FreeRTOS/Source/portable/GCC/ARM_CM4F/portmacro.h **** 	#define portRESET_READY_PRIORITY( uxPriority, uxReadyPriorities ) ( uxReadyPriorities ) &= ~( 1UL 
 146:Middlewares/Third_Party/FreeRTOS/Source/portable/GCC/ARM_CM4F/portmacro.h **** 
 147:Middlewares/Third_Party/FreeRTOS/Source/portable/GCC/ARM_CM4F/portmacro.h **** 	/*-----------------------------------------------------------*/
 148:Middlewares/Third_Party/FreeRTOS/Source/portable/GCC/ARM_CM4F/portmacro.h **** 
 149:Middlewares/Third_Party/FreeRTOS/Source/portable/GCC/ARM_CM4F/portmacro.h **** 	#define portGET_HIGHEST_PRIORITY( uxTopPriority, uxReadyPriorities ) uxTopPriority = ( 31UL - ( ui
 150:Middlewares/Third_Party/FreeRTOS/Source/portable/GCC/ARM_CM4F/portmacro.h **** 
 151:Middlewares/Third_Party/FreeRTOS/Source/portable/GCC/ARM_CM4F/portmacro.h **** #endif /* configUSE_PORT_OPTIMISED_TASK_SELECTION */
 152:Middlewares/Third_Party/FreeRTOS/Source/portable/GCC/ARM_CM4F/portmacro.h **** 
 153:Middlewares/Third_Party/FreeRTOS/Source/portable/GCC/ARM_CM4F/portmacro.h **** /*-----------------------------------------------------------*/
 154:Middlewares/Third_Party/FreeRTOS/Source/portable/GCC/ARM_CM4F/portmacro.h **** 
 155:Middlewares/Third_Party/FreeRTOS/Source/portable/GCC/ARM_CM4F/portmacro.h **** #ifdef configASSERT
 156:Middlewares/Third_Party/FreeRTOS/Source/portable/GCC/ARM_CM4F/portmacro.h **** 	void vPortValidateInterruptPriority( void );
 157:Middlewares/Third_Party/FreeRTOS/Source/portable/GCC/ARM_CM4F/portmacro.h **** 	#define portASSERT_IF_INTERRUPT_PRIORITY_INVALID() 	vPortValidateInterruptPriority()
 158:Middlewares/Third_Party/FreeRTOS/Source/portable/GCC/ARM_CM4F/portmacro.h **** #endif
 159:Middlewares/Third_Party/FreeRTOS/Source/portable/GCC/ARM_CM4F/portmacro.h **** 
 160:Middlewares/Third_Party/FreeRTOS/Source/portable/GCC/ARM_CM4F/portmacro.h **** /* portNOP() is not required by this port. */
 161:Middlewares/Third_Party/FreeRTOS/Source/portable/GCC/ARM_CM4F/portmacro.h **** #define portNOP()
 162:Middlewares/Third_Party/FreeRTOS/Source/portable/GCC/ARM_CM4F/portmacro.h **** 
 163:Middlewares/Third_Party/FreeRTOS/Source/portable/GCC/ARM_CM4F/portmacro.h **** #define portINLINE	__inline
 164:Middlewares/Third_Party/FreeRTOS/Source/portable/GCC/ARM_CM4F/portmacro.h **** 
 165:Middlewares/Third_Party/FreeRTOS/Source/portable/GCC/ARM_CM4F/portmacro.h **** #ifndef portFORCE_INLINE
 166:Middlewares/Third_Party/FreeRTOS/Source/portable/GCC/ARM_CM4F/portmacro.h **** 	#define portFORCE_INLINE inline __attribute__(( always_inline))
ARM GAS  /tmp/cc9Iu9BV.s 			page 27


 167:Middlewares/Third_Party/FreeRTOS/Source/portable/GCC/ARM_CM4F/portmacro.h **** #endif
 168:Middlewares/Third_Party/FreeRTOS/Source/portable/GCC/ARM_CM4F/portmacro.h **** 
 169:Middlewares/Third_Party/FreeRTOS/Source/portable/GCC/ARM_CM4F/portmacro.h **** portFORCE_INLINE static BaseType_t xPortIsInsideInterrupt( void )
 170:Middlewares/Third_Party/FreeRTOS/Source/portable/GCC/ARM_CM4F/portmacro.h **** {
 171:Middlewares/Third_Party/FreeRTOS/Source/portable/GCC/ARM_CM4F/portmacro.h **** uint32_t ulCurrentInterrupt;
 172:Middlewares/Third_Party/FreeRTOS/Source/portable/GCC/ARM_CM4F/portmacro.h **** BaseType_t xReturn;
 173:Middlewares/Third_Party/FreeRTOS/Source/portable/GCC/ARM_CM4F/portmacro.h **** 
 174:Middlewares/Third_Party/FreeRTOS/Source/portable/GCC/ARM_CM4F/portmacro.h **** 	/* Obtain the number of the currently executing interrupt. */
 175:Middlewares/Third_Party/FreeRTOS/Source/portable/GCC/ARM_CM4F/portmacro.h **** 	__asm volatile( "mrs %0, ipsr" : "=r"( ulCurrentInterrupt ) :: "memory" );
 176:Middlewares/Third_Party/FreeRTOS/Source/portable/GCC/ARM_CM4F/portmacro.h **** 
 177:Middlewares/Third_Party/FreeRTOS/Source/portable/GCC/ARM_CM4F/portmacro.h **** 	if( ulCurrentInterrupt == 0 )
 178:Middlewares/Third_Party/FreeRTOS/Source/portable/GCC/ARM_CM4F/portmacro.h **** 	{
 179:Middlewares/Third_Party/FreeRTOS/Source/portable/GCC/ARM_CM4F/portmacro.h **** 		xReturn = pdFALSE;
 180:Middlewares/Third_Party/FreeRTOS/Source/portable/GCC/ARM_CM4F/portmacro.h **** 	}
 181:Middlewares/Third_Party/FreeRTOS/Source/portable/GCC/ARM_CM4F/portmacro.h **** 	else
 182:Middlewares/Third_Party/FreeRTOS/Source/portable/GCC/ARM_CM4F/portmacro.h **** 	{
 183:Middlewares/Third_Party/FreeRTOS/Source/portable/GCC/ARM_CM4F/portmacro.h **** 		xReturn = pdTRUE;
 184:Middlewares/Third_Party/FreeRTOS/Source/portable/GCC/ARM_CM4F/portmacro.h **** 	}
 185:Middlewares/Third_Party/FreeRTOS/Source/portable/GCC/ARM_CM4F/portmacro.h **** 
 186:Middlewares/Third_Party/FreeRTOS/Source/portable/GCC/ARM_CM4F/portmacro.h **** 	return xReturn;
 187:Middlewares/Third_Party/FreeRTOS/Source/portable/GCC/ARM_CM4F/portmacro.h **** }
 188:Middlewares/Third_Party/FreeRTOS/Source/portable/GCC/ARM_CM4F/portmacro.h **** 
 189:Middlewares/Third_Party/FreeRTOS/Source/portable/GCC/ARM_CM4F/portmacro.h **** /*-----------------------------------------------------------*/
 190:Middlewares/Third_Party/FreeRTOS/Source/portable/GCC/ARM_CM4F/portmacro.h **** 
 191:Middlewares/Third_Party/FreeRTOS/Source/portable/GCC/ARM_CM4F/portmacro.h **** portFORCE_INLINE static void vPortRaiseBASEPRI( void )
 192:Middlewares/Third_Party/FreeRTOS/Source/portable/GCC/ARM_CM4F/portmacro.h **** {
 193:Middlewares/Third_Party/FreeRTOS/Source/portable/GCC/ARM_CM4F/portmacro.h **** uint32_t ulNewBASEPRI;
 194:Middlewares/Third_Party/FreeRTOS/Source/portable/GCC/ARM_CM4F/portmacro.h **** 
 195:Middlewares/Third_Party/FreeRTOS/Source/portable/GCC/ARM_CM4F/portmacro.h **** 	__asm volatile
  96              		.loc 2 195 0
  97              		.syntax unified
  98              	@ 195 "Middlewares/Third_Party/FreeRTOS/Source/portable/GCC/ARM_CM4F/portmacro.h" 1
  99 0016 4FF05003 			mov r3, #80												
 100 001a 83F31188 		msr basepri, r3											
 101 001e BFF36F8F 		isb														
 102 0022 BFF34F8F 		dsb														
 103              	
 104              	@ 0 "" 2
 105              	.LVL10:
 106              		.thumb
 107              		.syntax unified
 108              	.L5:
 109 0026 FEE7     		b	.L5
 110              	.L4:
 111              	.LBE98:
 112              	.LBE97:
 113              	.LBE96:
1225:Middlewares/Third_Party/FreeRTOS/Source/stream_buffer.c **** 	} /*lint !e529 !e438 xWriteValue is only used if configASSERT() is defined. */
1226:Middlewares/Third_Party/FreeRTOS/Source/stream_buffer.c **** 	#endif
1227:Middlewares/Third_Party/FreeRTOS/Source/stream_buffer.c **** 
1228:Middlewares/Third_Party/FreeRTOS/Source/stream_buffer.c **** 	( void ) memset( ( void * ) pxStreamBuffer, 0x00, sizeof( StreamBuffer_t ) ); /*lint !e9087 memset
 114              		.loc 1 1228 0
 115 0028 2422     		movs	r2, #36
 116 002a 0021     		movs	r1, #0
 117 002c 2046     		mov	r0, r4
 118 002e FFF7FEFF 		bl	memset
 119              	.LVL11:
ARM GAS  /tmp/cc9Iu9BV.s 			page 28


1229:Middlewares/Third_Party/FreeRTOS/Source/stream_buffer.c **** 	pxStreamBuffer->pucBuffer = pucBuffer;
 120              		.loc 1 1229 0
 121 0032 A561     		str	r5, [r4, #24]
1230:Middlewares/Third_Party/FreeRTOS/Source/stream_buffer.c **** 	pxStreamBuffer->xLength = xBufferSizeBytes;
 122              		.loc 1 1230 0
 123 0034 A760     		str	r7, [r4, #8]
1231:Middlewares/Third_Party/FreeRTOS/Source/stream_buffer.c **** 	pxStreamBuffer->xTriggerLevelBytes = xTriggerLevelBytes;
 124              		.loc 1 1231 0
 125 0036 E660     		str	r6, [r4, #12]
1232:Middlewares/Third_Party/FreeRTOS/Source/stream_buffer.c **** 	pxStreamBuffer->ucFlags = ucFlags;
 126              		.loc 1 1232 0
 127 0038 9DF81830 		ldrb	r3, [sp, #24]	@ zero_extendqisi2
 128 003c 2377     		strb	r3, [r4, #28]
 129 003e F8BD     		pop	{r3, r4, r5, r6, r7, pc}
 130              		.cfi_endproc
 131              	.LFE25:
 133              		.section	.text.prvWriteBytesToBuffer,"ax",%progbits
 134              		.align	1
 135              		.syntax unified
 136              		.thumb
 137              		.thumb_func
 138              		.fpu fpv4-sp-d16
 140              	prvWriteBytesToBuffer:
 141              	.LFB22:
1089:Middlewares/Third_Party/FreeRTOS/Source/stream_buffer.c **** size_t xNextHead, xFirstLength;
 142              		.loc 1 1089 0
 143              		.cfi_startproc
 144              		@ args = 0, pretend = 0, frame = 0
 145              		@ frame_needed = 0, uses_anonymous_args = 0
 146              	.LVL12:
1092:Middlewares/Third_Party/FreeRTOS/Source/stream_buffer.c **** 
 147              		.loc 1 1092 0
 148 0000 42B9     		cbnz	r2, .L8
 149              	.LBB99:
 150              	.LBB100:
 151              		.loc 2 195 0
 152              		.syntax unified
 153              	@ 195 "Middlewares/Third_Party/FreeRTOS/Source/portable/GCC/ARM_CM4F/portmacro.h" 1
 154 0002 4FF05003 			mov r3, #80												
 155 0006 83F31188 		msr basepri, r3											
 156 000a BFF36F8F 		isb														
 157 000e BFF34F8F 		dsb														
 158              	
 159              	@ 0 "" 2
 160              	.LVL13:
 161              		.thumb
 162              		.syntax unified
 163              	.L9:
 164 0012 FEE7     		b	.L9
 165              	.L8:
 166              	.LBE100:
 167              	.LBE99:
1089:Middlewares/Third_Party/FreeRTOS/Source/stream_buffer.c **** size_t xNextHead, xFirstLength;
 168              		.loc 1 1089 0
 169 0014 2DE9F041 		push	{r4, r5, r6, r7, r8, lr}
 170              	.LCFI1:
 171              		.cfi_def_cfa_offset 24
ARM GAS  /tmp/cc9Iu9BV.s 			page 29


 172              		.cfi_offset 4, -24
 173              		.cfi_offset 5, -20
 174              		.cfi_offset 6, -16
 175              		.cfi_offset 7, -12
 176              		.cfi_offset 8, -8
 177              		.cfi_offset 14, -4
 178 0018 1746     		mov	r7, r2
1094:Middlewares/Third_Party/FreeRTOS/Source/stream_buffer.c **** 
 179              		.loc 1 1094 0
 180 001a 4668     		ldr	r6, [r0, #4]
 181              	.LVL14:
1099:Middlewares/Third_Party/FreeRTOS/Source/stream_buffer.c **** 
 182              		.loc 1 1099 0
 183 001c 8368     		ldr	r3, [r0, #8]
 184 001e A3EB0608 		sub	r8, r3, r6
 185 0022 9045     		cmp	r8, r2
 186 0024 28BF     		it	cs
 187 0026 9046     		movcs	r8, r2
 188              	.LVL15:
1102:Middlewares/Third_Party/FreeRTOS/Source/stream_buffer.c **** 	( void ) memcpy( ( void* ) ( &( pxStreamBuffer->pucBuffer[ xNextHead ] ) ), ( const void * ) pucDa
 189              		.loc 1 1102 0
 190 0028 06EB0802 		add	r2, r6, r8
 191              	.LVL16:
 192 002c 9342     		cmp	r3, r2
 193 002e 08D2     		bcs	.L10
 194              	.LBB101:
 195              	.LBB102:
 196              		.loc 2 195 0
 197              		.syntax unified
 198              	@ 195 "Middlewares/Third_Party/FreeRTOS/Source/portable/GCC/ARM_CM4F/portmacro.h" 1
 199 0030 4FF05003 			mov r3, #80												
 200 0034 83F31188 		msr basepri, r3											
 201 0038 BFF36F8F 		isb														
 202 003c BFF34F8F 		dsb														
 203              	
 204              	@ 0 "" 2
 205              	.LVL17:
 206              		.thumb
 207              		.syntax unified
 208              	.L11:
 209 0040 FEE7     		b	.L11
 210              	.L10:
 211 0042 0D46     		mov	r5, r1
 212 0044 0446     		mov	r4, r0
 213              	.LBE102:
 214              	.LBE101:
1103:Middlewares/Third_Party/FreeRTOS/Source/stream_buffer.c **** 
 215              		.loc 1 1103 0
 216 0046 8069     		ldr	r0, [r0, #24]
 217              	.LVL18:
 218 0048 4246     		mov	r2, r8
 219 004a 3044     		add	r0, r0, r6
 220 004c FFF7FEFF 		bl	memcpy
 221              	.LVL19:
1107:Middlewares/Third_Party/FreeRTOS/Source/stream_buffer.c **** 	{
 222              		.loc 1 1107 0
 223 0050 4745     		cmp	r7, r8
ARM GAS  /tmp/cc9Iu9BV.s 			page 30


 224 0052 12D9     		bls	.L12
1110:Middlewares/Third_Party/FreeRTOS/Source/stream_buffer.c **** 		( void ) memcpy( ( void * ) pxStreamBuffer->pucBuffer, ( const void * ) &( pucData[ xFirstLength 
 225              		.loc 1 1110 0
 226 0054 A7EB0802 		sub	r2, r7, r8
 227 0058 A368     		ldr	r3, [r4, #8]
 228 005a 9A42     		cmp	r2, r3
 229 005c 08D9     		bls	.L13
 230              	.LBB103:
 231              	.LBB104:
 232              		.loc 2 195 0
 233              		.syntax unified
 234              	@ 195 "Middlewares/Third_Party/FreeRTOS/Source/portable/GCC/ARM_CM4F/portmacro.h" 1
 235 005e 4FF05003 			mov r3, #80												
 236 0062 83F31188 		msr basepri, r3											
 237 0066 BFF36F8F 		isb														
 238 006a BFF34F8F 		dsb														
 239              	
 240              	@ 0 "" 2
 241              	.LVL20:
 242              		.thumb
 243              		.syntax unified
 244              	.L14:
 245 006e FEE7     		b	.L14
 246              	.L13:
 247              	.LBE104:
 248              	.LBE103:
1111:Middlewares/Third_Party/FreeRTOS/Source/stream_buffer.c **** 	}
 249              		.loc 1 1111 0
 250 0070 05EB0801 		add	r1, r5, r8
 251 0074 A069     		ldr	r0, [r4, #24]
 252 0076 FFF7FEFF 		bl	memcpy
 253              	.LVL21:
 254              	.L12:
1118:Middlewares/Third_Party/FreeRTOS/Source/stream_buffer.c **** 	if( xNextHead >= pxStreamBuffer->xLength )
 255              		.loc 1 1118 0
 256 007a 3E44     		add	r6, r6, r7
 257              	.LVL22:
1119:Middlewares/Third_Party/FreeRTOS/Source/stream_buffer.c **** 	{
 258              		.loc 1 1119 0
 259 007c A268     		ldr	r2, [r4, #8]
 260 007e 9642     		cmp	r6, r2
 261 0080 00D3     		bcc	.L15
1121:Middlewares/Third_Party/FreeRTOS/Source/stream_buffer.c **** 	}
 262              		.loc 1 1121 0
 263 0082 B61A     		subs	r6, r6, r2
 264              	.LVL23:
 265              	.L15:
1128:Middlewares/Third_Party/FreeRTOS/Source/stream_buffer.c **** 
 266              		.loc 1 1128 0
 267 0084 6660     		str	r6, [r4, #4]
1131:Middlewares/Third_Party/FreeRTOS/Source/stream_buffer.c **** /*-----------------------------------------------------------*/
 268              		.loc 1 1131 0
 269 0086 3846     		mov	r0, r7
 270 0088 BDE8F081 		pop	{r4, r5, r6, r7, r8, pc}
 271              		.cfi_endproc
 272              	.LFE22:
 274              		.section	.text.prvWriteMessageToBuffer,"ax",%progbits
ARM GAS  /tmp/cc9Iu9BV.s 			page 31


 275              		.align	1
 276              		.syntax unified
 277              		.thumb
 278              		.thumb_func
 279              		.fpu fpv4-sp-d16
 281              	prvWriteMessageToBuffer:
 282              	.LFB13:
 666:Middlewares/Third_Party/FreeRTOS/Source/stream_buffer.c **** 	BaseType_t xShouldWrite;
 283              		.loc 1 666 0
 284              		.cfi_startproc
 285              		@ args = 4, pretend = 0, frame = 8
 286              		@ frame_needed = 0, uses_anonymous_args = 0
 287              	.LVL24:
 288 0000 30B5     		push	{r4, r5, lr}
 289              	.LCFI2:
 290              		.cfi_def_cfa_offset 12
 291              		.cfi_offset 4, -12
 292              		.cfi_offset 5, -8
 293              		.cfi_offset 14, -4
 294 0002 83B0     		sub	sp, sp, #12
 295              	.LCFI3:
 296              		.cfi_def_cfa_offset 24
 297 0004 0446     		mov	r4, r0
 298 0006 0D46     		mov	r5, r1
 299 0008 0192     		str	r2, [sp, #4]
 670:Middlewares/Third_Party/FreeRTOS/Source/stream_buffer.c **** 	{
 300              		.loc 1 670 0
 301 000a BBB1     		cbz	r3, .L22
 302 000c 1A46     		mov	r2, r3
 303              	.LVL25:
 676:Middlewares/Third_Party/FreeRTOS/Source/stream_buffer.c **** 	{
 304              		.loc 1 676 0
 305 000e 037F     		ldrb	r3, [r0, #28]	@ zero_extendqisi2
 306              	.LVL26:
 307 0010 13F0010F 		tst	r3, #1
 308 0014 06D1     		bne	.L20
 309              	.LVL27:
 682:Middlewares/Third_Party/FreeRTOS/Source/stream_buffer.c **** 	}
 310              		.loc 1 682 0
 311 0016 019B     		ldr	r3, [sp, #4]
 312 0018 9A42     		cmp	r2, r3
 313 001a 28BF     		it	cs
 314 001c 1A46     		movcs	r2, r3
 315              	.LVL28:
 316 001e 0192     		str	r2, [sp, #4]
 317              	.LVL29:
 681:Middlewares/Third_Party/FreeRTOS/Source/stream_buffer.c **** 		xDataLengthBytes = configMIN( xDataLengthBytes, xSpace );
 318              		.loc 1 681 0
 319 0020 0123     		movs	r3, #1
 320              	.LVL30:
 321 0022 0CE0     		b	.L19
 322              	.LVL31:
 323              	.L20:
 684:Middlewares/Third_Party/FreeRTOS/Source/stream_buffer.c **** 	{
 324              		.loc 1 684 0
 325 0024 069B     		ldr	r3, [sp, #24]
 326 0026 9A42     		cmp	r2, r3
ARM GAS  /tmp/cc9Iu9BV.s 			page 32


 327 0028 01D2     		bcs	.L26
 696:Middlewares/Third_Party/FreeRTOS/Source/stream_buffer.c **** 	}
 328              		.loc 1 696 0
 329 002a 0023     		movs	r3, #0
 330 002c 07E0     		b	.L19
 331              	.L26:
 332              	.LVL32:
 691:Middlewares/Third_Party/FreeRTOS/Source/stream_buffer.c **** 	}
 333              		.loc 1 691 0
 334 002e 0422     		movs	r2, #4
 335              	.LVL33:
 336 0030 0DEB0201 		add	r1, sp, r2
 337              	.LVL34:
 338 0034 FFF7FEFF 		bl	prvWriteBytesToBuffer
 339              	.LVL35:
 690:Middlewares/Third_Party/FreeRTOS/Source/stream_buffer.c **** 		( void ) prvWriteBytesToBuffer( pxStreamBuffer, ( const uint8_t * ) &( xDataLengthBytes ), sbBYTE
 340              		.loc 1 690 0
 341 0038 0123     		movs	r3, #1
 342 003a 00E0     		b	.L19
 343              	.LVL36:
 344              	.L22:
 674:Middlewares/Third_Party/FreeRTOS/Source/stream_buffer.c **** 	}
 345              		.loc 1 674 0
 346 003c 0023     		movs	r3, #0
 347              	.LVL37:
 348              	.L19:
 699:Middlewares/Third_Party/FreeRTOS/Source/stream_buffer.c **** 	{
 349              		.loc 1 699 0
 350 003e 13B9     		cbnz	r3, .L27
 706:Middlewares/Third_Party/FreeRTOS/Source/stream_buffer.c **** 	}
 351              		.loc 1 706 0
 352 0040 0020     		movs	r0, #0
 353              	.LVL38:
 354              	.L18:
 710:Middlewares/Third_Party/FreeRTOS/Source/stream_buffer.c **** /*-----------------------------------------------------------*/
 355              		.loc 1 710 0
 356 0042 03B0     		add	sp, sp, #12
 357              	.LCFI4:
 358              		.cfi_remember_state
 359              		.cfi_def_cfa_offset 12
 360              		@ sp needed
 361 0044 30BD     		pop	{r4, r5, pc}
 362              	.LVL39:
 363              	.L27:
 364              	.LCFI5:
 365              		.cfi_restore_state
 702:Middlewares/Third_Party/FreeRTOS/Source/stream_buffer.c **** 	}
 366              		.loc 1 702 0
 367 0046 019A     		ldr	r2, [sp, #4]
 368 0048 2946     		mov	r1, r5
 369 004a 2046     		mov	r0, r4
 370 004c FFF7FEFF 		bl	prvWriteBytesToBuffer
 371              	.LVL40:
 372 0050 F7E7     		b	.L18
 373              		.cfi_endproc
 374              	.LFE13:
 376              		.section	.text.prvReadBytesFromBuffer,"ax",%progbits
ARM GAS  /tmp/cc9Iu9BV.s 			page 33


 377              		.align	1
 378              		.syntax unified
 379              		.thumb
 380              		.thumb_func
 381              		.fpu fpv4-sp-d16
 383              	prvReadBytesFromBuffer:
 384              	.LFB23:
1135:Middlewares/Third_Party/FreeRTOS/Source/stream_buffer.c **** size_t xCount, xFirstLength, xNextTail;
 385              		.loc 1 1135 0
 386              		.cfi_startproc
 387              		@ args = 0, pretend = 0, frame = 0
 388              		@ frame_needed = 0, uses_anonymous_args = 0
 389              	.LVL41:
 390 0000 2DE9F843 		push	{r3, r4, r5, r6, r7, r8, r9, lr}
 391              	.LCFI6:
 392              		.cfi_def_cfa_offset 32
 393              		.cfi_offset 3, -32
 394              		.cfi_offset 4, -28
 395              		.cfi_offset 5, -24
 396              		.cfi_offset 6, -20
 397              		.cfi_offset 7, -16
 398              		.cfi_offset 8, -12
 399              		.cfi_offset 9, -8
 400              		.cfi_offset 14, -4
1139:Middlewares/Third_Party/FreeRTOS/Source/stream_buffer.c **** 
 401              		.loc 1 1139 0
 402 0004 9046     		mov	r8, r2
 403 0006 9A42     		cmp	r2, r3
 404 0008 28BF     		it	cs
 405 000a 9846     		movcs	r8, r3
 406              	.LVL42:
1141:Middlewares/Third_Party/FreeRTOS/Source/stream_buffer.c **** 	{
 407              		.loc 1 1141 0
 408 000c B8F1000F 		cmp	r8, #0
 409 0010 3ED0     		beq	.L28
1143:Middlewares/Third_Party/FreeRTOS/Source/stream_buffer.c **** 
 410              		.loc 1 1143 0
 411 0012 0468     		ldr	r4, [r0]
 412              	.LVL43:
1148:Middlewares/Third_Party/FreeRTOS/Source/stream_buffer.c **** 
 413              		.loc 1 1148 0
 414 0014 8368     		ldr	r3, [r0, #8]
 415              	.LVL44:
 416 0016 1F1B     		subs	r7, r3, r4
 417 0018 4745     		cmp	r7, r8
 418 001a 28BF     		it	cs
 419 001c 4746     		movcs	r7, r8
 420              	.LVL45:
1152:Middlewares/Third_Party/FreeRTOS/Source/stream_buffer.c **** 		configASSERT( ( xNextTail + xFirstLength ) <= pxStreamBuffer->xLength );
 421              		.loc 1 1152 0
 422 001e BA42     		cmp	r2, r7
 423 0020 08D2     		bcs	.L30
 424              	.LBB105:
 425              	.LBB106:
 426              		.loc 2 195 0
 427              		.syntax unified
 428              	@ 195 "Middlewares/Third_Party/FreeRTOS/Source/portable/GCC/ARM_CM4F/portmacro.h" 1
ARM GAS  /tmp/cc9Iu9BV.s 			page 34


 429 0022 4FF05003 			mov r3, #80												
 430 0026 83F31188 		msr basepri, r3											
 431 002a BFF36F8F 		isb														
 432 002e BFF34F8F 		dsb														
 433              	
 434              	@ 0 "" 2
 435              	.LVL46:
 436              		.thumb
 437              		.syntax unified
 438              	.L31:
 439 0032 FEE7     		b	.L31
 440              	.L30:
 441              	.LBE106:
 442              	.LBE105:
1153:Middlewares/Third_Party/FreeRTOS/Source/stream_buffer.c **** 		( void ) memcpy( ( void * ) pucData, ( const void * ) &( pxStreamBuffer->pucBuffer[ xNextTail ] )
 443              		.loc 1 1153 0
 444 0034 E519     		adds	r5, r4, r7
 445 0036 AB42     		cmp	r3, r5
 446 0038 08D2     		bcs	.L32
 447              	.LBB107:
 448              	.LBB108:
 449              		.loc 2 195 0
 450              		.syntax unified
 451              	@ 195 "Middlewares/Third_Party/FreeRTOS/Source/portable/GCC/ARM_CM4F/portmacro.h" 1
 452 003a 4FF05003 			mov r3, #80												
 453 003e 83F31188 		msr basepri, r3											
 454 0042 BFF36F8F 		isb														
 455 0046 BFF34F8F 		dsb														
 456              	
 457              	@ 0 "" 2
 458              	.LVL47:
 459              		.thumb
 460              		.syntax unified
 461              	.L33:
 462 004a FEE7     		b	.L33
 463              	.L32:
 464 004c 9146     		mov	r9, r2
 465 004e 0E46     		mov	r6, r1
 466 0050 0546     		mov	r5, r0
 467              	.LBE108:
 468              	.LBE107:
1154:Middlewares/Third_Party/FreeRTOS/Source/stream_buffer.c **** 
 469              		.loc 1 1154 0
 470 0052 8169     		ldr	r1, [r0, #24]
 471              	.LVL48:
 472 0054 3A46     		mov	r2, r7
 473              	.LVL49:
 474 0056 2144     		add	r1, r1, r4
 475 0058 3046     		mov	r0, r6
 476              	.LVL50:
 477 005a FFF7FEFF 		bl	memcpy
 478              	.LVL51:
1158:Middlewares/Third_Party/FreeRTOS/Source/stream_buffer.c **** 		{
 479              		.loc 1 1158 0
 480 005e B845     		cmp	r8, r7
 481 0060 10D9     		bls	.L34
1161:Middlewares/Third_Party/FreeRTOS/Source/stream_buffer.c **** 			( void ) memcpy( ( void * ) &( pucData[ xFirstLength ] ), ( void * ) ( pxStreamBuffer->pucBuffer
ARM GAS  /tmp/cc9Iu9BV.s 			page 35


 482              		.loc 1 1161 0
 483 0062 C145     		cmp	r9, r8
 484 0064 08D2     		bcs	.L35
 485              	.LBB109:
 486              	.LBB110:
 487              		.loc 2 195 0
 488              		.syntax unified
 489              	@ 195 "Middlewares/Third_Party/FreeRTOS/Source/portable/GCC/ARM_CM4F/portmacro.h" 1
 490 0066 4FF05003 			mov r3, #80												
 491 006a 83F31188 		msr basepri, r3											
 492 006e BFF36F8F 		isb														
 493 0072 BFF34F8F 		dsb														
 494              	
 495              	@ 0 "" 2
 496              	.LVL52:
 497              		.thumb
 498              		.syntax unified
 499              	.L36:
 500 0076 FEE7     		b	.L36
 501              	.L35:
 502              	.LBE110:
 503              	.LBE109:
1162:Middlewares/Third_Party/FreeRTOS/Source/stream_buffer.c **** 		}
 504              		.loc 1 1162 0
 505 0078 A8EB0702 		sub	r2, r8, r7
 506 007c A969     		ldr	r1, [r5, #24]
 507 007e F019     		adds	r0, r6, r7
 508 0080 FFF7FEFF 		bl	memcpy
 509              	.LVL53:
 510              	.L34:
1171:Middlewares/Third_Party/FreeRTOS/Source/stream_buffer.c **** 
 511              		.loc 1 1171 0
 512 0084 4444     		add	r4, r4, r8
 513              	.LVL54:
1173:Middlewares/Third_Party/FreeRTOS/Source/stream_buffer.c **** 		{
 514              		.loc 1 1173 0
 515 0086 AB68     		ldr	r3, [r5, #8]
 516 0088 9C42     		cmp	r4, r3
 517 008a 00D3     		bcc	.L37
1175:Middlewares/Third_Party/FreeRTOS/Source/stream_buffer.c **** 		}
 518              		.loc 1 1175 0
 519 008c E41A     		subs	r4, r4, r3
 520              	.LVL55:
 521              	.L37:
1178:Middlewares/Third_Party/FreeRTOS/Source/stream_buffer.c **** 	}
 522              		.loc 1 1178 0
 523 008e 2C60     		str	r4, [r5]
 524              	.LVL56:
 525              	.L28:
1186:Middlewares/Third_Party/FreeRTOS/Source/stream_buffer.c **** /*-----------------------------------------------------------*/
 526              		.loc 1 1186 0
 527 0090 4046     		mov	r0, r8
 528 0092 BDE8F883 		pop	{r3, r4, r5, r6, r7, r8, r9, pc}
 529              		.cfi_endproc
 530              	.LFE23:
 532              		.section	.text.prvReadMessageFromBuffer,"ax",%progbits
 533              		.align	1
ARM GAS  /tmp/cc9Iu9BV.s 			page 36


 534              		.syntax unified
 535              		.thumb
 536              		.thumb_func
 537              		.fpu fpv4-sp-d16
 539              	prvReadMessageFromBuffer:
 540              	.LFB17:
 923:Middlewares/Third_Party/FreeRTOS/Source/stream_buffer.c **** size_t xOriginalTail, xReceivedLength, xNextMessageLength;
 541              		.loc 1 923 0
 542              		.cfi_startproc
 543              		@ args = 4, pretend = 0, frame = 8
 544              		@ frame_needed = 0, uses_anonymous_args = 0
 545              	.LVL57:
 546 0000 2DE9F043 		push	{r4, r5, r6, r7, r8, r9, lr}
 547              	.LCFI7:
 548              		.cfi_def_cfa_offset 28
 549              		.cfi_offset 4, -28
 550              		.cfi_offset 5, -24
 551              		.cfi_offset 6, -20
 552              		.cfi_offset 7, -16
 553              		.cfi_offset 8, -12
 554              		.cfi_offset 9, -8
 555              		.cfi_offset 14, -4
 556 0004 83B0     		sub	sp, sp, #12
 557              	.LCFI8:
 558              		.cfi_def_cfa_offset 40
 559 0006 0546     		mov	r5, r0
 560 0008 8846     		mov	r8, r1
 561 000a 1646     		mov	r6, r2
 562 000c 1C46     		mov	r4, r3
 563 000e 0A9F     		ldr	r7, [sp, #40]
 927:Middlewares/Third_Party/FreeRTOS/Source/stream_buffer.c **** 	{
 564              		.loc 1 927 0
 565 0010 47B9     		cbnz	r7, .L43
 566              	.LVL58:
 567              	.L40:
 964:Middlewares/Third_Party/FreeRTOS/Source/stream_buffer.c **** 
 568              		.loc 1 964 0
 569 0012 2346     		mov	r3, r4
 570 0014 3246     		mov	r2, r6
 571 0016 4146     		mov	r1, r8
 572 0018 2846     		mov	r0, r5
 573 001a FFF7FEFF 		bl	prvReadBytesFromBuffer
 574              	.LVL59:
 967:Middlewares/Third_Party/FreeRTOS/Source/stream_buffer.c **** /*-----------------------------------------------------------*/
 575              		.loc 1 967 0
 576 001e 03B0     		add	sp, sp, #12
 577              	.LCFI9:
 578              		.cfi_remember_state
 579              		.cfi_def_cfa_offset 28
 580              		@ sp needed
 581 0020 BDE8F083 		pop	{r4, r5, r6, r7, r8, r9, pc}
 582              	.LVL60:
 583              	.L43:
 584              	.LCFI10:
 585              		.cfi_restore_state
 933:Middlewares/Third_Party/FreeRTOS/Source/stream_buffer.c **** 		( void ) prvReadBytesFromBuffer( pxStreamBuffer, ( uint8_t * ) &xTempNextMessageLength, xBytesToS
 586              		.loc 1 933 0
ARM GAS  /tmp/cc9Iu9BV.s 			page 37


 587 0024 D0F80090 		ldr	r9, [r0]
 588              	.LVL61:
 934:Middlewares/Third_Party/FreeRTOS/Source/stream_buffer.c **** 		xNextMessageLength = ( size_t ) xTempNextMessageLength;
 589              		.loc 1 934 0
 590 0028 3A46     		mov	r2, r7
 591              	.LVL62:
 592 002a 01A9     		add	r1, sp, #4
 593              	.LVL63:
 594 002c FFF7FEFF 		bl	prvReadBytesFromBuffer
 595              	.LVL64:
 935:Middlewares/Third_Party/FreeRTOS/Source/stream_buffer.c **** 
 596              		.loc 1 935 0
 597 0030 019B     		ldr	r3, [sp, #4]
 598              	.LVL65:
 939:Middlewares/Third_Party/FreeRTOS/Source/stream_buffer.c **** 
 599              		.loc 1 939 0
 600 0032 E41B     		subs	r4, r4, r7
 601              	.LVL66:
 943:Middlewares/Third_Party/FreeRTOS/Source/stream_buffer.c **** 		{
 602              		.loc 1 943 0
 603 0034 B342     		cmp	r3, r6
 604 0036 03D9     		bls	.L41
 948:Middlewares/Third_Party/FreeRTOS/Source/stream_buffer.c **** 			xNextMessageLength = 0;
 605              		.loc 1 948 0
 606 0038 C5F80090 		str	r9, [r5]
 607              	.LVL67:
 949:Middlewares/Third_Party/FreeRTOS/Source/stream_buffer.c **** 		}
 608              		.loc 1 949 0
 609 003c 0026     		movs	r6, #0
 610              	.LVL68:
 611 003e E8E7     		b	.L40
 612              	.LVL69:
 613              	.L41:
 935:Middlewares/Third_Party/FreeRTOS/Source/stream_buffer.c **** 
 614              		.loc 1 935 0
 615 0040 1E46     		mov	r6, r3
 616              	.LVL70:
 617 0042 E6E7     		b	.L40
 618              		.cfi_endproc
 619              	.LFE17:
 621              		.section	.text.xStreamBufferGenericCreate,"ax",%progbits
 622              		.align	1
 623              		.global	xStreamBufferGenericCreate
 624              		.syntax unified
 625              		.thumb
 626              		.thumb_func
 627              		.fpu fpv4-sp-d16
 629              	xStreamBufferGenericCreate:
 630              	.LFB4:
 220:Middlewares/Third_Party/FreeRTOS/Source/stream_buffer.c **** 	uint8_t *pucAllocatedMemory;
 631              		.loc 1 220 0
 632              		.cfi_startproc
 633              		@ args = 0, pretend = 0, frame = 0
 634              		@ frame_needed = 0, uses_anonymous_args = 0
 635              	.LVL71:
 636 0000 F0B5     		push	{r4, r5, r6, r7, lr}
 637              	.LCFI11:
ARM GAS  /tmp/cc9Iu9BV.s 			page 38


 638              		.cfi_def_cfa_offset 20
 639              		.cfi_offset 4, -20
 640              		.cfi_offset 5, -16
 641              		.cfi_offset 6, -12
 642              		.cfi_offset 7, -8
 643              		.cfi_offset 14, -4
 644 0002 83B0     		sub	sp, sp, #12
 645              	.LCFI12:
 646              		.cfi_def_cfa_offset 32
 647 0004 0C46     		mov	r4, r1
 228:Middlewares/Third_Party/FreeRTOS/Source/stream_buffer.c **** 		{
 648              		.loc 1 228 0
 649 0006 012A     		cmp	r2, #1
 650 0008 09D0     		beq	.L57
 651              	.LVL72:
 238:Middlewares/Third_Party/FreeRTOS/Source/stream_buffer.c **** 		}
 652              		.loc 1 238 0
 653 000a F8B9     		cbnz	r0, .L54
 654              	.LBB111:
 655              	.LBB112:
 656              		.loc 2 195 0
 657              		.syntax unified
 658              	@ 195 "Middlewares/Third_Party/FreeRTOS/Source/portable/GCC/ARM_CM4F/portmacro.h" 1
 659 000c 4FF05003 			mov r3, #80												
 660 0010 83F31188 		msr basepri, r3											
 661 0014 BFF36F8F 		isb														
 662 0018 BFF34F8F 		dsb														
 663              	
 664              	@ 0 "" 2
 665              	.LVL73:
 666              		.thumb
 667              		.syntax unified
 668              	.L48:
 669 001c FEE7     		b	.L48
 670              	.LVL74:
 671              	.L57:
 672              	.LBE112:
 673              	.LBE111:
 232:Middlewares/Third_Party/FreeRTOS/Source/stream_buffer.c **** 		}
 674              		.loc 1 232 0
 675 001e 0428     		cmp	r0, #4
 676 0020 08D8     		bhi	.L53
 677              	.LBB113:
 678              	.LBB114:
 679              		.loc 2 195 0
 680              		.syntax unified
 681              	@ 195 "Middlewares/Third_Party/FreeRTOS/Source/portable/GCC/ARM_CM4F/portmacro.h" 1
 682 0022 4FF05003 			mov r3, #80												
 683 0026 83F31188 		msr basepri, r3											
 684 002a BFF36F8F 		isb														
 685 002e BFF34F8F 		dsb														
 686              	
 687              	@ 0 "" 2
 688              	.LVL75:
 689              		.thumb
 690              		.syntax unified
 691              	.L47:
ARM GAS  /tmp/cc9Iu9BV.s 			page 39


 692 0032 FEE7     		b	.L47
 693              	.L53:
 694              	.LBE114:
 695              	.LBE113:
 231:Middlewares/Third_Party/FreeRTOS/Source/stream_buffer.c **** 			configASSERT( xBufferSizeBytes > sbBYTES_TO_STORE_MESSAGE_LENGTH );
 696              		.loc 1 231 0
 697 0034 0126     		movs	r6, #1
 698              	.LVL76:
 699              	.L46:
 240:Middlewares/Third_Party/FreeRTOS/Source/stream_buffer.c **** 
 700              		.loc 1 240 0
 701 0036 A042     		cmp	r0, r4
 702 0038 0AD2     		bcs	.L49
 703              	.LBB115:
 704              	.LBB116:
 705              		.loc 2 195 0
 706              		.syntax unified
 707              	@ 195 "Middlewares/Third_Party/FreeRTOS/Source/portable/GCC/ARM_CM4F/portmacro.h" 1
 708 003a 4FF05003 			mov r3, #80												
 709 003e 83F31188 		msr basepri, r3											
 710 0042 BFF36F8F 		isb														
 711 0046 BFF34F8F 		dsb														
 712              	
 713              	@ 0 "" 2
 714              	.LVL77:
 715              		.thumb
 716              		.syntax unified
 717              	.L50:
 718 004a FEE7     		b	.L50
 719              	.LVL78:
 720              	.L54:
 721              	.LBE116:
 722              	.LBE115:
 237:Middlewares/Third_Party/FreeRTOS/Source/stream_buffer.c **** 			configASSERT( xBufferSizeBytes > 0 );
 723              		.loc 1 237 0
 724 004c 0026     		movs	r6, #0
 725 004e F2E7     		b	.L46
 726              	.LVL79:
 727              	.L49:
 244:Middlewares/Third_Party/FreeRTOS/Source/stream_buffer.c **** 		{
 728              		.loc 1 244 0
 729 0050 04B9     		cbnz	r4, .L51
 246:Middlewares/Third_Party/FreeRTOS/Source/stream_buffer.c **** 		}
 730              		.loc 1 246 0
 731 0052 0124     		movs	r4, #1
 732              	.L51:
 733              	.LVL80:
 257:Middlewares/Third_Party/FreeRTOS/Source/stream_buffer.c **** 		pucAllocatedMemory = ( uint8_t * ) pvPortMalloc( xBufferSizeBytes + sizeof( StreamBuffer_t ) ); /
 734              		.loc 1 257 0
 735 0054 471C     		adds	r7, r0, #1
 736              	.LVL81:
 258:Middlewares/Third_Party/FreeRTOS/Source/stream_buffer.c **** 
 737              		.loc 1 258 0
 738 0056 2530     		adds	r0, r0, #37
 739 0058 FFF7FEFF 		bl	pvPortMalloc
 740              	.LVL82:
 260:Middlewares/Third_Party/FreeRTOS/Source/stream_buffer.c **** 		{
ARM GAS  /tmp/cc9Iu9BV.s 			page 40


 741              		.loc 1 260 0
 742 005c 0546     		mov	r5, r0
 743 005e 30B1     		cbz	r0, .L52
 262:Middlewares/Third_Party/FreeRTOS/Source/stream_buffer.c **** 										   pucAllocatedMemory + sizeof( StreamBuffer_t ),  /* Storage area follows. */ /*lint !e9
 744              		.loc 1 262 0
 745 0060 0096     		str	r6, [sp]
 746 0062 2346     		mov	r3, r4
 747 0064 3A46     		mov	r2, r7
 748 0066 00F12401 		add	r1, r0, #36
 749 006a FFF7FEFF 		bl	prvInitialiseNewStreamBuffer
 750              	.LVL83:
 751              	.L52:
 276:Middlewares/Third_Party/FreeRTOS/Source/stream_buffer.c **** 
 752              		.loc 1 276 0
 753 006e 2846     		mov	r0, r5
 754 0070 03B0     		add	sp, sp, #12
 755              	.LCFI13:
 756              		.cfi_def_cfa_offset 20
 757              		@ sp needed
 758 0072 F0BD     		pop	{r4, r5, r6, r7, pc}
 759              		.cfi_endproc
 760              	.LFE4:
 762              		.section	.text.xStreamBufferGenericCreateStatic,"ax",%progbits
 763              		.align	1
 764              		.global	xStreamBufferGenericCreateStatic
 765              		.syntax unified
 766              		.thumb
 767              		.thumb_func
 768              		.fpu fpv4-sp-d16
 770              	xStreamBufferGenericCreateStatic:
 771              	.LFB5:
 288:Middlewares/Third_Party/FreeRTOS/Source/stream_buffer.c **** 	StreamBuffer_t * const pxStreamBuffer = ( StreamBuffer_t * ) pxStaticStreamBuffer; /*lint !e740 !e
 772              		.loc 1 288 0
 773              		.cfi_startproc
 774              		@ args = 4, pretend = 0, frame = 8
 775              		@ frame_needed = 0, uses_anonymous_args = 0
 776              	.LVL84:
 777 0000 30B5     		push	{r4, r5, lr}
 778              	.LCFI14:
 779              		.cfi_def_cfa_offset 12
 780              		.cfi_offset 4, -12
 781              		.cfi_offset 5, -8
 782              		.cfi_offset 14, -4
 783 0002 85B0     		sub	sp, sp, #20
 784              	.LCFI15:
 785              		.cfi_def_cfa_offset 32
 786 0004 089C     		ldr	r4, [sp, #32]
 787              	.LVL85:
 293:Middlewares/Third_Party/FreeRTOS/Source/stream_buffer.c **** 		configASSERT( pxStaticStreamBuffer );
 788              		.loc 1 293 0
 789 0006 63B1     		cbz	r3, .L74
 790 0008 1D46     		mov	r5, r3
 294:Middlewares/Third_Party/FreeRTOS/Source/stream_buffer.c **** 		configASSERT( xTriggerLevelBytes <= xBufferSizeBytes );
 791              		.loc 1 294 0
 792 000a 9CB1     		cbz	r4, .L75
 295:Middlewares/Third_Party/FreeRTOS/Source/stream_buffer.c **** 
 793              		.loc 1 295 0
ARM GAS  /tmp/cc9Iu9BV.s 			page 41


 794 000c 8142     		cmp	r1, r0
 795 000e 1AD9     		bls	.L63
 796              	.LBB117:
 797              	.LBB118:
 798              		.loc 2 195 0
 799              		.syntax unified
 800              	@ 195 "Middlewares/Third_Party/FreeRTOS/Source/portable/GCC/ARM_CM4F/portmacro.h" 1
 801 0010 4FF05003 			mov r3, #80												
 802 0014 83F31188 		msr basepri, r3											
 803 0018 BFF36F8F 		isb														
 804 001c BFF34F8F 		dsb														
 805              	
 806              	@ 0 "" 2
 807              	.LVL86:
 808              		.thumb
 809              		.syntax unified
 810              	.L64:
 811 0020 FEE7     		b	.L64
 812              	.LVL87:
 813              	.L74:
 814              	.LBE118:
 815              	.LBE117:
 816              	.LBB119:
 817              	.LBB120:
 818              		.syntax unified
 819              	@ 195 "Middlewares/Third_Party/FreeRTOS/Source/portable/GCC/ARM_CM4F/portmacro.h" 1
 820 0022 4FF05003 			mov r3, #80												
 821 0026 83F31188 		msr basepri, r3											
 822 002a BFF36F8F 		isb														
 823 002e BFF34F8F 		dsb														
 824              	
 825              	@ 0 "" 2
 826              	.LVL88:
 827              		.thumb
 828              		.syntax unified
 829              	.L60:
 830 0032 FEE7     		b	.L60
 831              	.LVL89:
 832              	.L75:
 833              	.LBE120:
 834              	.LBE119:
 835              	.LBB121:
 836              	.LBB122:
 837              		.syntax unified
 838              	@ 195 "Middlewares/Third_Party/FreeRTOS/Source/portable/GCC/ARM_CM4F/portmacro.h" 1
 839 0034 4FF05003 			mov r3, #80												
 840 0038 83F31188 		msr basepri, r3											
 841 003c BFF36F8F 		isb														
 842 0040 BFF34F8F 		dsb														
 843              	
 844              	@ 0 "" 2
 845              	.LVL90:
 846              		.thumb
 847              		.syntax unified
 848              	.L62:
 849 0044 FEE7     		b	.L62
 850              	.LVL91:
ARM GAS  /tmp/cc9Iu9BV.s 			page 42


 851              	.L63:
 852              	.LBE122:
 853              	.LBE121:
 299:Middlewares/Third_Party/FreeRTOS/Source/stream_buffer.c **** 		{
 854              		.loc 1 299 0
 855 0046 01B9     		cbnz	r1, .L65
 301:Middlewares/Third_Party/FreeRTOS/Source/stream_buffer.c **** 		}
 856              		.loc 1 301 0
 857 0048 0121     		movs	r1, #1
 858              	.LVL92:
 859              	.L65:
 304:Middlewares/Third_Party/FreeRTOS/Source/stream_buffer.c **** 		{
 860              		.loc 1 304 0
 861 004a 5AB1     		cbz	r2, .L72
 307:Middlewares/Third_Party/FreeRTOS/Source/stream_buffer.c **** 		}
 862              		.loc 1 307 0
 863 004c 0323     		movs	r3, #3
 864              	.LVL93:
 865              	.L66:
 319:Middlewares/Third_Party/FreeRTOS/Source/stream_buffer.c **** 
 866              		.loc 1 319 0
 867 004e 0428     		cmp	r0, #4
 868 0050 0AD8     		bhi	.L67
 869              	.LBB123:
 870              	.LBB124:
 871              		.loc 2 195 0
 872              		.syntax unified
 873              	@ 195 "Middlewares/Third_Party/FreeRTOS/Source/portable/GCC/ARM_CM4F/portmacro.h" 1
 874 0052 4FF05003 			mov r3, #80												
 875 0056 83F31188 		msr basepri, r3											
 876 005a BFF36F8F 		isb														
 877 005e BFF34F8F 		dsb														
 878              	
 879              	@ 0 "" 2
 880              	.LVL94:
 881              		.thumb
 882              		.syntax unified
 883              	.L68:
 884 0062 FEE7     		b	.L68
 885              	.LVL95:
 886              	.L72:
 887              	.LBE124:
 888              	.LBE123:
 312:Middlewares/Third_Party/FreeRTOS/Source/stream_buffer.c **** 		}
 889              		.loc 1 312 0
 890 0064 0223     		movs	r3, #2
 891              	.LVL96:
 892 0066 F2E7     		b	.L66
 893              	.LVL97:
 894              	.L67:
 895              	.LBB125:
 326:Middlewares/Third_Party/FreeRTOS/Source/stream_buffer.c **** 			configASSERT( xSize == sizeof( StreamBuffer_t ) );
 896              		.loc 1 326 0
 897 0068 2422     		movs	r2, #36
 898              	.LVL98:
 899 006a 0392     		str	r2, [sp, #12]
 327:Middlewares/Third_Party/FreeRTOS/Source/stream_buffer.c **** 		} /*lint !e529 xSize is referenced is configASSERT() is defined. */
ARM GAS  /tmp/cc9Iu9BV.s 			page 43


 900              		.loc 1 327 0
 901 006c 039A     		ldr	r2, [sp, #12]
 902 006e 242A     		cmp	r2, #36
 903 0070 08D0     		beq	.L69
 904              	.LBB126:
 905              	.LBB127:
 906              		.loc 2 195 0
 907              		.syntax unified
 908              	@ 195 "Middlewares/Third_Party/FreeRTOS/Source/portable/GCC/ARM_CM4F/portmacro.h" 1
 909 0072 4FF05003 			mov r3, #80												
 910 0076 83F31188 		msr basepri, r3											
 911 007a BFF36F8F 		isb														
 912 007e BFF34F8F 		dsb														
 913              	
 914              	@ 0 "" 2
 915              	.LVL99:
 916              		.thumb
 917              		.syntax unified
 918              	.L70:
 919 0082 FEE7     		b	.L70
 920              	.LVL100:
 921              	.L69:
 922              	.LBE127:
 923              	.LBE126:
 924              	.LBE125:
 333:Middlewares/Third_Party/FreeRTOS/Source/stream_buffer.c **** 										  pucStreamBufferStorageArea,
 925              		.loc 1 333 0
 926 0084 0093     		str	r3, [sp]
 927 0086 0B46     		mov	r3, r1
 928              	.LVL101:
 929 0088 0246     		mov	r2, r0
 930 008a 2946     		mov	r1, r5
 931              	.LVL102:
 932 008c 2046     		mov	r0, r4
 933              	.LVL103:
 934 008e FFF7FEFF 		bl	prvInitialiseNewStreamBuffer
 935              	.LVL104:
 341:Middlewares/Third_Party/FreeRTOS/Source/stream_buffer.c **** 
 936              		.loc 1 341 0
 937 0092 237F     		ldrb	r3, [r4, #28]	@ zero_extendqisi2
 938 0094 43F00203 		orr	r3, r3, #2
 939 0098 2377     		strb	r3, [r4, #28]
 940              	.LVL105:
 354:Middlewares/Third_Party/FreeRTOS/Source/stream_buffer.c **** 
 941              		.loc 1 354 0
 942 009a 2046     		mov	r0, r4
 943 009c 05B0     		add	sp, sp, #20
 944              	.LCFI16:
 945              		.cfi_def_cfa_offset 12
 946              		@ sp needed
 947 009e 30BD     		pop	{r4, r5, pc}
 948              		.cfi_endproc
 949              	.LFE5:
 951              		.section	.text.vStreamBufferDelete,"ax",%progbits
 952              		.align	1
 953              		.global	vStreamBufferDelete
 954              		.syntax unified
ARM GAS  /tmp/cc9Iu9BV.s 			page 44


 955              		.thumb
 956              		.thumb_func
 957              		.fpu fpv4-sp-d16
 959              	vStreamBufferDelete:
 960              	.LFB6:
 360:Middlewares/Third_Party/FreeRTOS/Source/stream_buffer.c **** StreamBuffer_t * pxStreamBuffer = xStreamBuffer;
 961              		.loc 1 360 0
 962              		.cfi_startproc
 963              		@ args = 0, pretend = 0, frame = 0
 964              		@ frame_needed = 0, uses_anonymous_args = 0
 965              	.LVL106:
 966 0000 08B5     		push	{r3, lr}
 967              	.LCFI17:
 968              		.cfi_def_cfa_offset 8
 969              		.cfi_offset 3, -8
 970              		.cfi_offset 14, -4
 971              	.LVL107:
 363:Middlewares/Third_Party/FreeRTOS/Source/stream_buffer.c **** 
 972              		.loc 1 363 0
 973 0002 40B1     		cbz	r0, .L82
 367:Middlewares/Third_Party/FreeRTOS/Source/stream_buffer.c **** 	{
 974              		.loc 1 367 0
 975 0004 037F     		ldrb	r3, [r0, #28]	@ zero_extendqisi2
 976 0006 13F0020F 		tst	r3, #2
 977 000a 0DD0     		beq	.L83
 387:Middlewares/Third_Party/FreeRTOS/Source/stream_buffer.c **** 	}
 978              		.loc 1 387 0
 979 000c 2422     		movs	r2, #36
 980 000e 0021     		movs	r1, #0
 981 0010 FFF7FEFF 		bl	memset
 982              	.LVL108:
 983 0014 08BD     		pop	{r3, pc}
 984              	.LVL109:
 985              	.L82:
 986              	.LBB128:
 987              	.LBB129:
 988              		.loc 2 195 0
 989              		.syntax unified
 990              	@ 195 "Middlewares/Third_Party/FreeRTOS/Source/portable/GCC/ARM_CM4F/portmacro.h" 1
 991 0016 4FF05003 			mov r3, #80												
 992 001a 83F31188 		msr basepri, r3											
 993 001e BFF36F8F 		isb														
 994 0022 BFF34F8F 		dsb														
 995              	
 996              	@ 0 "" 2
 997              	.LVL110:
 998              		.thumb
 999              		.syntax unified
 1000              	.L78:
 1001 0026 FEE7     		b	.L78
 1002              	.L83:
 1003              	.LBE129:
 1004              	.LBE128:
 373:Middlewares/Third_Party/FreeRTOS/Source/stream_buffer.c **** 		}
 1005              		.loc 1 373 0
 1006 0028 FFF7FEFF 		bl	vPortFree
 1007              	.LVL111:
ARM GAS  /tmp/cc9Iu9BV.s 			page 45


 1008 002c 08BD     		pop	{r3, pc}
 1009              		.cfi_endproc
 1010              	.LFE6:
 1012              		.section	.text.xStreamBufferReset,"ax",%progbits
 1013              		.align	1
 1014              		.global	xStreamBufferReset
 1015              		.syntax unified
 1016              		.thumb
 1017              		.thumb_func
 1018              		.fpu fpv4-sp-d16
 1020              	xStreamBufferReset:
 1021              	.LFB7:
 393:Middlewares/Third_Party/FreeRTOS/Source/stream_buffer.c **** StreamBuffer_t * const pxStreamBuffer = xStreamBuffer;
 1022              		.loc 1 393 0
 1023              		.cfi_startproc
 1024              		@ args = 0, pretend = 0, frame = 0
 1025              		@ frame_needed = 0, uses_anonymous_args = 0
 1026              	.LVL112:
 401:Middlewares/Third_Party/FreeRTOS/Source/stream_buffer.c **** 
 1027              		.loc 1 401 0
 1028 0000 68B1     		cbz	r0, .L92
 393:Middlewares/Third_Party/FreeRTOS/Source/stream_buffer.c **** StreamBuffer_t * const pxStreamBuffer = xStreamBuffer;
 1029              		.loc 1 393 0
 1030 0002 30B5     		push	{r4, r5, lr}
 1031              	.LCFI18:
 1032              		.cfi_def_cfa_offset 12
 1033              		.cfi_offset 4, -12
 1034              		.cfi_offset 5, -8
 1035              		.cfi_offset 14, -4
 1036 0004 83B0     		sub	sp, sp, #12
 1037              	.LCFI19:
 1038              		.cfi_def_cfa_offset 24
 1039 0006 0446     		mov	r4, r0
 407:Middlewares/Third_Party/FreeRTOS/Source/stream_buffer.c **** 	}
 1040              		.loc 1 407 0
 1041 0008 056A     		ldr	r5, [r0, #32]
 1042              	.LVL113:
 412:Middlewares/Third_Party/FreeRTOS/Source/stream_buffer.c **** 	{
 1043              		.loc 1 412 0
 1044 000a FFF7FEFF 		bl	vPortEnterCritical
 1045              	.LVL114:
 414:Middlewares/Third_Party/FreeRTOS/Source/stream_buffer.c **** 		{
 1046              		.loc 1 414 0
 1047 000e 2369     		ldr	r3, [r4, #16]
 1048 0010 73B1     		cbz	r3, .L93
 395:Middlewares/Third_Party/FreeRTOS/Source/stream_buffer.c **** 
 1049              		.loc 1 395 0
 1050 0012 0024     		movs	r4, #0
 1051              	.LVL115:
 1052              	.L87:
 435:Middlewares/Third_Party/FreeRTOS/Source/stream_buffer.c **** 
 1053              		.loc 1 435 0
 1054 0014 FFF7FEFF 		bl	vPortExitCritical
 1055              	.LVL116:
 438:Middlewares/Third_Party/FreeRTOS/Source/stream_buffer.c **** /*-----------------------------------------------------------*/
 1056              		.loc 1 438 0
 1057 0018 2046     		mov	r0, r4
ARM GAS  /tmp/cc9Iu9BV.s 			page 46


 1058 001a 03B0     		add	sp, sp, #12
 1059              	.LCFI20:
 1060              		.cfi_def_cfa_offset 12
 1061              		@ sp needed
 1062 001c 30BD     		pop	{r4, r5, pc}
 1063              	.LVL117:
 1064              	.L92:
 1065              	.LCFI21:
 1066              		.cfi_def_cfa_offset 0
 1067              		.cfi_restore 4
 1068              		.cfi_restore 5
 1069              		.cfi_restore 14
 1070              	.LBB130:
 1071              	.LBB131:
 1072              		.loc 2 195 0
 1073              		.syntax unified
 1074              	@ 195 "Middlewares/Third_Party/FreeRTOS/Source/portable/GCC/ARM_CM4F/portmacro.h" 1
 1075 001e 4FF05003 			mov r3, #80												
 1076 0022 83F31188 		msr basepri, r3											
 1077 0026 BFF36F8F 		isb														
 1078 002a BFF34F8F 		dsb														
 1079              	
 1080              	@ 0 "" 2
 1081              	.LVL118:
 1082              		.thumb
 1083              		.syntax unified
 1084              	.L86:
 1085 002e FEE7     		b	.L86
 1086              	.LVL119:
 1087              	.L93:
 1088              	.LCFI22:
 1089              		.cfi_def_cfa_offset 24
 1090              		.cfi_offset 4, -12
 1091              		.cfi_offset 5, -8
 1092              		.cfi_offset 14, -4
 1093              	.LBE131:
 1094              	.LBE130:
 416:Middlewares/Third_Party/FreeRTOS/Source/stream_buffer.c **** 			{
 1095              		.loc 1 416 0
 1096 0030 6369     		ldr	r3, [r4, #20]
 1097 0032 0BB1     		cbz	r3, .L94
 395:Middlewares/Third_Party/FreeRTOS/Source/stream_buffer.c **** 
 1098              		.loc 1 395 0
 1099 0034 0024     		movs	r4, #0
 1100              	.LVL120:
 1101 0036 EDE7     		b	.L87
 1102              	.LVL121:
 1103              	.L94:
 418:Middlewares/Third_Party/FreeRTOS/Source/stream_buffer.c **** 											  pxStreamBuffer->pucBuffer,
 1104              		.loc 1 418 0
 1105 0038 E368     		ldr	r3, [r4, #12]
 1106 003a A268     		ldr	r2, [r4, #8]
 1107 003c A169     		ldr	r1, [r4, #24]
 1108 003e 207F     		ldrb	r0, [r4, #28]	@ zero_extendqisi2
 1109 0040 0090     		str	r0, [sp]
 1110 0042 2046     		mov	r0, r4
 1111 0044 FFF7FEFF 		bl	prvInitialiseNewStreamBuffer
ARM GAS  /tmp/cc9Iu9BV.s 			page 47


 1112              	.LVL122:
 427:Middlewares/Third_Party/FreeRTOS/Source/stream_buffer.c **** 				}
 1113              		.loc 1 427 0
 1114 0048 2562     		str	r5, [r4, #32]
 423:Middlewares/Third_Party/FreeRTOS/Source/stream_buffer.c **** 
 1115              		.loc 1 423 0
 1116 004a 0124     		movs	r4, #1
 1117              	.LVL123:
 1118 004c E2E7     		b	.L87
 1119              		.cfi_endproc
 1120              	.LFE7:
 1122              		.section	.text.xStreamBufferSetTriggerLevel,"ax",%progbits
 1123              		.align	1
 1124              		.global	xStreamBufferSetTriggerLevel
 1125              		.syntax unified
 1126              		.thumb
 1127              		.thumb_func
 1128              		.fpu fpv4-sp-d16
 1130              	xStreamBufferSetTriggerLevel:
 1131              	.LFB8:
 442:Middlewares/Third_Party/FreeRTOS/Source/stream_buffer.c **** StreamBuffer_t * const pxStreamBuffer = xStreamBuffer;
 1132              		.loc 1 442 0
 1133              		.cfi_startproc
 1134              		@ args = 0, pretend = 0, frame = 0
 1135              		@ frame_needed = 0, uses_anonymous_args = 0
 1136              		@ link register save eliminated.
 1137              	.LVL124:
 446:Middlewares/Third_Party/FreeRTOS/Source/stream_buffer.c **** 
 1138              		.loc 1 446 0
 1139 0000 0346     		mov	r3, r0
 1140 0002 38B1     		cbz	r0, .L102
 449:Middlewares/Third_Party/FreeRTOS/Source/stream_buffer.c **** 	{
 1141              		.loc 1 449 0
 1142 0004 01B9     		cbnz	r1, .L98
 451:Middlewares/Third_Party/FreeRTOS/Source/stream_buffer.c **** 	}
 1143              		.loc 1 451 0
 1144 0006 0121     		movs	r1, #1
 1145              	.LVL125:
 1146              	.L98:
 456:Middlewares/Third_Party/FreeRTOS/Source/stream_buffer.c **** 	{
 1147              		.loc 1 456 0
 1148 0008 9A68     		ldr	r2, [r3, #8]
 1149 000a 9142     		cmp	r1, r2
 1150 000c 0BD8     		bhi	.L101
 458:Middlewares/Third_Party/FreeRTOS/Source/stream_buffer.c **** 		xReturn = pdPASS;
 1151              		.loc 1 458 0
 1152 000e D960     		str	r1, [r3, #12]
 1153              	.LVL126:
 459:Middlewares/Third_Party/FreeRTOS/Source/stream_buffer.c **** 	}
 1154              		.loc 1 459 0
 1155 0010 0120     		movs	r0, #1
 1156              	.LVL127:
 1157 0012 7047     		bx	lr
 1158              	.LVL128:
 1159              	.L102:
 1160              	.LBB132:
 1161              	.LBB133:
ARM GAS  /tmp/cc9Iu9BV.s 			page 48


 1162              		.loc 2 195 0
 1163              		.syntax unified
 1164              	@ 195 "Middlewares/Third_Party/FreeRTOS/Source/portable/GCC/ARM_CM4F/portmacro.h" 1
 1165 0014 4FF05003 			mov r3, #80												
 1166 0018 83F31188 		msr basepri, r3											
 1167 001c BFF36F8F 		isb														
 1168 0020 BFF34F8F 		dsb														
 1169              	
 1170              	@ 0 "" 2
 1171              	.LVL129:
 1172              		.thumb
 1173              		.syntax unified
 1174              	.L97:
 1175 0024 FEE7     		b	.L97
 1176              	.L101:
 1177              	.LBE133:
 1178              	.LBE132:
 463:Middlewares/Third_Party/FreeRTOS/Source/stream_buffer.c **** 	}
 1179              		.loc 1 463 0
 1180 0026 0020     		movs	r0, #0
 1181              	.LVL130:
 467:Middlewares/Third_Party/FreeRTOS/Source/stream_buffer.c **** /*-----------------------------------------------------------*/
 1182              		.loc 1 467 0
 1183 0028 7047     		bx	lr
 1184              		.cfi_endproc
 1185              	.LFE8:
 1187              		.section	.text.xStreamBufferSpacesAvailable,"ax",%progbits
 1188              		.align	1
 1189              		.global	xStreamBufferSpacesAvailable
 1190              		.syntax unified
 1191              		.thumb
 1192              		.thumb_func
 1193              		.fpu fpv4-sp-d16
 1195              	xStreamBufferSpacesAvailable:
 1196              	.LFB9:
 471:Middlewares/Third_Party/FreeRTOS/Source/stream_buffer.c **** const StreamBuffer_t * const pxStreamBuffer = xStreamBuffer;
 1197              		.loc 1 471 0
 1198              		.cfi_startproc
 1199              		@ args = 0, pretend = 0, frame = 0
 1200              		@ frame_needed = 0, uses_anonymous_args = 0
 1201              		@ link register save eliminated.
 1202              	.LVL131:
 475:Middlewares/Third_Party/FreeRTOS/Source/stream_buffer.c **** 
 1203              		.loc 1 475 0
 1204 0000 0246     		mov	r2, r0
 1205 0002 48B1     		cbz	r0, .L107
 477:Middlewares/Third_Party/FreeRTOS/Source/stream_buffer.c **** 	xSpace -= pxStreamBuffer->xHead;
 1206              		.loc 1 477 0
 1207 0004 8368     		ldr	r3, [r0, #8]
 1208 0006 0068     		ldr	r0, [r0]
 1209              	.LVL132:
 1210 0008 1844     		add	r0, r0, r3
 1211              	.LVL133:
 478:Middlewares/Third_Party/FreeRTOS/Source/stream_buffer.c **** 	xSpace -= ( size_t ) 1;
 1212              		.loc 1 478 0
 1213 000a 5268     		ldr	r2, [r2, #4]
 1214              	.LVL134:
ARM GAS  /tmp/cc9Iu9BV.s 			page 49


 1215 000c 801A     		subs	r0, r0, r2
 1216              	.LVL135:
 479:Middlewares/Third_Party/FreeRTOS/Source/stream_buffer.c **** 
 1217              		.loc 1 479 0
 1218 000e 0138     		subs	r0, r0, #1
 1219              	.LVL136:
 481:Middlewares/Third_Party/FreeRTOS/Source/stream_buffer.c **** 	{
 1220              		.loc 1 481 0
 1221 0010 8342     		cmp	r3, r0
 1222 0012 00D8     		bhi	.L103
 483:Middlewares/Third_Party/FreeRTOS/Source/stream_buffer.c **** 	}
 1223              		.loc 1 483 0
 1224 0014 C01A     		subs	r0, r0, r3
 1225              	.LVL137:
 1226              	.L103:
 491:Middlewares/Third_Party/FreeRTOS/Source/stream_buffer.c **** /*-----------------------------------------------------------*/
 1227              		.loc 1 491 0
 1228 0016 7047     		bx	lr
 1229              	.LVL138:
 1230              	.L107:
 1231              	.LBB134:
 1232              	.LBB135:
 1233              		.loc 2 195 0
 1234              		.syntax unified
 1235              	@ 195 "Middlewares/Third_Party/FreeRTOS/Source/portable/GCC/ARM_CM4F/portmacro.h" 1
 1236 0018 4FF05003 			mov r3, #80												
 1237 001c 83F31188 		msr basepri, r3											
 1238 0020 BFF36F8F 		isb														
 1239 0024 BFF34F8F 		dsb														
 1240              	
 1241              	@ 0 "" 2
 1242              	.LVL139:
 1243              		.thumb
 1244              		.syntax unified
 1245              	.L105:
 1246 0028 FEE7     		b	.L105
 1247              	.LBE135:
 1248              	.LBE134:
 1249              		.cfi_endproc
 1250              	.LFE9:
 1252              		.section	.text.xStreamBufferBytesAvailable,"ax",%progbits
 1253              		.align	1
 1254              		.global	xStreamBufferBytesAvailable
 1255              		.syntax unified
 1256              		.thumb
 1257              		.thumb_func
 1258              		.fpu fpv4-sp-d16
 1260              	xStreamBufferBytesAvailable:
 1261              	.LFB10:
 495:Middlewares/Third_Party/FreeRTOS/Source/stream_buffer.c **** const StreamBuffer_t * const pxStreamBuffer = xStreamBuffer;
 1262              		.loc 1 495 0
 1263              		.cfi_startproc
 1264              		@ args = 0, pretend = 0, frame = 0
 1265              		@ frame_needed = 0, uses_anonymous_args = 0
 1266              	.LVL140:
 1267 0000 08B5     		push	{r3, lr}
 1268              	.LCFI23:
ARM GAS  /tmp/cc9Iu9BV.s 			page 50


 1269              		.cfi_def_cfa_offset 8
 1270              		.cfi_offset 3, -8
 1271              		.cfi_offset 14, -4
 1272              	.LVL141:
 499:Middlewares/Third_Party/FreeRTOS/Source/stream_buffer.c **** 
 1273              		.loc 1 499 0
 1274 0002 40B9     		cbnz	r0, .L109
 1275              	.LBB136:
 1276              	.LBB137:
 1277              		.loc 2 195 0
 1278              		.syntax unified
 1279              	@ 195 "Middlewares/Third_Party/FreeRTOS/Source/portable/GCC/ARM_CM4F/portmacro.h" 1
 1280 0004 4FF05003 			mov r3, #80												
 1281 0008 83F31188 		msr basepri, r3											
 1282 000c BFF36F8F 		isb														
 1283 0010 BFF34F8F 		dsb														
 1284              	
 1285              	@ 0 "" 2
 1286              	.LVL142:
 1287              		.thumb
 1288              		.syntax unified
 1289              	.L110:
 1290 0014 FEE7     		b	.L110
 1291              	.L109:
 1292              	.LBE137:
 1293              	.LBE136:
 501:Middlewares/Third_Party/FreeRTOS/Source/stream_buffer.c **** 	return xReturn;
 1294              		.loc 1 501 0
 1295 0016 FFF7FEFF 		bl	prvBytesInBuffer
 1296              	.LVL143:
 503:Middlewares/Third_Party/FreeRTOS/Source/stream_buffer.c **** /*-----------------------------------------------------------*/
 1297              		.loc 1 503 0
 1298 001a 08BD     		pop	{r3, pc}
 1299              		.cfi_endproc
 1300              	.LFE10:
 1302              		.section	.text.xStreamBufferSend,"ax",%progbits
 1303              		.align	1
 1304              		.global	xStreamBufferSend
 1305              		.syntax unified
 1306              		.thumb
 1307              		.thumb_func
 1308              		.fpu fpv4-sp-d16
 1310              	xStreamBufferSend:
 1311              	.LFB11:
 510:Middlewares/Third_Party/FreeRTOS/Source/stream_buffer.c **** StreamBuffer_t * const pxStreamBuffer = xStreamBuffer;
 1312              		.loc 1 510 0
 1313              		.cfi_startproc
 1314              		@ args = 0, pretend = 0, frame = 16
 1315              		@ frame_needed = 0, uses_anonymous_args = 0
 1316              	.LVL144:
 1317 0000 2DE9F043 		push	{r4, r5, r6, r7, r8, r9, lr}
 1318              	.LCFI24:
 1319              		.cfi_def_cfa_offset 28
 1320              		.cfi_offset 4, -28
 1321              		.cfi_offset 5, -24
 1322              		.cfi_offset 6, -20
 1323              		.cfi_offset 7, -16
ARM GAS  /tmp/cc9Iu9BV.s 			page 51


 1324              		.cfi_offset 8, -12
 1325              		.cfi_offset 9, -8
 1326              		.cfi_offset 14, -4
 1327 0004 87B0     		sub	sp, sp, #28
 1328              	.LCFI25:
 1329              		.cfi_def_cfa_offset 56
 1330 0006 0393     		str	r3, [sp, #12]
 1331              	.LVL145:
 516:Middlewares/Third_Party/FreeRTOS/Source/stream_buffer.c **** 	configASSERT( pxStreamBuffer );
 1332              		.loc 1 516 0
 1333 0008 89B1     		cbz	r1, .L130
 1334 000a 8846     		mov	r8, r1
 517:Middlewares/Third_Party/FreeRTOS/Source/stream_buffer.c **** 
 1335              		.loc 1 517 0
 1336 000c C0B1     		cbz	r0, .L131
 523:Middlewares/Third_Party/FreeRTOS/Source/stream_buffer.c **** 	{
 1337              		.loc 1 523 0
 1338 000e 037F     		ldrb	r3, [r0, #28]	@ zero_extendqisi2
 1339              	.LVL146:
 1340 0010 13F0010F 		tst	r3, #1
 1341 0014 1DD0     		beq	.L127
 525:Middlewares/Third_Party/FreeRTOS/Source/stream_buffer.c **** 
 1342              		.loc 1 525 0
 1343 0016 171D     		adds	r7, r2, #4
 1344              	.LVL147:
 528:Middlewares/Third_Party/FreeRTOS/Source/stream_buffer.c **** 	}
 1345              		.loc 1 528 0
 1346 0018 BA42     		cmp	r2, r7
 1347 001a 1BD3     		bcc	.L117
 1348              	.LBB138:
 1349              	.LBB139:
 1350              		.loc 2 195 0
 1351              		.syntax unified
 1352              	@ 195 "Middlewares/Third_Party/FreeRTOS/Source/portable/GCC/ARM_CM4F/portmacro.h" 1
 1353 001c 4FF05003 			mov r3, #80												
 1354 0020 83F31188 		msr basepri, r3											
 1355 0024 BFF36F8F 		isb														
 1356 0028 BFF34F8F 		dsb														
 1357              	
 1358              	@ 0 "" 2
 1359              	.LVL148:
 1360              		.thumb
 1361              		.syntax unified
 1362              	.L118:
 1363 002c FEE7     		b	.L118
 1364              	.LVL149:
 1365              	.L130:
 1366              	.LBE139:
 1367              	.LBE138:
 1368              	.LBB140:
 1369              	.LBB141:
 1370              		.syntax unified
 1371              	@ 195 "Middlewares/Third_Party/FreeRTOS/Source/portable/GCC/ARM_CM4F/portmacro.h" 1
 1372 002e 4FF05003 			mov r3, #80												
 1373 0032 83F31188 		msr basepri, r3											
 1374 0036 BFF36F8F 		isb														
 1375 003a BFF34F8F 		dsb														
ARM GAS  /tmp/cc9Iu9BV.s 			page 52


 1376              	
 1377              	@ 0 "" 2
 1378              	.LVL150:
 1379              		.thumb
 1380              		.syntax unified
 1381              	.L114:
 1382 003e FEE7     		b	.L114
 1383              	.LVL151:
 1384              	.L131:
 1385              	.LBE141:
 1386              	.LBE140:
 1387              	.LBB142:
 1388              	.LBB143:
 1389              		.syntax unified
 1390              	@ 195 "Middlewares/Third_Party/FreeRTOS/Source/portable/GCC/ARM_CM4F/portmacro.h" 1
 1391 0040 4FF05003 			mov r3, #80												
 1392 0044 83F31188 		msr basepri, r3											
 1393 0048 BFF36F8F 		isb														
 1394 004c BFF34F8F 		dsb														
 1395              	
 1396              	@ 0 "" 2
 1397              	.LVL152:
 1398              		.thumb
 1399              		.syntax unified
 1400              	.L116:
 1401 0050 FEE7     		b	.L116
 1402              	.L127:
 1403              	.LBE143:
 1404              	.LBE142:
 513:Middlewares/Third_Party/FreeRTOS/Source/stream_buffer.c **** TimeOut_t xTimeOut;
 1405              		.loc 1 513 0
 1406 0052 1746     		mov	r7, r2
 1407              	.LVL153:
 1408              	.L117:
 1409 0054 1646     		mov	r6, r2
 1410 0056 0446     		mov	r4, r0
 535:Middlewares/Third_Party/FreeRTOS/Source/stream_buffer.c **** 	{
 1411              		.loc 1 535 0
 1412 0058 039B     		ldr	r3, [sp, #12]
 1413 005a 83B9     		cbnz	r3, .L132
 512:Middlewares/Third_Party/FreeRTOS/Source/stream_buffer.c **** size_t xRequiredSpace = xDataLengthBytes;
 1414              		.loc 1 512 0
 1415 005c 0025     		movs	r5, #0
 1416              	.LVL154:
 1417              	.L119:
 575:Middlewares/Third_Party/FreeRTOS/Source/stream_buffer.c **** 	{
 1418              		.loc 1 575 0
 1419 005e 002D     		cmp	r5, #0
 1420 0060 40D0     		beq	.L133
 1421              	.L124:
 584:Middlewares/Third_Party/FreeRTOS/Source/stream_buffer.c **** 
 1422              		.loc 1 584 0
 1423 0062 0097     		str	r7, [sp]
 1424 0064 2B46     		mov	r3, r5
 1425 0066 3246     		mov	r2, r6
 1426 0068 4146     		mov	r1, r8
 1427 006a 2046     		mov	r0, r4
ARM GAS  /tmp/cc9Iu9BV.s 			page 53


 1428 006c FFF7FEFF 		bl	prvWriteMessageToBuffer
 1429              	.LVL155:
 586:Middlewares/Third_Party/FreeRTOS/Source/stream_buffer.c **** 	{
 1430              		.loc 1 586 0
 1431 0070 0546     		mov	r5, r0
 1432              	.LVL156:
 1433 0072 0028     		cmp	r0, #0
 1434 0074 3BD1     		bne	.L134
 1435              	.LVL157:
 1436              	.L112:
 607:Middlewares/Third_Party/FreeRTOS/Source/stream_buffer.c **** /*-----------------------------------------------------------*/
 1437              		.loc 1 607 0
 1438 0076 2846     		mov	r0, r5
 1439 0078 07B0     		add	sp, sp, #28
 1440              	.LCFI26:
 1441              		.cfi_remember_state
 1442              		.cfi_def_cfa_offset 28
 1443              		@ sp needed
 1444 007a BDE8F083 		pop	{r4, r5, r6, r7, r8, r9, pc}
 1445              	.LVL158:
 1446              	.L132:
 1447              	.LCFI27:
 1448              		.cfi_restore_state
 537:Middlewares/Third_Party/FreeRTOS/Source/stream_buffer.c **** 
 1449              		.loc 1 537 0
 1450 007e 04A8     		add	r0, sp, #16
 1451              	.LVL159:
 1452 0080 FFF7FEFF 		bl	vTaskSetTimeOutState
 1453              	.LVL160:
 1454              	.L123:
 543:Middlewares/Third_Party/FreeRTOS/Source/stream_buffer.c **** 			{
 1455              		.loc 1 543 0
 1456 0084 FFF7FEFF 		bl	vPortEnterCritical
 1457              	.LVL161:
 545:Middlewares/Third_Party/FreeRTOS/Source/stream_buffer.c **** 
 1458              		.loc 1 545 0
 1459 0088 2046     		mov	r0, r4
 1460 008a FFF7FEFF 		bl	xStreamBufferSpacesAvailable
 1461              	.LVL162:
 1462 008e 0546     		mov	r5, r0
 1463              	.LVL163:
 547:Middlewares/Third_Party/FreeRTOS/Source/stream_buffer.c **** 				{
 1464              		.loc 1 547 0
 1465 0090 8742     		cmp	r7, r0
 1466 0092 24D9     		bls	.L120
 550:Middlewares/Third_Party/FreeRTOS/Source/stream_buffer.c **** 
 1467              		.loc 1 550 0
 1468 0094 0020     		movs	r0, #0
 1469              	.LVL164:
 1470 0096 FFF7FEFF 		bl	xTaskNotifyStateClear
 1471              	.LVL165:
 553:Middlewares/Third_Party/FreeRTOS/Source/stream_buffer.c **** 					pxStreamBuffer->xTaskWaitingToSend = xTaskGetCurrentTaskHandle();
 1472              		.loc 1 553 0
 1473 009a 6369     		ldr	r3, [r4, #20]
 1474 009c B3B9     		cbnz	r3, .L135
 554:Middlewares/Third_Party/FreeRTOS/Source/stream_buffer.c **** 				}
 1475              		.loc 1 554 0
ARM GAS  /tmp/cc9Iu9BV.s 			page 54


 1476 009e FFF7FEFF 		bl	xTaskGetCurrentTaskHandle
 1477              	.LVL166:
 1478 00a2 6061     		str	r0, [r4, #20]
 562:Middlewares/Third_Party/FreeRTOS/Source/stream_buffer.c **** 
 1479              		.loc 1 562 0
 1480 00a4 FFF7FEFF 		bl	vPortExitCritical
 1481              	.LVL167:
 565:Middlewares/Third_Party/FreeRTOS/Source/stream_buffer.c **** 			pxStreamBuffer->xTaskWaitingToSend = NULL;
 1482              		.loc 1 565 0
 1483 00a8 0DF11809 		add	r9, sp, #24
 1484 00ac 59F80C3D 		ldr	r3, [r9, #-12]!
 1485 00b0 0022     		movs	r2, #0
 1486 00b2 1146     		mov	r1, r2
 1487 00b4 1046     		mov	r0, r2
 1488 00b6 FFF7FEFF 		bl	xTaskNotifyWait
 1489              	.LVL168:
 566:Middlewares/Third_Party/FreeRTOS/Source/stream_buffer.c **** 
 1490              		.loc 1 566 0
 1491 00ba 0023     		movs	r3, #0
 1492 00bc 6361     		str	r3, [r4, #20]
 568:Middlewares/Third_Party/FreeRTOS/Source/stream_buffer.c **** 	}
 1493              		.loc 1 568 0
 1494 00be 4946     		mov	r1, r9
 1495 00c0 04A8     		add	r0, sp, #16
 1496 00c2 FFF7FEFF 		bl	xTaskCheckForTimeOut
 1497              	.LVL169:
 1498 00c6 0028     		cmp	r0, #0
 1499 00c8 DCD0     		beq	.L123
 1500 00ca C8E7     		b	.L119
 1501              	.L135:
 1502              	.LBB144:
 1503              	.LBB145:
 1504              		.loc 2 195 0
 1505              		.syntax unified
 1506              	@ 195 "Middlewares/Third_Party/FreeRTOS/Source/portable/GCC/ARM_CM4F/portmacro.h" 1
 1507 00cc 4FF05003 			mov r3, #80												
 1508 00d0 83F31188 		msr basepri, r3											
 1509 00d4 BFF36F8F 		isb														
 1510 00d8 BFF34F8F 		dsb														
 1511              	
 1512              	@ 0 "" 2
 1513              	.LVL170:
 1514              		.thumb
 1515              		.syntax unified
 1516              	.L122:
 1517 00dc FEE7     		b	.L122
 1518              	.LVL171:
 1519              	.L120:
 1520              	.LBE145:
 1521              	.LBE144:
 558:Middlewares/Third_Party/FreeRTOS/Source/stream_buffer.c **** 					break;
 1522              		.loc 1 558 0
 1523 00de FFF7FEFF 		bl	vPortExitCritical
 1524              	.LVL172:
 559:Middlewares/Third_Party/FreeRTOS/Source/stream_buffer.c **** 				}
 1525              		.loc 1 559 0
 1526 00e2 BCE7     		b	.L119
ARM GAS  /tmp/cc9Iu9BV.s 			page 55


 1527              	.L133:
 577:Middlewares/Third_Party/FreeRTOS/Source/stream_buffer.c **** 	}
 1528              		.loc 1 577 0
 1529 00e4 2046     		mov	r0, r4
 1530 00e6 FFF7FEFF 		bl	xStreamBufferSpacesAvailable
 1531              	.LVL173:
 1532 00ea 0546     		mov	r5, r0
 1533              	.LVL174:
 1534 00ec B9E7     		b	.L124
 1535              	.LVL175:
 1536              	.L134:
 591:Middlewares/Third_Party/FreeRTOS/Source/stream_buffer.c **** 		{
 1537              		.loc 1 591 0
 1538 00ee 2046     		mov	r0, r4
 1539              	.LVL176:
 1540 00f0 FFF7FEFF 		bl	prvBytesInBuffer
 1541              	.LVL177:
 1542 00f4 E368     		ldr	r3, [r4, #12]
 1543 00f6 9842     		cmp	r0, r3
 1544 00f8 BDD3     		bcc	.L112
 593:Middlewares/Third_Party/FreeRTOS/Source/stream_buffer.c **** 		}
 1545              		.loc 1 593 0
 1546 00fa FFF7FEFF 		bl	vTaskSuspendAll
 1547              	.LVL178:
 1548 00fe 2369     		ldr	r3, [r4, #16]
 1549 0100 3BB1     		cbz	r3, .L126
 593:Middlewares/Third_Party/FreeRTOS/Source/stream_buffer.c **** 		}
 1550              		.loc 1 593 0 is_stmt 0 discriminator 1
 1551 0102 2069     		ldr	r0, [r4, #16]
 1552 0104 0023     		movs	r3, #0
 1553 0106 1A46     		mov	r2, r3
 1554 0108 1946     		mov	r1, r3
 1555 010a FFF7FEFF 		bl	xTaskGenericNotify
 1556              	.LVL179:
 1557 010e 0023     		movs	r3, #0
 1558 0110 2361     		str	r3, [r4, #16]
 1559              	.L126:
 593:Middlewares/Third_Party/FreeRTOS/Source/stream_buffer.c **** 		}
 1560              		.loc 1 593 0 discriminator 3
 1561 0112 FFF7FEFF 		bl	xTaskResumeAll
 1562              	.LVL180:
 606:Middlewares/Third_Party/FreeRTOS/Source/stream_buffer.c **** }
 1563              		.loc 1 606 0 is_stmt 1 discriminator 3
 1564 0116 AEE7     		b	.L112
 1565              		.cfi_endproc
 1566              	.LFE11:
 1568              		.section	.text.xStreamBufferSendFromISR,"ax",%progbits
 1569              		.align	1
 1570              		.global	xStreamBufferSendFromISR
 1571              		.syntax unified
 1572              		.thumb
 1573              		.thumb_func
 1574              		.fpu fpv4-sp-d16
 1576              	xStreamBufferSendFromISR:
 1577              	.LFB12:
 614:Middlewares/Third_Party/FreeRTOS/Source/stream_buffer.c **** StreamBuffer_t * const pxStreamBuffer = xStreamBuffer;
 1578              		.loc 1 614 0
ARM GAS  /tmp/cc9Iu9BV.s 			page 56


 1579              		.cfi_startproc
 1580              		@ args = 0, pretend = 0, frame = 0
 1581              		@ frame_needed = 0, uses_anonymous_args = 0
 1582              	.LVL181:
 619:Middlewares/Third_Party/FreeRTOS/Source/stream_buffer.c **** 	configASSERT( pxStreamBuffer );
 1583              		.loc 1 619 0
 1584 0000 59B1     		cbz	r1, .L147
 614:Middlewares/Third_Party/FreeRTOS/Source/stream_buffer.c **** StreamBuffer_t * const pxStreamBuffer = xStreamBuffer;
 1585              		.loc 1 614 0
 1586 0002 2DE9F041 		push	{r4, r5, r6, r7, r8, lr}
 1587              	.LCFI28:
 1588              		.cfi_def_cfa_offset 24
 1589              		.cfi_offset 4, -24
 1590              		.cfi_offset 5, -20
 1591              		.cfi_offset 6, -16
 1592              		.cfi_offset 7, -12
 1593              		.cfi_offset 8, -8
 1594              		.cfi_offset 14, -4
 1595 0006 82B0     		sub	sp, sp, #8
 1596              	.LCFI29:
 1597              		.cfi_def_cfa_offset 32
 1598 0008 0E46     		mov	r6, r1
 620:Middlewares/Third_Party/FreeRTOS/Source/stream_buffer.c **** 
 1599              		.loc 1 620 0
 1600 000a 78B1     		cbz	r0, .L148
 626:Middlewares/Third_Party/FreeRTOS/Source/stream_buffer.c **** 	{
 1601              		.loc 1 626 0
 1602 000c 017F     		ldrb	r1, [r0, #28]	@ zero_extendqisi2
 1603              	.LVL182:
 1604 000e 11F0010F 		tst	r1, #1
 1605 0012 14D0     		beq	.L144
 628:Middlewares/Third_Party/FreeRTOS/Source/stream_buffer.c **** 	}
 1606              		.loc 1 628 0
 1607 0014 02F10408 		add	r8, r2, #4
 1608              	.LVL183:
 1609 0018 12E0     		b	.L141
 1610              	.LVL184:
 1611              	.L147:
 1612              	.LCFI30:
 1613              		.cfi_def_cfa_offset 0
 1614              		.cfi_restore 4
 1615              		.cfi_restore 5
 1616              		.cfi_restore 6
 1617              		.cfi_restore 7
 1618              		.cfi_restore 8
 1619              		.cfi_restore 14
 1620              	.LBB146:
 1621              	.LBB147:
 1622              		.loc 2 195 0
 1623              		.syntax unified
 1624              	@ 195 "Middlewares/Third_Party/FreeRTOS/Source/portable/GCC/ARM_CM4F/portmacro.h" 1
 1625 001a 4FF05003 			mov r3, #80												
 1626 001e 83F31188 		msr basepri, r3											
 1627 0022 BFF36F8F 		isb														
 1628 0026 BFF34F8F 		dsb														
 1629              	
 1630              	@ 0 "" 2
ARM GAS  /tmp/cc9Iu9BV.s 			page 57


 1631              	.LVL185:
 1632              		.thumb
 1633              		.syntax unified
 1634              	.L138:
 1635 002a FEE7     		b	.L138
 1636              	.LVL186:
 1637              	.L148:
 1638              	.LCFI31:
 1639              		.cfi_def_cfa_offset 32
 1640              		.cfi_offset 4, -24
 1641              		.cfi_offset 5, -20
 1642              		.cfi_offset 6, -16
 1643              		.cfi_offset 7, -12
 1644              		.cfi_offset 8, -8
 1645              		.cfi_offset 14, -4
 1646              	.LBE147:
 1647              	.LBE146:
 1648              	.LBB148:
 1649              	.LBB149:
 1650              		.syntax unified
 1651              	@ 195 "Middlewares/Third_Party/FreeRTOS/Source/portable/GCC/ARM_CM4F/portmacro.h" 1
 1652 002c 4FF05003 			mov r3, #80												
 1653 0030 83F31188 		msr basepri, r3											
 1654 0034 BFF36F8F 		isb														
 1655 0038 BFF34F8F 		dsb														
 1656              	
 1657              	@ 0 "" 2
 1658              	.LVL187:
 1659              		.thumb
 1660              		.syntax unified
 1661              	.L140:
 1662 003c FEE7     		b	.L140
 1663              	.LVL188:
 1664              	.L144:
 1665              	.LBE149:
 1666              	.LBE148:
 617:Middlewares/Third_Party/FreeRTOS/Source/stream_buffer.c **** 
 1667              		.loc 1 617 0
 1668 003e 9046     		mov	r8, r2
 1669              	.LVL189:
 1670              	.L141:
 1671 0040 1F46     		mov	r7, r3
 1672 0042 1546     		mov	r5, r2
 1673 0044 0446     		mov	r4, r0
 635:Middlewares/Third_Party/FreeRTOS/Source/stream_buffer.c **** 	xReturn = prvWriteMessageToBuffer( pxStreamBuffer, pvTxData, xDataLengthBytes, xSpace, xRequiredSp
 1674              		.loc 1 635 0
 1675 0046 FFF7FEFF 		bl	xStreamBufferSpacesAvailable
 1676              	.LVL190:
 636:Middlewares/Third_Party/FreeRTOS/Source/stream_buffer.c **** 
 1677              		.loc 1 636 0
 1678 004a CDF80080 		str	r8, [sp]
 1679 004e 0346     		mov	r3, r0
 1680 0050 2A46     		mov	r2, r5
 1681 0052 3146     		mov	r1, r6
 1682 0054 2046     		mov	r0, r4
 1683              	.LVL191:
 1684 0056 FFF7FEFF 		bl	prvWriteMessageToBuffer
ARM GAS  /tmp/cc9Iu9BV.s 			page 58


 1685              	.LVL192:
 638:Middlewares/Third_Party/FreeRTOS/Source/stream_buffer.c **** 	{
 1686              		.loc 1 638 0
 1687 005a 0546     		mov	r5, r0
 1688              	.LVL193:
 1689 005c 18B9     		cbnz	r0, .L149
 1690              	.LVL194:
 1691              	.L136:
 658:Middlewares/Third_Party/FreeRTOS/Source/stream_buffer.c **** /*-----------------------------------------------------------*/
 1692              		.loc 1 658 0
 1693 005e 2846     		mov	r0, r5
 1694 0060 02B0     		add	sp, sp, #8
 1695              	.LCFI32:
 1696              		.cfi_remember_state
 1697              		.cfi_def_cfa_offset 24
 1698              		@ sp needed
 1699 0062 BDE8F081 		pop	{r4, r5, r6, r7, r8, pc}
 1700              	.LVL195:
 1701              	.L149:
 1702              	.LCFI33:
 1703              		.cfi_restore_state
 641:Middlewares/Third_Party/FreeRTOS/Source/stream_buffer.c **** 		{
 1704              		.loc 1 641 0
 1705 0066 2046     		mov	r0, r4
 1706              	.LVL196:
 1707 0068 FFF7FEFF 		bl	prvBytesInBuffer
 1708              	.LVL197:
 1709 006c E368     		ldr	r3, [r4, #12]
 1710 006e 9842     		cmp	r0, r3
 1711 0070 F5D3     		bcc	.L136
 1712              	.LBB150:
 1713              	.LBB151:
 1714              	.LBB152:
 196:Middlewares/Third_Party/FreeRTOS/Source/portable/GCC/ARM_CM4F/portmacro.h **** 	(
 197:Middlewares/Third_Party/FreeRTOS/Source/portable/GCC/ARM_CM4F/portmacro.h **** 		"	mov %0, %1												\n"	\
 198:Middlewares/Third_Party/FreeRTOS/Source/portable/GCC/ARM_CM4F/portmacro.h **** 		"	msr basepri, %0											\n" \
 199:Middlewares/Third_Party/FreeRTOS/Source/portable/GCC/ARM_CM4F/portmacro.h **** 		"	isb														\n" \
 200:Middlewares/Third_Party/FreeRTOS/Source/portable/GCC/ARM_CM4F/portmacro.h **** 		"	dsb														\n" \
 201:Middlewares/Third_Party/FreeRTOS/Source/portable/GCC/ARM_CM4F/portmacro.h **** 		:"=r" (ulNewBASEPRI) : "i" ( configMAX_SYSCALL_INTERRUPT_PRIORITY ) : "memory"
 202:Middlewares/Third_Party/FreeRTOS/Source/portable/GCC/ARM_CM4F/portmacro.h **** 	);
 203:Middlewares/Third_Party/FreeRTOS/Source/portable/GCC/ARM_CM4F/portmacro.h **** }
 204:Middlewares/Third_Party/FreeRTOS/Source/portable/GCC/ARM_CM4F/portmacro.h **** 
 205:Middlewares/Third_Party/FreeRTOS/Source/portable/GCC/ARM_CM4F/portmacro.h **** /*-----------------------------------------------------------*/
 206:Middlewares/Third_Party/FreeRTOS/Source/portable/GCC/ARM_CM4F/portmacro.h **** 
 207:Middlewares/Third_Party/FreeRTOS/Source/portable/GCC/ARM_CM4F/portmacro.h **** portFORCE_INLINE static uint32_t ulPortRaiseBASEPRI( void )
 208:Middlewares/Third_Party/FreeRTOS/Source/portable/GCC/ARM_CM4F/portmacro.h **** {
 209:Middlewares/Third_Party/FreeRTOS/Source/portable/GCC/ARM_CM4F/portmacro.h **** uint32_t ulOriginalBASEPRI, ulNewBASEPRI;
 210:Middlewares/Third_Party/FreeRTOS/Source/portable/GCC/ARM_CM4F/portmacro.h **** 
 211:Middlewares/Third_Party/FreeRTOS/Source/portable/GCC/ARM_CM4F/portmacro.h **** 	__asm volatile
 1715              		.loc 2 211 0
 1716              		.syntax unified
 1717              	@ 211 "Middlewares/Third_Party/FreeRTOS/Source/portable/GCC/ARM_CM4F/portmacro.h" 1
 1718 0072 EFF31186 			mrs r6, basepri											
 1719 0076 4FF05003 		mov r3, #80												
 1720 007a 83F31188 		msr basepri, r3											
 1721 007e BFF36F8F 		isb														
 1722 0082 BFF34F8F 		dsb														
ARM GAS  /tmp/cc9Iu9BV.s 			page 59


 1723              	
 1724              	@ 0 "" 2
 1725              	.LVL198:
 1726              		.thumb
 1727              		.syntax unified
 1728              	.LBE152:
 1729              	.LBE151:
 643:Middlewares/Third_Party/FreeRTOS/Source/stream_buffer.c **** 		}
 1730              		.loc 1 643 0
 1731 0086 2369     		ldr	r3, [r4, #16]
 1732 0088 43B1     		cbz	r3, .L143
 643:Middlewares/Third_Party/FreeRTOS/Source/stream_buffer.c **** 		}
 1733              		.loc 1 643 0 is_stmt 0 discriminator 1
 1734 008a 2069     		ldr	r0, [r4, #16]
 1735 008c 0097     		str	r7, [sp]
 1736 008e 0023     		movs	r3, #0
 1737 0090 1A46     		mov	r2, r3
 1738 0092 1946     		mov	r1, r3
 1739 0094 FFF7FEFF 		bl	xTaskGenericNotifyFromISR
 1740              	.LVL199:
 1741 0098 0023     		movs	r3, #0
 1742 009a 2361     		str	r3, [r4, #16]
 1743              	.L143:
 1744              	.LVL200:
 1745              	.LBB153:
 1746              	.LBB154:
 212:Middlewares/Third_Party/FreeRTOS/Source/portable/GCC/ARM_CM4F/portmacro.h **** 	(
 213:Middlewares/Third_Party/FreeRTOS/Source/portable/GCC/ARM_CM4F/portmacro.h **** 		"	mrs %0, basepri											\n" \
 214:Middlewares/Third_Party/FreeRTOS/Source/portable/GCC/ARM_CM4F/portmacro.h **** 		"	mov %1, %2												\n"	\
 215:Middlewares/Third_Party/FreeRTOS/Source/portable/GCC/ARM_CM4F/portmacro.h **** 		"	msr basepri, %1											\n" \
 216:Middlewares/Third_Party/FreeRTOS/Source/portable/GCC/ARM_CM4F/portmacro.h **** 		"	isb														\n" \
 217:Middlewares/Third_Party/FreeRTOS/Source/portable/GCC/ARM_CM4F/portmacro.h **** 		"	dsb														\n" \
 218:Middlewares/Third_Party/FreeRTOS/Source/portable/GCC/ARM_CM4F/portmacro.h **** 		:"=r" (ulOriginalBASEPRI), "=r" (ulNewBASEPRI) : "i" ( configMAX_SYSCALL_INTERRUPT_PRIORITY ) : "
 219:Middlewares/Third_Party/FreeRTOS/Source/portable/GCC/ARM_CM4F/portmacro.h **** 	);
 220:Middlewares/Third_Party/FreeRTOS/Source/portable/GCC/ARM_CM4F/portmacro.h **** 
 221:Middlewares/Third_Party/FreeRTOS/Source/portable/GCC/ARM_CM4F/portmacro.h **** 	/* This return will not be reached but is necessary to prevent compiler
 222:Middlewares/Third_Party/FreeRTOS/Source/portable/GCC/ARM_CM4F/portmacro.h **** 	warnings. */
 223:Middlewares/Third_Party/FreeRTOS/Source/portable/GCC/ARM_CM4F/portmacro.h **** 	return ulOriginalBASEPRI;
 224:Middlewares/Third_Party/FreeRTOS/Source/portable/GCC/ARM_CM4F/portmacro.h **** }
 225:Middlewares/Third_Party/FreeRTOS/Source/portable/GCC/ARM_CM4F/portmacro.h **** /*-----------------------------------------------------------*/
 226:Middlewares/Third_Party/FreeRTOS/Source/portable/GCC/ARM_CM4F/portmacro.h **** 
 227:Middlewares/Third_Party/FreeRTOS/Source/portable/GCC/ARM_CM4F/portmacro.h **** portFORCE_INLINE static void vPortSetBASEPRI( uint32_t ulNewMaskValue )
 228:Middlewares/Third_Party/FreeRTOS/Source/portable/GCC/ARM_CM4F/portmacro.h **** {
 229:Middlewares/Third_Party/FreeRTOS/Source/portable/GCC/ARM_CM4F/portmacro.h **** 	__asm volatile
 1747              		.loc 2 229 0 is_stmt 1 discriminator 3
 1748              		.syntax unified
 1749              	@ 229 "Middlewares/Third_Party/FreeRTOS/Source/portable/GCC/ARM_CM4F/portmacro.h" 1
 1750 009c 86F31188 			msr basepri, r6	
 1751              	@ 0 "" 2
 1752              		.thumb
 1753              		.syntax unified
 1754              	.LBE154:
 1755              	.LBE153:
 1756              	.LBE150:
 657:Middlewares/Third_Party/FreeRTOS/Source/stream_buffer.c **** }
 1757              		.loc 1 657 0 discriminator 3
 1758 00a0 DDE7     		b	.L136
ARM GAS  /tmp/cc9Iu9BV.s 			page 60


 1759              		.cfi_endproc
 1760              	.LFE12:
 1762              		.section	.text.xStreamBufferReceive,"ax",%progbits
 1763              		.align	1
 1764              		.global	xStreamBufferReceive
 1765              		.syntax unified
 1766              		.thumb
 1767              		.thumb_func
 1768              		.fpu fpv4-sp-d16
 1770              	xStreamBufferReceive:
 1771              	.LFB14:
 717:Middlewares/Third_Party/FreeRTOS/Source/stream_buffer.c **** StreamBuffer_t * const pxStreamBuffer = xStreamBuffer;
 1772              		.loc 1 717 0
 1773              		.cfi_startproc
 1774              		@ args = 0, pretend = 0, frame = 0
 1775              		@ frame_needed = 0, uses_anonymous_args = 0
 1776              	.LVL201:
 721:Middlewares/Third_Party/FreeRTOS/Source/stream_buffer.c **** 	configASSERT( pxStreamBuffer );
 1777              		.loc 1 721 0
 1778 0000 21B3     		cbz	r1, .L167
 717:Middlewares/Third_Party/FreeRTOS/Source/stream_buffer.c **** StreamBuffer_t * const pxStreamBuffer = xStreamBuffer;
 1779              		.loc 1 717 0
 1780 0002 2DE9F043 		push	{r4, r5, r6, r7, r8, r9, lr}
 1781              	.LCFI34:
 1782              		.cfi_def_cfa_offset 28
 1783              		.cfi_offset 4, -28
 1784              		.cfi_offset 5, -24
 1785              		.cfi_offset 6, -20
 1786              		.cfi_offset 7, -16
 1787              		.cfi_offset 8, -12
 1788              		.cfi_offset 9, -8
 1789              		.cfi_offset 14, -4
 1790 0006 83B0     		sub	sp, sp, #12
 1791              	.LCFI35:
 1792              		.cfi_def_cfa_offset 40
 1793 0008 8846     		mov	r8, r1
 722:Middlewares/Third_Party/FreeRTOS/Source/stream_buffer.c **** 
 1794              		.loc 1 722 0
 1795 000a 40B3     		cbz	r0, .L168
 729:Middlewares/Third_Party/FreeRTOS/Source/stream_buffer.c **** 	{
 1796              		.loc 1 729 0
 1797 000c 017F     		ldrb	r1, [r0, #28]	@ zero_extendqisi2
 1798              	.LVL202:
 1799 000e 11F0010F 		tst	r1, #1
 1800 0012 2DD0     		beq	.L163
 731:Middlewares/Third_Party/FreeRTOS/Source/stream_buffer.c **** 	}
 1801              		.loc 1 731 0
 1802 0014 0426     		movs	r6, #4
 1803              	.L155:
 1804 0016 1F46     		mov	r7, r3
 1805 0018 9146     		mov	r9, r2
 1806 001a 0446     		mov	r4, r0
 1807              	.LVL203:
 738:Middlewares/Third_Party/FreeRTOS/Source/stream_buffer.c **** 	{
 1808              		.loc 1 738 0
 1809 001c 002B     		cmp	r3, #0
 1810 001e 3DD0     		beq	.L156
ARM GAS  /tmp/cc9Iu9BV.s 			page 61


 742:Middlewares/Third_Party/FreeRTOS/Source/stream_buffer.c **** 		{
 1811              		.loc 1 742 0
 1812 0020 FFF7FEFF 		bl	vPortEnterCritical
 1813              	.LVL204:
 744:Middlewares/Third_Party/FreeRTOS/Source/stream_buffer.c **** 
 1814              		.loc 1 744 0
 1815 0024 2046     		mov	r0, r4
 1816 0026 FFF7FEFF 		bl	prvBytesInBuffer
 1817              	.LVL205:
 1818 002a 0546     		mov	r5, r0
 1819              	.LVL206:
 751:Middlewares/Third_Party/FreeRTOS/Source/stream_buffer.c **** 			{
 1820              		.loc 1 751 0
 1821 002c 8642     		cmp	r6, r0
 1822 002e 24D3     		bcc	.L157
 754:Middlewares/Third_Party/FreeRTOS/Source/stream_buffer.c **** 
 1823              		.loc 1 754 0
 1824 0030 0020     		movs	r0, #0
 1825              	.LVL207:
 1826 0032 FFF7FEFF 		bl	xTaskNotifyStateClear
 1827              	.LVL208:
 757:Middlewares/Third_Party/FreeRTOS/Source/stream_buffer.c **** 				pxStreamBuffer->xTaskWaitingToReceive = xTaskGetCurrentTaskHandle();
 1828              		.loc 1 757 0
 1829 0036 2369     		ldr	r3, [r4, #16]
 1830 0038 E3B1     		cbz	r3, .L158
 1831              	.LBB155:
 1832              	.LBB156:
 195:Middlewares/Third_Party/FreeRTOS/Source/portable/GCC/ARM_CM4F/portmacro.h **** 	(
 1833              		.loc 2 195 0
 1834              		.syntax unified
 1835              	@ 195 "Middlewares/Third_Party/FreeRTOS/Source/portable/GCC/ARM_CM4F/portmacro.h" 1
 1836 003a 4FF05003 			mov r3, #80												
 1837 003e 83F31188 		msr basepri, r3											
 1838 0042 BFF36F8F 		isb														
 1839 0046 BFF34F8F 		dsb														
 1840              	
 1841              	@ 0 "" 2
 1842              	.LVL209:
 1843              		.thumb
 1844              		.syntax unified
 1845              	.L159:
 1846 004a FEE7     		b	.L159
 1847              	.LVL210:
 1848              	.L167:
 1849              	.LCFI36:
 1850              		.cfi_def_cfa_offset 0
 1851              		.cfi_restore 4
 1852              		.cfi_restore 5
 1853              		.cfi_restore 6
 1854              		.cfi_restore 7
 1855              		.cfi_restore 8
 1856              		.cfi_restore 9
 1857              		.cfi_restore 14
 1858              	.LBE156:
 1859              	.LBE155:
 1860              	.LBB157:
 1861              	.LBB158:
ARM GAS  /tmp/cc9Iu9BV.s 			page 62


 1862              		.syntax unified
 1863              	@ 195 "Middlewares/Third_Party/FreeRTOS/Source/portable/GCC/ARM_CM4F/portmacro.h" 1
 1864 004c 4FF05003 			mov r3, #80												
 1865 0050 83F31188 		msr basepri, r3											
 1866 0054 BFF36F8F 		isb														
 1867 0058 BFF34F8F 		dsb														
 1868              	
 1869              	@ 0 "" 2
 1870              	.LVL211:
 1871              		.thumb
 1872              		.syntax unified
 1873              	.L152:
 1874 005c FEE7     		b	.L152
 1875              	.LVL212:
 1876              	.L168:
 1877              	.LCFI37:
 1878              		.cfi_def_cfa_offset 40
 1879              		.cfi_offset 4, -28
 1880              		.cfi_offset 5, -24
 1881              		.cfi_offset 6, -20
 1882              		.cfi_offset 7, -16
 1883              		.cfi_offset 8, -12
 1884              		.cfi_offset 9, -8
 1885              		.cfi_offset 14, -4
 1886              	.LBE158:
 1887              	.LBE157:
 1888              	.LBB159:
 1889              	.LBB160:
 1890              		.syntax unified
 1891              	@ 195 "Middlewares/Third_Party/FreeRTOS/Source/portable/GCC/ARM_CM4F/portmacro.h" 1
 1892 005e 4FF05003 			mov r3, #80												
 1893 0062 83F31188 		msr basepri, r3											
 1894 0066 BFF36F8F 		isb														
 1895 006a BFF34F8F 		dsb														
 1896              	
 1897              	@ 0 "" 2
 1898              	.LVL213:
 1899              		.thumb
 1900              		.syntax unified
 1901              	.L154:
 1902 006e FEE7     		b	.L154
 1903              	.LVL214:
 1904              	.L163:
 1905              	.LBE160:
 1906              	.LBE159:
 735:Middlewares/Third_Party/FreeRTOS/Source/stream_buffer.c **** 	}
 1907              		.loc 1 735 0
 1908 0070 0026     		movs	r6, #0
 1909 0072 D0E7     		b	.L155
 1910              	.LVL215:
 1911              	.L158:
 758:Middlewares/Third_Party/FreeRTOS/Source/stream_buffer.c **** 			}
 1912              		.loc 1 758 0
 1913 0074 FFF7FEFF 		bl	xTaskGetCurrentTaskHandle
 1914              	.LVL216:
 1915 0078 2061     		str	r0, [r4, #16]
 1916              	.L157:
ARM GAS  /tmp/cc9Iu9BV.s 			page 63


 765:Middlewares/Third_Party/FreeRTOS/Source/stream_buffer.c **** 
 1917              		.loc 1 765 0
 1918 007a FFF7FEFF 		bl	vPortExitCritical
 1919              	.LVL217:
 767:Middlewares/Third_Party/FreeRTOS/Source/stream_buffer.c **** 		{
 1920              		.loc 1 767 0
 1921 007e AE42     		cmp	r6, r5
 1922 0080 0FD3     		bcc	.L160
 771:Middlewares/Third_Party/FreeRTOS/Source/stream_buffer.c **** 			pxStreamBuffer->xTaskWaitingToReceive = NULL;
 1923              		.loc 1 771 0
 1924 0082 3B46     		mov	r3, r7
 1925 0084 0022     		movs	r2, #0
 1926 0086 1146     		mov	r1, r2
 1927 0088 1046     		mov	r0, r2
 1928 008a FFF7FEFF 		bl	xTaskNotifyWait
 1929              	.LVL218:
 772:Middlewares/Third_Party/FreeRTOS/Source/stream_buffer.c **** 
 1930              		.loc 1 772 0
 1931 008e 0023     		movs	r3, #0
 1932 0090 2361     		str	r3, [r4, #16]
 775:Middlewares/Third_Party/FreeRTOS/Source/stream_buffer.c **** 		}
 1933              		.loc 1 775 0
 1934 0092 2046     		mov	r0, r4
 1935 0094 FFF7FEFF 		bl	prvBytesInBuffer
 1936              	.LVL219:
 1937 0098 0546     		mov	r5, r0
 1938              	.LVL220:
 1939 009a 02E0     		b	.L160
 1940              	.LVL221:
 1941              	.L156:
 784:Middlewares/Third_Party/FreeRTOS/Source/stream_buffer.c **** 	}
 1942              		.loc 1 784 0
 1943 009c FFF7FEFF 		bl	prvBytesInBuffer
 1944              	.LVL222:
 1945 00a0 0546     		mov	r5, r0
 1946              	.LVL223:
 1947              	.L160:
 792:Middlewares/Third_Party/FreeRTOS/Source/stream_buffer.c **** 	{
 1948              		.loc 1 792 0
 1949 00a2 B542     		cmp	r5, r6
 1950 00a4 04D8     		bhi	.L169
 719:Middlewares/Third_Party/FreeRTOS/Source/stream_buffer.c **** 
 1951              		.loc 1 719 0
 1952 00a6 0025     		movs	r5, #0
 1953              	.LVL224:
 1954              	.L150:
 814:Middlewares/Third_Party/FreeRTOS/Source/stream_buffer.c **** /*-----------------------------------------------------------*/
 1955              		.loc 1 814 0
 1956 00a8 2846     		mov	r0, r5
 1957 00aa 03B0     		add	sp, sp, #12
 1958              	.LCFI38:
 1959              		.cfi_remember_state
 1960              		.cfi_def_cfa_offset 28
 1961              		@ sp needed
 1962 00ac BDE8F083 		pop	{r4, r5, r6, r7, r8, r9, pc}
 1963              	.LVL225:
 1964              	.L169:
ARM GAS  /tmp/cc9Iu9BV.s 			page 64


 1965              	.LCFI39:
 1966              		.cfi_restore_state
 794:Middlewares/Third_Party/FreeRTOS/Source/stream_buffer.c **** 
 1967              		.loc 1 794 0
 1968 00b0 0096     		str	r6, [sp]
 1969 00b2 2B46     		mov	r3, r5
 1970 00b4 4A46     		mov	r2, r9
 1971 00b6 4146     		mov	r1, r8
 1972 00b8 2046     		mov	r0, r4
 1973 00ba FFF7FEFF 		bl	prvReadMessageFromBuffer
 1974              	.LVL226:
 797:Middlewares/Third_Party/FreeRTOS/Source/stream_buffer.c **** 		{
 1975              		.loc 1 797 0
 1976 00be 0546     		mov	r5, r0
 1977              	.LVL227:
 1978 00c0 0028     		cmp	r0, #0
 1979 00c2 F1D0     		beq	.L150
 800:Middlewares/Third_Party/FreeRTOS/Source/stream_buffer.c **** 		}
 1980              		.loc 1 800 0
 1981 00c4 FFF7FEFF 		bl	vTaskSuspendAll
 1982              	.LVL228:
 1983 00c8 6369     		ldr	r3, [r4, #20]
 1984 00ca 3BB1     		cbz	r3, .L162
 800:Middlewares/Third_Party/FreeRTOS/Source/stream_buffer.c **** 		}
 1985              		.loc 1 800 0 is_stmt 0 discriminator 1
 1986 00cc 6069     		ldr	r0, [r4, #20]
 1987 00ce 0023     		movs	r3, #0
 1988 00d0 1A46     		mov	r2, r3
 1989 00d2 1946     		mov	r1, r3
 1990 00d4 FFF7FEFF 		bl	xTaskGenericNotify
 1991              	.LVL229:
 1992 00d8 0023     		movs	r3, #0
 1993 00da 6361     		str	r3, [r4, #20]
 1994              	.L162:
 800:Middlewares/Third_Party/FreeRTOS/Source/stream_buffer.c **** 		}
 1995              		.loc 1 800 0 discriminator 3
 1996 00dc FFF7FEFF 		bl	xTaskResumeAll
 1997              	.LVL230:
 1998 00e0 E2E7     		b	.L150
 1999              		.cfi_endproc
 2000              	.LFE14:
 2002              		.section	.text.xStreamBufferNextMessageLengthBytes,"ax",%progbits
 2003              		.align	1
 2004              		.global	xStreamBufferNextMessageLengthBytes
 2005              		.syntax unified
 2006              		.thumb
 2007              		.thumb_func
 2008              		.fpu fpv4-sp-d16
 2010              	xStreamBufferNextMessageLengthBytes:
 2011              	.LFB15:
 818:Middlewares/Third_Party/FreeRTOS/Source/stream_buffer.c **** StreamBuffer_t * const pxStreamBuffer = xStreamBuffer;
 2012              		.loc 1 818 0 is_stmt 1
 2013              		.cfi_startproc
 2014              		@ args = 0, pretend = 0, frame = 8
 2015              		@ frame_needed = 0, uses_anonymous_args = 0
 2016              	.LVL231:
 823:Middlewares/Third_Party/FreeRTOS/Source/stream_buffer.c **** 
ARM GAS  /tmp/cc9Iu9BV.s 			page 65


 2017              		.loc 1 823 0
 2018 0000 48B1     		cbz	r0, .L179
 818:Middlewares/Third_Party/FreeRTOS/Source/stream_buffer.c **** StreamBuffer_t * const pxStreamBuffer = xStreamBuffer;
 2019              		.loc 1 818 0
 2020 0002 30B5     		push	{r4, r5, lr}
 2021              	.LCFI40:
 2022              		.cfi_def_cfa_offset 12
 2023              		.cfi_offset 4, -12
 2024              		.cfi_offset 5, -8
 2025              		.cfi_offset 14, -4
 2026 0004 83B0     		sub	sp, sp, #12
 2027              	.LCFI41:
 2028              		.cfi_def_cfa_offset 24
 2029 0006 0446     		mov	r4, r0
 826:Middlewares/Third_Party/FreeRTOS/Source/stream_buffer.c **** 	{
 2030              		.loc 1 826 0
 2031 0008 037F     		ldrb	r3, [r0, #28]	@ zero_extendqisi2
 2032 000a 13F0010F 		tst	r3, #1
 2033 000e 0BD1     		bne	.L180
 854:Middlewares/Third_Party/FreeRTOS/Source/stream_buffer.c **** 	}
 2034              		.loc 1 854 0
 2035 0010 0020     		movs	r0, #0
 2036              	.LVL232:
 2037              	.L170:
 858:Middlewares/Third_Party/FreeRTOS/Source/stream_buffer.c **** /*-----------------------------------------------------------*/
 2038              		.loc 1 858 0
 2039 0012 03B0     		add	sp, sp, #12
 2040              	.LCFI42:
 2041              		.cfi_def_cfa_offset 12
 2042              		@ sp needed
 2043 0014 30BD     		pop	{r4, r5, pc}
 2044              	.LVL233:
 2045              	.L179:
 2046              	.LCFI43:
 2047              		.cfi_def_cfa_offset 0
 2048              		.cfi_restore 4
 2049              		.cfi_restore 5
 2050              		.cfi_restore 14
 2051              	.LBB161:
 2052              	.LBB162:
 195:Middlewares/Third_Party/FreeRTOS/Source/portable/GCC/ARM_CM4F/portmacro.h **** 	(
 2053              		.loc 2 195 0
 2054              		.syntax unified
 2055              	@ 195 "Middlewares/Third_Party/FreeRTOS/Source/portable/GCC/ARM_CM4F/portmacro.h" 1
 2056 0016 4FF05003 			mov r3, #80												
 2057 001a 83F31188 		msr basepri, r3											
 2058 001e BFF36F8F 		isb														
 2059 0022 BFF34F8F 		dsb														
 2060              	
 2061              	@ 0 "" 2
 2062              	.LVL234:
 2063              		.thumb
 2064              		.syntax unified
 2065              	.L172:
 2066 0026 FEE7     		b	.L172
 2067              	.L180:
 2068              	.LCFI44:
ARM GAS  /tmp/cc9Iu9BV.s 			page 66


 2069              		.cfi_def_cfa_offset 24
 2070              		.cfi_offset 4, -12
 2071              		.cfi_offset 5, -8
 2072              		.cfi_offset 14, -4
 2073              	.LBE162:
 2074              	.LBE161:
 828:Middlewares/Third_Party/FreeRTOS/Source/stream_buffer.c **** 		if( xBytesAvailable > sbBYTES_TO_STORE_MESSAGE_LENGTH )
 2075              		.loc 1 828 0
 2076 0028 FFF7FEFF 		bl	prvBytesInBuffer
 2077              	.LVL235:
 829:Middlewares/Third_Party/FreeRTOS/Source/stream_buffer.c **** 		{
 2078              		.loc 1 829 0
 2079 002c 0428     		cmp	r0, #4
 2080 002e 0AD8     		bhi	.L181
 848:Middlewares/Third_Party/FreeRTOS/Source/stream_buffer.c **** 			xReturn = 0;
 2081              		.loc 1 848 0
 2082 0030 0028     		cmp	r0, #0
 2083 0032 EED0     		beq	.L170
 2084              	.LBB163:
 2085              	.LBB164:
 195:Middlewares/Third_Party/FreeRTOS/Source/portable/GCC/ARM_CM4F/portmacro.h **** 	(
 2086              		.loc 2 195 0
 2087              		.syntax unified
 2088              	@ 195 "Middlewares/Third_Party/FreeRTOS/Source/portable/GCC/ARM_CM4F/portmacro.h" 1
 2089 0034 4FF05003 			mov r3, #80												
 2090 0038 83F31188 		msr basepri, r3											
 2091 003c BFF36F8F 		isb														
 2092 0040 BFF34F8F 		dsb														
 2093              	
 2094              	@ 0 "" 2
 2095              	.LVL236:
 2096              		.thumb
 2097              		.syntax unified
 2098              	.L175:
 2099 0044 FEE7     		b	.L175
 2100              	.L181:
 2101              	.LBE164:
 2102              	.LBE163:
 837:Middlewares/Third_Party/FreeRTOS/Source/stream_buffer.c **** 			( void ) prvReadBytesFromBuffer( pxStreamBuffer, ( uint8_t * ) &xTempReturn, sbBYTES_TO_STORE_ME
 2103              		.loc 1 837 0
 2104 0046 2568     		ldr	r5, [r4]
 2105              	.LVL237:
 838:Middlewares/Third_Party/FreeRTOS/Source/stream_buffer.c **** 			xReturn = ( size_t ) xTempReturn;
 2106              		.loc 1 838 0
 2107 0048 0346     		mov	r3, r0
 2108 004a 0422     		movs	r2, #4
 2109 004c 0DEB0201 		add	r1, sp, r2
 2110 0050 2046     		mov	r0, r4
 2111              	.LVL238:
 2112 0052 FFF7FEFF 		bl	prvReadBytesFromBuffer
 2113              	.LVL239:
 839:Middlewares/Third_Party/FreeRTOS/Source/stream_buffer.c **** 			pxStreamBuffer->xTail = xOriginalTail;
 2114              		.loc 1 839 0
 2115 0056 0198     		ldr	r0, [sp, #4]
 2116              	.LVL240:
 840:Middlewares/Third_Party/FreeRTOS/Source/stream_buffer.c **** 		}
 2117              		.loc 1 840 0
ARM GAS  /tmp/cc9Iu9BV.s 			page 67


 2118 0058 2560     		str	r5, [r4]
 2119 005a DAE7     		b	.L170
 2120              		.cfi_endproc
 2121              	.LFE15:
 2123              		.section	.text.xStreamBufferReceiveFromISR,"ax",%progbits
 2124              		.align	1
 2125              		.global	xStreamBufferReceiveFromISR
 2126              		.syntax unified
 2127              		.thumb
 2128              		.thumb_func
 2129              		.fpu fpv4-sp-d16
 2131              	xStreamBufferReceiveFromISR:
 2132              	.LFB16:
 865:Middlewares/Third_Party/FreeRTOS/Source/stream_buffer.c **** StreamBuffer_t * const pxStreamBuffer = xStreamBuffer;
 2133              		.loc 1 865 0
 2134              		.cfi_startproc
 2135              		@ args = 0, pretend = 0, frame = 0
 2136              		@ frame_needed = 0, uses_anonymous_args = 0
 2137              	.LVL241:
 869:Middlewares/Third_Party/FreeRTOS/Source/stream_buffer.c **** 	configASSERT( pxStreamBuffer );
 2138              		.loc 1 869 0
 2139 0000 B1B1     		cbz	r1, .L194
 865:Middlewares/Third_Party/FreeRTOS/Source/stream_buffer.c **** StreamBuffer_t * const pxStreamBuffer = xStreamBuffer;
 2140              		.loc 1 865 0
 2141 0002 2DE9F041 		push	{r4, r5, r6, r7, r8, lr}
 2142              	.LCFI45:
 2143              		.cfi_def_cfa_offset 24
 2144              		.cfi_offset 4, -24
 2145              		.cfi_offset 5, -20
 2146              		.cfi_offset 6, -16
 2147              		.cfi_offset 7, -12
 2148              		.cfi_offset 8, -8
 2149              		.cfi_offset 14, -4
 2150 0006 82B0     		sub	sp, sp, #8
 2151              	.LCFI46:
 2152              		.cfi_def_cfa_offset 32
 2153 0008 0D46     		mov	r5, r1
 870:Middlewares/Third_Party/FreeRTOS/Source/stream_buffer.c **** 
 2154              		.loc 1 870 0
 2155 000a D0B1     		cbz	r0, .L195
 877:Middlewares/Third_Party/FreeRTOS/Source/stream_buffer.c **** 	{
 2156              		.loc 1 877 0
 2157 000c 017F     		ldrb	r1, [r0, #28]	@ zero_extendqisi2
 2158              	.LVL242:
 2159 000e 11F0010F 		tst	r1, #1
 2160 0012 1FD0     		beq	.L190
 879:Middlewares/Third_Party/FreeRTOS/Source/stream_buffer.c **** 	}
 2161              		.loc 1 879 0
 2162 0014 0427     		movs	r7, #4
 2163              	.L187:
 2164 0016 9846     		mov	r8, r3
 2165 0018 1646     		mov	r6, r2
 2166 001a 0446     		mov	r4, r0
 2167              	.LVL243:
 886:Middlewares/Third_Party/FreeRTOS/Source/stream_buffer.c **** 
 2168              		.loc 1 886 0
 2169 001c FFF7FEFF 		bl	prvBytesInBuffer
ARM GAS  /tmp/cc9Iu9BV.s 			page 68


 2170              	.LVL244:
 2171 0020 0346     		mov	r3, r0
 2172              	.LVL245:
 893:Middlewares/Third_Party/FreeRTOS/Source/stream_buffer.c **** 	{
 2173              		.loc 1 893 0
 2174 0022 8742     		cmp	r7, r0
 2175 0024 18D3     		bcc	.L196
 867:Middlewares/Third_Party/FreeRTOS/Source/stream_buffer.c **** 
 2176              		.loc 1 867 0
 2177 0026 0025     		movs	r5, #0
 2178              	.LVL246:
 2179              	.L182:
 915:Middlewares/Third_Party/FreeRTOS/Source/stream_buffer.c **** /*-----------------------------------------------------------*/
 2180              		.loc 1 915 0
 2181 0028 2846     		mov	r0, r5
 2182 002a 02B0     		add	sp, sp, #8
 2183              	.LCFI47:
 2184              		.cfi_def_cfa_offset 24
 2185              		@ sp needed
 2186 002c BDE8F081 		pop	{r4, r5, r6, r7, r8, pc}
 2187              	.LVL247:
 2188              	.L194:
 2189              	.LCFI48:
 2190              		.cfi_def_cfa_offset 0
 2191              		.cfi_restore 4
 2192              		.cfi_restore 5
 2193              		.cfi_restore 6
 2194              		.cfi_restore 7
 2195              		.cfi_restore 8
 2196              		.cfi_restore 14
 2197              	.LBB165:
 2198              	.LBB166:
 195:Middlewares/Third_Party/FreeRTOS/Source/portable/GCC/ARM_CM4F/portmacro.h **** 	(
 2199              		.loc 2 195 0
 2200              		.syntax unified
 2201              	@ 195 "Middlewares/Third_Party/FreeRTOS/Source/portable/GCC/ARM_CM4F/portmacro.h" 1
 2202 0030 4FF05003 			mov r3, #80												
 2203 0034 83F31188 		msr basepri, r3											
 2204 0038 BFF36F8F 		isb														
 2205 003c BFF34F8F 		dsb														
 2206              	
 2207              	@ 0 "" 2
 2208              	.LVL248:
 2209              		.thumb
 2210              		.syntax unified
 2211              	.L184:
 2212 0040 FEE7     		b	.L184
 2213              	.LVL249:
 2214              	.L195:
 2215              	.LCFI49:
 2216              		.cfi_def_cfa_offset 32
 2217              		.cfi_offset 4, -24
 2218              		.cfi_offset 5, -20
 2219              		.cfi_offset 6, -16
 2220              		.cfi_offset 7, -12
 2221              		.cfi_offset 8, -8
 2222              		.cfi_offset 14, -4
ARM GAS  /tmp/cc9Iu9BV.s 			page 69


 2223              	.LBE166:
 2224              	.LBE165:
 2225              	.LBB167:
 2226              	.LBB168:
 2227              		.syntax unified
 2228              	@ 195 "Middlewares/Third_Party/FreeRTOS/Source/portable/GCC/ARM_CM4F/portmacro.h" 1
 2229 0042 4FF05003 			mov r3, #80												
 2230 0046 83F31188 		msr basepri, r3											
 2231 004a BFF36F8F 		isb														
 2232 004e BFF34F8F 		dsb														
 2233              	
 2234              	@ 0 "" 2
 2235              	.LVL250:
 2236              		.thumb
 2237              		.syntax unified
 2238              	.L186:
 2239 0052 FEE7     		b	.L186
 2240              	.LVL251:
 2241              	.L190:
 2242              	.LBE168:
 2243              	.LBE167:
 883:Middlewares/Third_Party/FreeRTOS/Source/stream_buffer.c **** 	}
 2244              		.loc 1 883 0
 2245 0054 0027     		movs	r7, #0
 2246 0056 DEE7     		b	.L187
 2247              	.LVL252:
 2248              	.L196:
 895:Middlewares/Third_Party/FreeRTOS/Source/stream_buffer.c **** 
 2249              		.loc 1 895 0
 2250 0058 0097     		str	r7, [sp]
 2251 005a 3246     		mov	r2, r6
 2252 005c 2946     		mov	r1, r5
 2253 005e 2046     		mov	r0, r4
 2254              	.LVL253:
 2255 0060 FFF7FEFF 		bl	prvReadMessageFromBuffer
 2256              	.LVL254:
 898:Middlewares/Third_Party/FreeRTOS/Source/stream_buffer.c **** 		{
 2257              		.loc 1 898 0
 2258 0064 0546     		mov	r5, r0
 2259              	.LVL255:
 2260 0066 0028     		cmp	r0, #0
 2261 0068 DED0     		beq	.L182
 2262              	.LBB169:
 2263              	.LBB170:
 2264              	.LBB171:
 211:Middlewares/Third_Party/FreeRTOS/Source/portable/GCC/ARM_CM4F/portmacro.h **** 	(
 2265              		.loc 2 211 0
 2266              		.syntax unified
 2267              	@ 211 "Middlewares/Third_Party/FreeRTOS/Source/portable/GCC/ARM_CM4F/portmacro.h" 1
 2268 006a EFF31186 			mrs r6, basepri											
 2269 006e 4FF05003 		mov r3, #80												
 2270 0072 83F31188 		msr basepri, r3											
 2271 0076 BFF36F8F 		isb														
 2272 007a BFF34F8F 		dsb														
 2273              	
 2274              	@ 0 "" 2
 2275              	.LVL256:
ARM GAS  /tmp/cc9Iu9BV.s 			page 70


 2276              		.thumb
 2277              		.syntax unified
 2278              	.LBE171:
 2279              	.LBE170:
 900:Middlewares/Third_Party/FreeRTOS/Source/stream_buffer.c **** 		}
 2280              		.loc 1 900 0
 2281 007e 6369     		ldr	r3, [r4, #20]
 2282 0080 4BB1     		cbz	r3, .L189
 900:Middlewares/Third_Party/FreeRTOS/Source/stream_buffer.c **** 		}
 2283              		.loc 1 900 0 is_stmt 0 discriminator 1
 2284 0082 6069     		ldr	r0, [r4, #20]
 2285              	.LVL257:
 2286 0084 CDF80080 		str	r8, [sp]
 2287 0088 0023     		movs	r3, #0
 2288 008a 1A46     		mov	r2, r3
 2289 008c 1946     		mov	r1, r3
 2290 008e FFF7FEFF 		bl	xTaskGenericNotifyFromISR
 2291              	.LVL258:
 2292 0092 0023     		movs	r3, #0
 2293 0094 6361     		str	r3, [r4, #20]
 2294              	.L189:
 2295              	.LVL259:
 2296              	.LBB172:
 2297              	.LBB173:
 2298              		.loc 2 229 0 is_stmt 1 discriminator 3
 2299              		.syntax unified
 2300              	@ 229 "Middlewares/Third_Party/FreeRTOS/Source/portable/GCC/ARM_CM4F/portmacro.h" 1
 2301 0096 86F31188 			msr basepri, r6	
 2302              	@ 0 "" 2
 2303              		.thumb
 2304              		.syntax unified
 2305 009a C5E7     		b	.L182
 2306              	.LBE173:
 2307              	.LBE172:
 2308              	.LBE169:
 2309              		.cfi_endproc
 2310              	.LFE16:
 2312              		.section	.text.xStreamBufferIsEmpty,"ax",%progbits
 2313              		.align	1
 2314              		.global	xStreamBufferIsEmpty
 2315              		.syntax unified
 2316              		.thumb
 2317              		.thumb_func
 2318              		.fpu fpv4-sp-d16
 2320              	xStreamBufferIsEmpty:
 2321              	.LFB18:
 971:Middlewares/Third_Party/FreeRTOS/Source/stream_buffer.c **** const StreamBuffer_t * const pxStreamBuffer = xStreamBuffer;
 2322              		.loc 1 971 0
 2323              		.cfi_startproc
 2324              		@ args = 0, pretend = 0, frame = 0
 2325              		@ frame_needed = 0, uses_anonymous_args = 0
 2326              		@ link register save eliminated.
 2327              	.LVL260:
 976:Middlewares/Third_Party/FreeRTOS/Source/stream_buffer.c **** 
 2328              		.loc 1 976 0
 2329 0000 28B1     		cbz	r0, .L202
 979:Middlewares/Third_Party/FreeRTOS/Source/stream_buffer.c **** 	if( pxStreamBuffer->xHead == xTail )
ARM GAS  /tmp/cc9Iu9BV.s 			page 71


 2330              		.loc 1 979 0
 2331 0002 0268     		ldr	r2, [r0]
 2332              	.LVL261:
 980:Middlewares/Third_Party/FreeRTOS/Source/stream_buffer.c **** 	{
 2333              		.loc 1 980 0
 2334 0004 4368     		ldr	r3, [r0, #4]
 2335 0006 9A42     		cmp	r2, r3
 2336 0008 0AD0     		beq	.L203
 986:Middlewares/Third_Party/FreeRTOS/Source/stream_buffer.c **** 	}
 2337              		.loc 1 986 0
 2338 000a 0020     		movs	r0, #0
 2339              	.LVL262:
 990:Middlewares/Third_Party/FreeRTOS/Source/stream_buffer.c **** /*-----------------------------------------------------------*/
 2340              		.loc 1 990 0
 2341 000c 7047     		bx	lr
 2342              	.LVL263:
 2343              	.L202:
 2344              	.LBB174:
 2345              	.LBB175:
 195:Middlewares/Third_Party/FreeRTOS/Source/portable/GCC/ARM_CM4F/portmacro.h **** 	(
 2346              		.loc 2 195 0
 2347              		.syntax unified
 2348              	@ 195 "Middlewares/Third_Party/FreeRTOS/Source/portable/GCC/ARM_CM4F/portmacro.h" 1
 2349 000e 4FF05003 			mov r3, #80												
 2350 0012 83F31188 		msr basepri, r3											
 2351 0016 BFF36F8F 		isb														
 2352 001a BFF34F8F 		dsb														
 2353              	
 2354              	@ 0 "" 2
 2355              	.LVL264:
 2356              		.thumb
 2357              		.syntax unified
 2358              	.L199:
 2359 001e FEE7     		b	.L199
 2360              	.LVL265:
 2361              	.L203:
 2362              	.LBE175:
 2363              	.LBE174:
 982:Middlewares/Third_Party/FreeRTOS/Source/stream_buffer.c **** 	}
 2364              		.loc 1 982 0
 2365 0020 0120     		movs	r0, #1
 2366              	.LVL266:
 2367 0022 7047     		bx	lr
 2368              		.cfi_endproc
 2369              	.LFE18:
 2371              		.section	.text.xStreamBufferIsFull,"ax",%progbits
 2372              		.align	1
 2373              		.global	xStreamBufferIsFull
 2374              		.syntax unified
 2375              		.thumb
 2376              		.thumb_func
 2377              		.fpu fpv4-sp-d16
 2379              	xStreamBufferIsFull:
 2380              	.LFB19:
 994:Middlewares/Third_Party/FreeRTOS/Source/stream_buffer.c **** BaseType_t xReturn;
 2381              		.loc 1 994 0
 2382              		.cfi_startproc
ARM GAS  /tmp/cc9Iu9BV.s 			page 72


 2383              		@ args = 0, pretend = 0, frame = 0
 2384              		@ frame_needed = 0, uses_anonymous_args = 0
 2385              	.LVL267:
 999:Middlewares/Third_Party/FreeRTOS/Source/stream_buffer.c **** 
 2386              		.loc 1 999 0
 2387 0000 68B1     		cbz	r0, .L213
 994:Middlewares/Third_Party/FreeRTOS/Source/stream_buffer.c **** BaseType_t xReturn;
 2388              		.loc 1 994 0
 2389 0002 10B5     		push	{r4, lr}
 2390              	.LCFI50:
 2391              		.cfi_def_cfa_offset 8
 2392              		.cfi_offset 4, -8
 2393              		.cfi_offset 14, -4
 2394 0004 0346     		mov	r3, r0
1005:Middlewares/Third_Party/FreeRTOS/Source/stream_buffer.c **** 	{
 2395              		.loc 1 1005 0
 2396 0006 027F     		ldrb	r2, [r0, #28]	@ zero_extendqisi2
 2397 0008 12F0010F 		tst	r2, #1
 2398 000c 10D0     		beq	.L209
1007:Middlewares/Third_Party/FreeRTOS/Source/stream_buffer.c **** 	}
 2399              		.loc 1 1007 0
 2400 000e 0424     		movs	r4, #4
 2401              	.L207:
 2402 0010 1846     		mov	r0, r3
 2403              	.LVL268:
1015:Middlewares/Third_Party/FreeRTOS/Source/stream_buffer.c **** 	{
 2404              		.loc 1 1015 0
 2405 0012 FFF7FEFF 		bl	xStreamBufferSpacesAvailable
 2406              	.LVL269:
 2407 0016 8442     		cmp	r4, r0
 2408 0018 0CD2     		bcs	.L214
1021:Middlewares/Third_Party/FreeRTOS/Source/stream_buffer.c **** 	}
 2409              		.loc 1 1021 0
 2410 001a 0020     		movs	r0, #0
 2411              	.LVL270:
1025:Middlewares/Third_Party/FreeRTOS/Source/stream_buffer.c **** /*-----------------------------------------------------------*/
 2412              		.loc 1 1025 0
 2413 001c 10BD     		pop	{r4, pc}
 2414              	.LVL271:
 2415              	.L213:
 2416              	.LCFI51:
 2417              		.cfi_def_cfa_offset 0
 2418              		.cfi_restore 4
 2419              		.cfi_restore 14
 2420              	.LBB176:
 2421              	.LBB177:
 195:Middlewares/Third_Party/FreeRTOS/Source/portable/GCC/ARM_CM4F/portmacro.h **** 	(
 2422              		.loc 2 195 0
 2423              		.syntax unified
 2424              	@ 195 "Middlewares/Third_Party/FreeRTOS/Source/portable/GCC/ARM_CM4F/portmacro.h" 1
 2425 001e 4FF05003 			mov r3, #80												
 2426 0022 83F31188 		msr basepri, r3											
 2427 0026 BFF36F8F 		isb														
 2428 002a BFF34F8F 		dsb														
 2429              	
 2430              	@ 0 "" 2
 2431              	.LVL272:
ARM GAS  /tmp/cc9Iu9BV.s 			page 73


 2432              		.thumb
 2433              		.syntax unified
 2434              	.L206:
 2435 002e FEE7     		b	.L206
 2436              	.L209:
 2437              	.LCFI52:
 2438              		.cfi_def_cfa_offset 8
 2439              		.cfi_offset 4, -8
 2440              		.cfi_offset 14, -4
 2441              	.LBE177:
 2442              	.LBE176:
1011:Middlewares/Third_Party/FreeRTOS/Source/stream_buffer.c **** 	}
 2443              		.loc 1 1011 0
 2444 0030 0024     		movs	r4, #0
 2445 0032 EDE7     		b	.L207
 2446              	.LVL273:
 2447              	.L214:
1017:Middlewares/Third_Party/FreeRTOS/Source/stream_buffer.c **** 	}
 2448              		.loc 1 1017 0
 2449 0034 0120     		movs	r0, #1
 2450 0036 10BD     		pop	{r4, pc}
 2451              		.cfi_endproc
 2452              	.LFE19:
 2454              		.section	.text.xStreamBufferSendCompletedFromISR,"ax",%progbits
 2455              		.align	1
 2456              		.global	xStreamBufferSendCompletedFromISR
 2457              		.syntax unified
 2458              		.thumb
 2459              		.thumb_func
 2460              		.fpu fpv4-sp-d16
 2462              	xStreamBufferSendCompletedFromISR:
 2463              	.LFB20:
1029:Middlewares/Third_Party/FreeRTOS/Source/stream_buffer.c **** StreamBuffer_t * const pxStreamBuffer = xStreamBuffer;
 2464              		.loc 1 1029 0
 2465              		.cfi_startproc
 2466              		@ args = 0, pretend = 0, frame = 0
 2467              		@ frame_needed = 0, uses_anonymous_args = 0
 2468              	.LVL274:
1034:Middlewares/Third_Party/FreeRTOS/Source/stream_buffer.c **** 
 2469              		.loc 1 1034 0
 2470 0000 E0B1     		cbz	r0, .L222
1029:Middlewares/Third_Party/FreeRTOS/Source/stream_buffer.c **** StreamBuffer_t * const pxStreamBuffer = xStreamBuffer;
 2471              		.loc 1 1029 0
 2472 0002 30B5     		push	{r4, r5, lr}
 2473              	.LCFI53:
 2474              		.cfi_def_cfa_offset 12
 2475              		.cfi_offset 4, -12
 2476              		.cfi_offset 5, -8
 2477              		.cfi_offset 14, -4
 2478 0004 83B0     		sub	sp, sp, #12
 2479              	.LCFI54:
 2480              		.cfi_def_cfa_offset 24
 2481 0006 0446     		mov	r4, r0
 2482              	.LBB178:
 2483              	.LBB179:
 211:Middlewares/Third_Party/FreeRTOS/Source/portable/GCC/ARM_CM4F/portmacro.h **** 	(
 2484              		.loc 2 211 0
ARM GAS  /tmp/cc9Iu9BV.s 			page 74


 2485              		.syntax unified
 2486              	@ 211 "Middlewares/Third_Party/FreeRTOS/Source/portable/GCC/ARM_CM4F/portmacro.h" 1
 2487 0008 EFF31185 			mrs r5, basepri											
 2488 000c 4FF05003 		mov r3, #80												
 2489 0010 83F31188 		msr basepri, r3											
 2490 0014 BFF36F8F 		isb														
 2491 0018 BFF34F8F 		dsb														
 2492              	
 2493              	@ 0 "" 2
 2494              		.thumb
 2495              		.syntax unified
 2496              	.LBE179:
 2497              	.LBE178:
1038:Middlewares/Third_Party/FreeRTOS/Source/stream_buffer.c **** 		{
 2498              		.loc 1 1038 0
 2499 001c 0369     		ldr	r3, [r0, #16]
 2500 001e B3B1     		cbz	r3, .L219
1040:Middlewares/Third_Party/FreeRTOS/Source/stream_buffer.c **** 										 ( uint32_t ) 0,
 2501              		.loc 1 1040 0
 2502 0020 0069     		ldr	r0, [r0, #16]
 2503              	.LVL275:
 2504 0022 0091     		str	r1, [sp]
 2505 0024 0023     		movs	r3, #0
 2506 0026 1A46     		mov	r2, r3
 2507 0028 1946     		mov	r1, r3
 2508              	.LVL276:
 2509 002a FFF7FEFF 		bl	xTaskGenericNotifyFromISR
 2510              	.LVL277:
1044:Middlewares/Third_Party/FreeRTOS/Source/stream_buffer.c **** 			xReturn = pdTRUE;
 2511              		.loc 1 1044 0
 2512 002e 0023     		movs	r3, #0
 2513 0030 2361     		str	r3, [r4, #16]
 2514              	.LVL278:
1045:Middlewares/Third_Party/FreeRTOS/Source/stream_buffer.c **** 		}
 2515              		.loc 1 1045 0
 2516 0032 0120     		movs	r0, #1
 2517              	.LVL279:
 2518              	.L218:
 2519              	.LBB180:
 2520              	.LBB181:
 2521              		.loc 2 229 0
 2522              		.syntax unified
 2523              	@ 229 "Middlewares/Third_Party/FreeRTOS/Source/portable/GCC/ARM_CM4F/portmacro.h" 1
 2524 0034 85F31188 			msr basepri, r5	
 2525              	@ 0 "" 2
 2526              	.LVL280:
 2527              		.thumb
 2528              		.syntax unified
 2529              	.LBE181:
 2530              	.LBE180:
1055:Middlewares/Third_Party/FreeRTOS/Source/stream_buffer.c **** /*-----------------------------------------------------------*/
 2531              		.loc 1 1055 0
 2532 0038 03B0     		add	sp, sp, #12
 2533              	.LCFI55:
 2534              		.cfi_def_cfa_offset 12
 2535              		@ sp needed
 2536 003a 30BD     		pop	{r4, r5, pc}
ARM GAS  /tmp/cc9Iu9BV.s 			page 75


 2537              	.LVL281:
 2538              	.L222:
 2539              	.LCFI56:
 2540              		.cfi_def_cfa_offset 0
 2541              		.cfi_restore 4
 2542              		.cfi_restore 5
 2543              		.cfi_restore 14
 2544              	.LBB182:
 2545              	.LBB183:
 195:Middlewares/Third_Party/FreeRTOS/Source/portable/GCC/ARM_CM4F/portmacro.h **** 	(
 2546              		.loc 2 195 0
 2547              		.syntax unified
 2548              	@ 195 "Middlewares/Third_Party/FreeRTOS/Source/portable/GCC/ARM_CM4F/portmacro.h" 1
 2549 003c 4FF05003 			mov r3, #80												
 2550 0040 83F31188 		msr basepri, r3											
 2551 0044 BFF36F8F 		isb														
 2552 0048 BFF34F8F 		dsb														
 2553              	
 2554              	@ 0 "" 2
 2555              	.LVL282:
 2556              		.thumb
 2557              		.syntax unified
 2558              	.L217:
 2559 004c FEE7     		b	.L217
 2560              	.L219:
 2561              	.LCFI57:
 2562              		.cfi_def_cfa_offset 24
 2563              		.cfi_offset 4, -12
 2564              		.cfi_offset 5, -8
 2565              		.cfi_offset 14, -4
 2566              	.LBE183:
 2567              	.LBE182:
1049:Middlewares/Third_Party/FreeRTOS/Source/stream_buffer.c **** 		}
 2568              		.loc 1 1049 0
 2569 004e 0020     		movs	r0, #0
 2570              	.LVL283:
 2571 0050 F0E7     		b	.L218
 2572              		.cfi_endproc
 2573              	.LFE20:
 2575              		.section	.text.xStreamBufferReceiveCompletedFromISR,"ax",%progbits
 2576              		.align	1
 2577              		.global	xStreamBufferReceiveCompletedFromISR
 2578              		.syntax unified
 2579              		.thumb
 2580              		.thumb_func
 2581              		.fpu fpv4-sp-d16
 2583              	xStreamBufferReceiveCompletedFromISR:
 2584              	.LFB21:
1059:Middlewares/Third_Party/FreeRTOS/Source/stream_buffer.c **** StreamBuffer_t * const pxStreamBuffer = xStreamBuffer;
 2585              		.loc 1 1059 0
 2586              		.cfi_startproc
 2587              		@ args = 0, pretend = 0, frame = 0
 2588              		@ frame_needed = 0, uses_anonymous_args = 0
 2589              	.LVL284:
1064:Middlewares/Third_Party/FreeRTOS/Source/stream_buffer.c **** 
 2590              		.loc 1 1064 0
 2591 0000 E0B1     		cbz	r0, .L230
ARM GAS  /tmp/cc9Iu9BV.s 			page 76


1059:Middlewares/Third_Party/FreeRTOS/Source/stream_buffer.c **** StreamBuffer_t * const pxStreamBuffer = xStreamBuffer;
 2592              		.loc 1 1059 0
 2593 0002 30B5     		push	{r4, r5, lr}
 2594              	.LCFI58:
 2595              		.cfi_def_cfa_offset 12
 2596              		.cfi_offset 4, -12
 2597              		.cfi_offset 5, -8
 2598              		.cfi_offset 14, -4
 2599 0004 83B0     		sub	sp, sp, #12
 2600              	.LCFI59:
 2601              		.cfi_def_cfa_offset 24
 2602 0006 0446     		mov	r4, r0
 2603              	.LBB184:
 2604              	.LBB185:
 211:Middlewares/Third_Party/FreeRTOS/Source/portable/GCC/ARM_CM4F/portmacro.h **** 	(
 2605              		.loc 2 211 0
 2606              		.syntax unified
 2607              	@ 211 "Middlewares/Third_Party/FreeRTOS/Source/portable/GCC/ARM_CM4F/portmacro.h" 1
 2608 0008 EFF31185 			mrs r5, basepri											
 2609 000c 4FF05003 		mov r3, #80												
 2610 0010 83F31188 		msr basepri, r3											
 2611 0014 BFF36F8F 		isb														
 2612 0018 BFF34F8F 		dsb														
 2613              	
 2614              	@ 0 "" 2
 2615              		.thumb
 2616              		.syntax unified
 2617              	.LBE185:
 2618              	.LBE184:
1068:Middlewares/Third_Party/FreeRTOS/Source/stream_buffer.c **** 		{
 2619              		.loc 1 1068 0
 2620 001c 4369     		ldr	r3, [r0, #20]
 2621 001e B3B1     		cbz	r3, .L227
1070:Middlewares/Third_Party/FreeRTOS/Source/stream_buffer.c **** 										 ( uint32_t ) 0,
 2622              		.loc 1 1070 0
 2623 0020 4069     		ldr	r0, [r0, #20]
 2624              	.LVL285:
 2625 0022 0091     		str	r1, [sp]
 2626 0024 0023     		movs	r3, #0
 2627 0026 1A46     		mov	r2, r3
 2628 0028 1946     		mov	r1, r3
 2629              	.LVL286:
 2630 002a FFF7FEFF 		bl	xTaskGenericNotifyFromISR
 2631              	.LVL287:
1074:Middlewares/Third_Party/FreeRTOS/Source/stream_buffer.c **** 			xReturn = pdTRUE;
 2632              		.loc 1 1074 0
 2633 002e 0023     		movs	r3, #0
 2634 0030 6361     		str	r3, [r4, #20]
 2635              	.LVL288:
1075:Middlewares/Third_Party/FreeRTOS/Source/stream_buffer.c **** 		}
 2636              		.loc 1 1075 0
 2637 0032 0120     		movs	r0, #1
 2638              	.LVL289:
 2639              	.L226:
 2640              	.LBB186:
 2641              	.LBB187:
 2642              		.loc 2 229 0
ARM GAS  /tmp/cc9Iu9BV.s 			page 77


 2643              		.syntax unified
 2644              	@ 229 "Middlewares/Third_Party/FreeRTOS/Source/portable/GCC/ARM_CM4F/portmacro.h" 1
 2645 0034 85F31188 			msr basepri, r5	
 2646              	@ 0 "" 2
 2647              	.LVL290:
 2648              		.thumb
 2649              		.syntax unified
 2650              	.LBE187:
 2651              	.LBE186:
1085:Middlewares/Third_Party/FreeRTOS/Source/stream_buffer.c **** /*-----------------------------------------------------------*/
 2652              		.loc 1 1085 0
 2653 0038 03B0     		add	sp, sp, #12
 2654              	.LCFI60:
 2655              		.cfi_def_cfa_offset 12
 2656              		@ sp needed
 2657 003a 30BD     		pop	{r4, r5, pc}
 2658              	.LVL291:
 2659              	.L230:
 2660              	.LCFI61:
 2661              		.cfi_def_cfa_offset 0
 2662              		.cfi_restore 4
 2663              		.cfi_restore 5
 2664              		.cfi_restore 14
 2665              	.LBB188:
 2666              	.LBB189:
 195:Middlewares/Third_Party/FreeRTOS/Source/portable/GCC/ARM_CM4F/portmacro.h **** 	(
 2667              		.loc 2 195 0
 2668              		.syntax unified
 2669              	@ 195 "Middlewares/Third_Party/FreeRTOS/Source/portable/GCC/ARM_CM4F/portmacro.h" 1
 2670 003c 4FF05003 			mov r3, #80												
 2671 0040 83F31188 		msr basepri, r3											
 2672 0044 BFF36F8F 		isb														
 2673 0048 BFF34F8F 		dsb														
 2674              	
 2675              	@ 0 "" 2
 2676              	.LVL292:
 2677              		.thumb
 2678              		.syntax unified
 2679              	.L225:
 2680 004c FEE7     		b	.L225
 2681              	.L227:
 2682              	.LCFI62:
 2683              		.cfi_def_cfa_offset 24
 2684              		.cfi_offset 4, -12
 2685              		.cfi_offset 5, -8
 2686              		.cfi_offset 14, -4
 2687              	.LBE189:
 2688              	.LBE188:
1079:Middlewares/Third_Party/FreeRTOS/Source/stream_buffer.c **** 		}
 2689              		.loc 1 1079 0
 2690 004e 0020     		movs	r0, #0
 2691              	.LVL293:
 2692 0050 F0E7     		b	.L226
 2693              		.cfi_endproc
 2694              	.LFE21:
 2696              		.section	.text.uxStreamBufferGetStreamBufferNumber,"ax",%progbits
 2697              		.align	1
ARM GAS  /tmp/cc9Iu9BV.s 			page 78


 2698              		.global	uxStreamBufferGetStreamBufferNumber
 2699              		.syntax unified
 2700              		.thumb
 2701              		.thumb_func
 2702              		.fpu fpv4-sp-d16
 2704              	uxStreamBufferGetStreamBufferNumber:
 2705              	.LFB26:
1233:Middlewares/Third_Party/FreeRTOS/Source/stream_buffer.c **** }
1234:Middlewares/Third_Party/FreeRTOS/Source/stream_buffer.c **** 
1235:Middlewares/Third_Party/FreeRTOS/Source/stream_buffer.c **** #if ( configUSE_TRACE_FACILITY == 1 )
1236:Middlewares/Third_Party/FreeRTOS/Source/stream_buffer.c **** 
1237:Middlewares/Third_Party/FreeRTOS/Source/stream_buffer.c **** 	UBaseType_t uxStreamBufferGetStreamBufferNumber( StreamBufferHandle_t xStreamBuffer )
1238:Middlewares/Third_Party/FreeRTOS/Source/stream_buffer.c **** 	{
 2706              		.loc 1 1238 0
 2707              		.cfi_startproc
 2708              		@ args = 0, pretend = 0, frame = 0
 2709              		@ frame_needed = 0, uses_anonymous_args = 0
 2710              		@ link register save eliminated.
 2711              	.LVL294:
1239:Middlewares/Third_Party/FreeRTOS/Source/stream_buffer.c **** 		return xStreamBuffer->uxStreamBufferNumber;
1240:Middlewares/Third_Party/FreeRTOS/Source/stream_buffer.c **** 	}
 2712              		.loc 1 1240 0
 2713 0000 006A     		ldr	r0, [r0, #32]
 2714              	.LVL295:
 2715 0002 7047     		bx	lr
 2716              		.cfi_endproc
 2717              	.LFE26:
 2719              		.section	.text.vStreamBufferSetStreamBufferNumber,"ax",%progbits
 2720              		.align	1
 2721              		.global	vStreamBufferSetStreamBufferNumber
 2722              		.syntax unified
 2723              		.thumb
 2724              		.thumb_func
 2725              		.fpu fpv4-sp-d16
 2727              	vStreamBufferSetStreamBufferNumber:
 2728              	.LFB27:
1241:Middlewares/Third_Party/FreeRTOS/Source/stream_buffer.c **** 
1242:Middlewares/Third_Party/FreeRTOS/Source/stream_buffer.c **** #endif /* configUSE_TRACE_FACILITY */
1243:Middlewares/Third_Party/FreeRTOS/Source/stream_buffer.c **** /*-----------------------------------------------------------*/
1244:Middlewares/Third_Party/FreeRTOS/Source/stream_buffer.c **** 
1245:Middlewares/Third_Party/FreeRTOS/Source/stream_buffer.c **** #if ( configUSE_TRACE_FACILITY == 1 )
1246:Middlewares/Third_Party/FreeRTOS/Source/stream_buffer.c **** 
1247:Middlewares/Third_Party/FreeRTOS/Source/stream_buffer.c **** 	void vStreamBufferSetStreamBufferNumber( StreamBufferHandle_t xStreamBuffer, UBaseType_t uxStreamB
1248:Middlewares/Third_Party/FreeRTOS/Source/stream_buffer.c **** 	{
 2729              		.loc 1 1248 0
 2730              		.cfi_startproc
 2731              		@ args = 0, pretend = 0, frame = 0
 2732              		@ frame_needed = 0, uses_anonymous_args = 0
 2733              		@ link register save eliminated.
 2734              	.LVL296:
1249:Middlewares/Third_Party/FreeRTOS/Source/stream_buffer.c **** 		xStreamBuffer->uxStreamBufferNumber = uxStreamBufferNumber;
 2735              		.loc 1 1249 0
 2736 0000 0162     		str	r1, [r0, #32]
 2737 0002 7047     		bx	lr
 2738              		.cfi_endproc
 2739              	.LFE27:
 2741              		.section	.text.ucStreamBufferGetStreamBufferType,"ax",%progbits
ARM GAS  /tmp/cc9Iu9BV.s 			page 79


 2742              		.align	1
 2743              		.global	ucStreamBufferGetStreamBufferType
 2744              		.syntax unified
 2745              		.thumb
 2746              		.thumb_func
 2747              		.fpu fpv4-sp-d16
 2749              	ucStreamBufferGetStreamBufferType:
 2750              	.LFB28:
1250:Middlewares/Third_Party/FreeRTOS/Source/stream_buffer.c **** 	}
1251:Middlewares/Third_Party/FreeRTOS/Source/stream_buffer.c **** 
1252:Middlewares/Third_Party/FreeRTOS/Source/stream_buffer.c **** #endif /* configUSE_TRACE_FACILITY */
1253:Middlewares/Third_Party/FreeRTOS/Source/stream_buffer.c **** /*-----------------------------------------------------------*/
1254:Middlewares/Third_Party/FreeRTOS/Source/stream_buffer.c **** 
1255:Middlewares/Third_Party/FreeRTOS/Source/stream_buffer.c **** #if ( configUSE_TRACE_FACILITY == 1 )
1256:Middlewares/Third_Party/FreeRTOS/Source/stream_buffer.c **** 
1257:Middlewares/Third_Party/FreeRTOS/Source/stream_buffer.c **** 	uint8_t ucStreamBufferGetStreamBufferType( StreamBufferHandle_t xStreamBuffer )
1258:Middlewares/Third_Party/FreeRTOS/Source/stream_buffer.c **** 	{
 2751              		.loc 1 1258 0
 2752              		.cfi_startproc
 2753              		@ args = 0, pretend = 0, frame = 0
 2754              		@ frame_needed = 0, uses_anonymous_args = 0
 2755              		@ link register save eliminated.
 2756              	.LVL297:
1259:Middlewares/Third_Party/FreeRTOS/Source/stream_buffer.c **** 		return ( xStreamBuffer->ucFlags & sbFLAGS_IS_MESSAGE_BUFFER );
 2757              		.loc 1 1259 0
 2758 0000 007F     		ldrb	r0, [r0, #28]	@ zero_extendqisi2
 2759              	.LVL298:
1260:Middlewares/Third_Party/FreeRTOS/Source/stream_buffer.c **** 	}
 2760              		.loc 1 1260 0
 2761 0002 00F00100 		and	r0, r0, #1
 2762 0006 7047     		bx	lr
 2763              		.cfi_endproc
 2764              	.LFE28:
 2766              		.text
 2767              	.Letext0:
 2768              		.file 3 "/usr/include/newlib/machine/_default_types.h"
 2769              		.file 4 "/usr/include/newlib/sys/_stdint.h"
 2770              		.file 5 "/usr/lib/gcc/arm-none-eabi/6.3.1/include/stddef.h"
 2771              		.file 6 "/usr/include/newlib/sys/lock.h"
 2772              		.file 7 "/usr/include/newlib/sys/_types.h"
 2773              		.file 8 "/usr/include/newlib/sys/reent.h"
 2774              		.file 9 "Core/Inc/FreeRTOSConfig.h"
 2775              		.file 10 "Middlewares/Third_Party/FreeRTOS/Source/include/FreeRTOS.h"
 2776              		.file 11 "Middlewares/Third_Party/FreeRTOS/Source/include/task.h"
 2777              		.file 12 "Middlewares/Third_Party/FreeRTOS/Source/include/stream_buffer.h"
 2778              		.file 13 "/usr/include/newlib/string.h"
 2779              		.file 14 "Middlewares/Third_Party/FreeRTOS/Source/include/portable.h"
ARM GAS  /tmp/cc9Iu9BV.s 			page 80


DEFINED SYMBOLS
                            *ABS*:0000000000000000 stream_buffer.c
     /tmp/cc9Iu9BV.s:18     .text.prvBytesInBuffer:0000000000000000 $t
     /tmp/cc9Iu9BV.s:24     .text.prvBytesInBuffer:0000000000000000 prvBytesInBuffer
     /tmp/cc9Iu9BV.s:56     .text.prvInitialiseNewStreamBuffer:0000000000000000 $t
     /tmp/cc9Iu9BV.s:62     .text.prvInitialiseNewStreamBuffer:0000000000000000 prvInitialiseNewStreamBuffer
     /tmp/cc9Iu9BV.s:134    .text.prvWriteBytesToBuffer:0000000000000000 $t
     /tmp/cc9Iu9BV.s:140    .text.prvWriteBytesToBuffer:0000000000000000 prvWriteBytesToBuffer
     /tmp/cc9Iu9BV.s:275    .text.prvWriteMessageToBuffer:0000000000000000 $t
     /tmp/cc9Iu9BV.s:281    .text.prvWriteMessageToBuffer:0000000000000000 prvWriteMessageToBuffer
     /tmp/cc9Iu9BV.s:377    .text.prvReadBytesFromBuffer:0000000000000000 $t
     /tmp/cc9Iu9BV.s:383    .text.prvReadBytesFromBuffer:0000000000000000 prvReadBytesFromBuffer
     /tmp/cc9Iu9BV.s:533    .text.prvReadMessageFromBuffer:0000000000000000 $t
     /tmp/cc9Iu9BV.s:539    .text.prvReadMessageFromBuffer:0000000000000000 prvReadMessageFromBuffer
     /tmp/cc9Iu9BV.s:622    .text.xStreamBufferGenericCreate:0000000000000000 $t
     /tmp/cc9Iu9BV.s:629    .text.xStreamBufferGenericCreate:0000000000000000 xStreamBufferGenericCreate
     /tmp/cc9Iu9BV.s:763    .text.xStreamBufferGenericCreateStatic:0000000000000000 $t
     /tmp/cc9Iu9BV.s:770    .text.xStreamBufferGenericCreateStatic:0000000000000000 xStreamBufferGenericCreateStatic
     /tmp/cc9Iu9BV.s:952    .text.vStreamBufferDelete:0000000000000000 $t
     /tmp/cc9Iu9BV.s:959    .text.vStreamBufferDelete:0000000000000000 vStreamBufferDelete
     /tmp/cc9Iu9BV.s:1013   .text.xStreamBufferReset:0000000000000000 $t
     /tmp/cc9Iu9BV.s:1020   .text.xStreamBufferReset:0000000000000000 xStreamBufferReset
     /tmp/cc9Iu9BV.s:1123   .text.xStreamBufferSetTriggerLevel:0000000000000000 $t
     /tmp/cc9Iu9BV.s:1130   .text.xStreamBufferSetTriggerLevel:0000000000000000 xStreamBufferSetTriggerLevel
     /tmp/cc9Iu9BV.s:1188   .text.xStreamBufferSpacesAvailable:0000000000000000 $t
     /tmp/cc9Iu9BV.s:1195   .text.xStreamBufferSpacesAvailable:0000000000000000 xStreamBufferSpacesAvailable
     /tmp/cc9Iu9BV.s:1253   .text.xStreamBufferBytesAvailable:0000000000000000 $t
     /tmp/cc9Iu9BV.s:1260   .text.xStreamBufferBytesAvailable:0000000000000000 xStreamBufferBytesAvailable
     /tmp/cc9Iu9BV.s:1303   .text.xStreamBufferSend:0000000000000000 $t
     /tmp/cc9Iu9BV.s:1310   .text.xStreamBufferSend:0000000000000000 xStreamBufferSend
     /tmp/cc9Iu9BV.s:1569   .text.xStreamBufferSendFromISR:0000000000000000 $t
     /tmp/cc9Iu9BV.s:1576   .text.xStreamBufferSendFromISR:0000000000000000 xStreamBufferSendFromISR
     /tmp/cc9Iu9BV.s:1763   .text.xStreamBufferReceive:0000000000000000 $t
     /tmp/cc9Iu9BV.s:1770   .text.xStreamBufferReceive:0000000000000000 xStreamBufferReceive
     /tmp/cc9Iu9BV.s:2003   .text.xStreamBufferNextMessageLengthBytes:0000000000000000 $t
     /tmp/cc9Iu9BV.s:2010   .text.xStreamBufferNextMessageLengthBytes:0000000000000000 xStreamBufferNextMessageLengthBytes
     /tmp/cc9Iu9BV.s:2124   .text.xStreamBufferReceiveFromISR:0000000000000000 $t
     /tmp/cc9Iu9BV.s:2131   .text.xStreamBufferReceiveFromISR:0000000000000000 xStreamBufferReceiveFromISR
     /tmp/cc9Iu9BV.s:2313   .text.xStreamBufferIsEmpty:0000000000000000 $t
     /tmp/cc9Iu9BV.s:2320   .text.xStreamBufferIsEmpty:0000000000000000 xStreamBufferIsEmpty
     /tmp/cc9Iu9BV.s:2372   .text.xStreamBufferIsFull:0000000000000000 $t
     /tmp/cc9Iu9BV.s:2379   .text.xStreamBufferIsFull:0000000000000000 xStreamBufferIsFull
     /tmp/cc9Iu9BV.s:2455   .text.xStreamBufferSendCompletedFromISR:0000000000000000 $t
     /tmp/cc9Iu9BV.s:2462   .text.xStreamBufferSendCompletedFromISR:0000000000000000 xStreamBufferSendCompletedFromISR
     /tmp/cc9Iu9BV.s:2576   .text.xStreamBufferReceiveCompletedFromISR:0000000000000000 $t
     /tmp/cc9Iu9BV.s:2583   .text.xStreamBufferReceiveCompletedFromISR:0000000000000000 xStreamBufferReceiveCompletedFromISR
     /tmp/cc9Iu9BV.s:2697   .text.uxStreamBufferGetStreamBufferNumber:0000000000000000 $t
     /tmp/cc9Iu9BV.s:2704   .text.uxStreamBufferGetStreamBufferNumber:0000000000000000 uxStreamBufferGetStreamBufferNumber
     /tmp/cc9Iu9BV.s:2720   .text.vStreamBufferSetStreamBufferNumber:0000000000000000 $t
     /tmp/cc9Iu9BV.s:2727   .text.vStreamBufferSetStreamBufferNumber:0000000000000000 vStreamBufferSetStreamBufferNumber
     /tmp/cc9Iu9BV.s:2742   .text.ucStreamBufferGetStreamBufferType:0000000000000000 $t
     /tmp/cc9Iu9BV.s:2749   .text.ucStreamBufferGetStreamBufferType:0000000000000000 ucStreamBufferGetStreamBufferType
                     .debug_frame:0000000000000010 $d

UNDEFINED SYMBOLS
memset
memcpy
ARM GAS  /tmp/cc9Iu9BV.s 			page 81


pvPortMalloc
vPortFree
vPortEnterCritical
vPortExitCritical
vTaskSetTimeOutState
xTaskNotifyStateClear
xTaskGetCurrentTaskHandle
xTaskNotifyWait
xTaskCheckForTimeOut
vTaskSuspendAll
xTaskGenericNotify
xTaskResumeAll
xTaskGenericNotifyFromISR
